################################################################################
#                                                                              #
#      IAR Universal Linker V4.60D/386                                         #
#                                                                              #
#           Link time     =  22/May/2013  11:59:16                             #
#           Target CPU    =  x51                                               #
#           List file     =  F:\6LoWSN\6lowsn_stack\obj\compiletest\iar51_cc24 #
#                            30\Debug\List\compiletest.map                     #
#           Output file 1 =  F:\6LoWSN\6lowsn_stack\obj\compiletest\iar51_cc24 #
#                            30\Debug\Exe\compiletest.hex                      #
#                            Format: intel-extended                            #
#           Command line  =  "-IC:\Program Files\IAR Systems\Embedded Workbenc #
#                            h 4.05 Evaluation version\8051\CONFIG\"           #
#                            F:\6LoWSN\6lowsn_stack\obj\compiletest\iar51_cc24 #
#                            30\Debug\Obj\adp.r51                              #
#                            F:\6LoWSN\6lowsn_stack\obj\compiletest\iar51_cc24 #
#                            30\Debug\Obj\aps.r51                              #
#                            F:\6LoWSN\6lowsn_stack\obj\compiletest\iar51_cc24 #
#                            30\Debug\Obj\console.r51                          #
#                            F:\6LoWSN\6lowsn_stack\obj\compiletest\iar51_cc24 #
#                            30\Debug\Obj\debug.r51                            #
#                            F:\6LoWSN\6lowsn_stack\obj\compiletest\iar51_cc24 #
#                            30\Debug\Obj\ds.r51                               #
#                            F:\6LoWSN\6lowsn_stack\obj\compiletest\iar51_cc24 #
#                            30\Debug\Obj\evboard.r51                          #
#                            F:\6LoWSN\6lowsn_stack\obj\compiletest\iar51_cc24 #
#                            30\Debug\Obj\halNeighbor.r51                      #
#                            F:\6LoWSN\6lowsn_stack\obj\compiletest\iar51_cc24 #
#                            30\Debug\Obj\halStack.r51                         #
#                            F:\6LoWSN\6lowsn_stack\obj\compiletest\iar51_cc24 #
#                            30\Debug\Obj\icmpv6.r51                           #
#                            F:\6LoWSN\6lowsn_stack\obj\compiletest\iar51_cc24 #
#                            30\Debug\Obj\mac.r51                              #
#                            F:\6LoWSN\6lowsn_stack\obj\compiletest\iar51_cc24 #
#                            30\Debug\Obj\memalloc.r51                         #
#                            F:\6LoWSN\6lowsn_stack\obj\compiletest\iar51_cc24 #
#                            30\Debug\Obj\nd.r51                               #
#                            F:\6LoWSN\6lowsn_stack\obj\compiletest\iar51_cc24 #
#                            30\Debug\Obj\neighbor.r51                         #
#                            F:\6LoWSN\6lowsn_stack\obj\compiletest\iar51_cc24 #
#                            30\Debug\Obj\nwk.r51                              #
#                            F:\6LoWSN\6lowsn_stack\obj\compiletest\iar51_cc24 #
#                            30\Debug\Obj\phy.r51                              #
#                            F:\6LoWSN\6lowsn_stack\obj\compiletest\iar51_cc24 #
#                            30\Debug\Obj\staticbind.r51                       #
#                            F:\6LoWSN\6lowsn_stack\obj\compiletest\iar51_cc24 #
#                            30\Debug\Obj\test_pingpong.r51                    #
#                            F:\6LoWSN\6lowsn_stack\obj\compiletest\iar51_cc24 #
#                            30\Debug\Obj\zep.r51                              #
#                            -o                                                #
#                            F:\6LoWSN\6lowsn_stack\obj\compiletest\iar51_cc24 #
#                            30\Debug\Exe\compiletest.hex                      #
#                            -Fintel-extended -l                               #
#                            F:\6LoWSN\6lowsn_stack\obj\compiletest\iar51_cc24 #
#                            30\Debug\List\compiletest.map                     #
#                            -xmsn                                             #
#                            "-IC:\Program Files\IAR Systems\Embedded Workbenc #
#                            h 4.05 Evaluation version\8051\LIB\"              #
#                            -f                                                #
#                            "C:\Program Files\IAR Systems\Embedded Workbench  #
#                            4.05 Evaluation version\8051\config\lnk51ew_cc243 #
#                            0_8K.xcl"                                         #
#                            (-D_IDATA_END=0xFF -D_PDATA_START=0xEF00          #
#                            -D_PDATA_END=0xEFFF -D_IXDATA_START=0xE000        #
#                            -D_IXDATA_END=0xFD53                              #
#                            -D_XDATA_START=_IXDATA_START                      #
#                            -D_XDATA_END=_IXDATA_END -D_CODE_START=0x0000     #
#                            -D_CODE_END=0xFFFF -D_NEAR_CODE_END=0xFFFF        #
#                            -D_TINY_CODE_END=0x7FF                            #
#                            -D_FIRST_BANK_ADDR=0x10000 -D_NR_OF_BANKS=0x03    #
#                            -D?REGISTER_BANK=0 -D_REGISTER_BANK_START=0       #
#                            -D?PBANK_NUMBER=EF -D?PBANK=93                    #
#                            -D_BREG_START=0x00 -D?VB=0x20                     #
#                            -D_FAR_DATA_NR_OF_BANKS=0x0E                      #
#                            -D_FAR_DATA_START=0x010001                        #
#                            -D_FAR_DATA_END=0xFFFFFF                          #
#                            -D_FAR_CODE_START=_CODE_START                     #
#                            -D_FAR_CODE_END=_CODE_END -f lnk_base.xcl         #
#                            (-Z(BIT)BREG=_BREG_START -Z(BIT)BIT_N=0-7F        #
#                            -Z(DATA)REGISTERS+8=_REGISTER_BANK_START          #
#                            -Z(DATA)BDATA_Z,BDATA_N,BDATA_I=20-2F             #
#                            -Z(DATA)VREG+_NR_OF_VIRTUAL_REGISTERS=08-7F       #
#                            -Z(DATA)PSP,XSP=08-7F -Z(DATA)DOVERLAY=08-7F      #
#                            -Z(DATA)DATA_I,DATA_Z,DATA_N=08-7F                #
#                            -U(IDATA)0-7F=(DATA)0-7F                          #
#                            -Z(IDATA)IDATA_I,IDATA_Z,IDATA_N=08-_IDATA_END    #
#                            -Z(IDATA)ISTACK+_IDATA_STACK_SIZE#08-_IDATA_END   #
#                            -Z(IDATA)IOVERLAY=08-FF -Z(CODE)INTVEC=0          #
#                            -Z(CODE)CSTART=_CODE_START-_CODE_END              #
#                            -Z(CODE)RCODE=_CODE_START-_CODE_END               #
#                            -Z(CODE)TINY_CODE=_CODE_START-_TINY_CODE_END      #
#                            -Z(CODE)NEAR_CODE=_CODE_START-_NEAR_CODE_END      #
#                            -Z(CODE)DIFUNCT=_CODE_START-_CODE_END             #
#                            -Z(CODE)FAR_CODE=_CODE_START-_CODE_END            #
#                            -P(CODE)BANKED_CODE=[(_CODEBANK_START+_FIRST_BANK #
#                            _ADDR)-(_CODEBANK_END+_FIRST_BANK_ADDR)]*_NR_OF_B #
#                            ANKS+10000                                        #
#                            -Z(CODE)BIT_ID,BDATA_ID,DATA_ID,IDATA_ID,IXDATA_I #
#                            D,PDATA_ID,XDATA_ID=_CODE_START-_CODE_END         #
#                            -Z(CODE)HUGE_ID=_FAR_CODE_START-_FAR_CODE_END     #
#                            -Z(CODE)CODE_C=_CODE_START-_CODE_END              #
#                            -Z(CODE)FAR_CODE_C=_FAR_CODE_START-_FAR_CODE_END  #
#                            -Z(CODE)HUGE_CODE_C=_FAR_CODE_START-_FAR_CODE_END #
#                            -Z(CODE)CHECKSUM#_CODE_END                        #
#                            -Z(XDATA)EXT_STACK+_EXTENDED_STACK_SIZE=_EXTENDED #
#                            _STACK_START-_EXTENDED_STACK_END                  #
#                            -Z(XDATA)PSTACK+_PDATA_STACK_SIZE=_PDATA_START-_P #
#                            DATA_END                                          #
#                            -Z(XDATA)XSTACK+_XDATA_STACK_SIZE=_XDATA_START-_X #
#                            DATA_END                                          #
#                            -Z(XDATA)PDATA_N,PDATA_Z,PDATA_I=_PDATA_START-_PD #
#                            ATA_END                                           #
#                            -Z(XDATA)IXDATA_N,IXDATA_Z,IXDATA_I=_IXDATA_START #
#                            -_IXDATA_END                                      #
#                            -Z(XDATA)XDATA_N,XDATA_Z,XDATA_I=_XDATA_START-_XD #
#                            ATA_END                                           #
#                            -Z(XDATA)XDATA_HEAP+_XDATA_HEAP_SIZE=_XDATA_START #
#                            -_XDATA_END                                       #
#                            -Z(CONST)XDATA_ROM_C=_XDATA_START-_XDATA_END      #
#                            -Z(SPLIT-XDATA)FAR_Z=[_FAR_DATA_START-_FAR_DATA_E #
#                            ND]/10000                                         #
#                            -Z(SPLIT-XDATA)FAR_I=[_FAR_DATA_START-_FAR_DATA_E #
#                            ND]/10000                                         #
#                            -Z(SPLIT-CODE)FAR_ID=[_FAR_CODE_START-_FAR_CODE_E #
#                            ND]/10000                                         #
#                            -Z(SPLIT-XDATA)FAR_HEAP+_FAR_HEAP_SIZE=[_FAR_DATA #
#                            _START-_FAR_DATA_END]/10000                       #
#                            -P(XDATA)FAR_N=[_FAR_DATA_START-_FAR_DATA_END]*_F #
#                            AR_DATA_NR_OF_BANKS+10000                         #
#                            -P(CONST)FAR_ROM_C=[_FAR_DATA_START-_FAR_DATA_END #
#                            ]*E+10000                                         #
#                            -Z(XDATA)HUGE_N,HUGE_Z,HUGE_I=_FAR_DATA_START-_FA #
#                            R_DATA_END                                        #
#                            -Z(XDATA)HUGE_HEAP+_HUGE_HEAP_SIZE=_FAR_DATA_STAR #
#                            T-_FAR_DATA_END                                   #
#                            -Z(CONST)HUGE_ROM_C=_FAR_DATA_START-_FAR_DATA_END #
#                            -cx51) -D_PM0_XDATA_START=E000                    #
#                            -D_PM0_XDATA_END=EFFF                             #
#                            -Z(XDATA)PM0_XDATA=_PM0_XDATA_START-_PM0_XDATA_EN #
#                            D                                                 #
#                            -D_IEEE_ADDRESS_SPACE_START=(_CODE_END-7)         #
#                            -D_IEEE_ADDRESS_SPACE_END=_CODE_END               #
#                            -Z(CODE)IEEE_ADDRESS_SPACE=_IEEE_ADDRESS_SPACE_ST #
#                            ART-_IEEE_ADDRESS_SPACE_END)                      #
#                            -D_NR_OF_VIRTUAL_REGISTERS=8                      #
#                            -D_CODEBANK_START=0 -D_CODEBANK_END=0 -s          #
#                            __program_start                                   #
#                            "C:\Program Files\IAR Systems\Embedded Workbench  #
#                            4.05 Evaluation version\8051\LIB\CLIB\cl-pli-nlxd #
#                            -1e16x01.r51"                                     #
#                            -D_IDATA_STACK_SIZE=0x40                          #
#                            -D_EXTENDED_STACK_START=0x00                      #
#                            -D_EXTENDED_STACK_END=0x00                        #
#                            -D_EXTENDED_STACK_SIZE=0x00                       #
#                            -D_PDATA_STACK_SIZE=0x80                          #
#                            -D_XDATA_STACK_SIZE=0x1FF                         #
#                            -D_XDATA_HEAP_SIZE=0xFF -D_FAR_HEAP_SIZE=0xFFF    #
#                            -D_HUGE_HEAP_SIZE=0xFFF                           #
#                                                                              #
#                        Copyright 1987-2006 IAR Systems. All rights reserved. #
################################################################################





                ****************************************
                *                                      *
                *           CROSS REFERENCE            *
                *                                      *
                ****************************************

       Program entry at : CODE      000000FC  Relocatable, from module : CSTARTUP




                ****************************************
                *                                      *
                *            RUNTIME MODEL             *
                *                                      *
                ****************************************

  __calling_convention     = xdata_reentrant
  __code_model             = near
  __core                   = plain
  __data_model             = large
  __dptr_size              = 16
  __extended_stack         = disabled
  __location_for_constants = data
  __number_of_dptrs        = 1
  __rt_version             = 1



                ****************************************
                *                                      *
                *              MODULE MAP              *
                *                                      *
                ****************************************


  DEFINED ABSOLUTE ENTRIES
    *************************************************************************

  DEFINED ABSOLUTE ENTRIES
  PROGRAM MODULE, NAME : ?ABS_ENTRY_MOD

Absolute parts
           ENTRY                   ADDRESS         REF BY
           =====                   =======         ======
           _HUGE_HEAP_SIZE         00000FFF 
           _FAR_HEAP_SIZE          00000FFF 
           _XDATA_HEAP_SIZE        000000FF 
           _XDATA_STACK_SIZE       000001FF 
           _PDATA_STACK_SIZE       00000080 
           _EXTENDED_STACK_SIZE    00000000 
           _EXTENDED_STACK_END     00000000 
           _EXTENDED_STACK_START   00000000 
           _IDATA_STACK_SIZE       00000040 
           _CODEBANK_END           00000000 
           _CODEBANK_START         00000000 
           _NR_OF_VIRTUAL_REGISTERS
                                   00000008 
           _IEEE_ADDRESS_SPACE_END
                                   0000FFFF 
           _IEEE_ADDRESS_SPACE_START
                                   0000FFF8 
           _PM0_XDATA_END          0000EFFF 
           _PM0_XDATA_START        0000E000 
           _FAR_CODE_END           0000FFFF 
           _FAR_CODE_START         00000000 
           _FAR_DATA_END           00FFFFFF 
           _FAR_DATA_START         00010001 
           _FAR_DATA_NR_OF_BANKS   0000000E 
           ?VB                     00000020        ?FUNC_ENTER_XDATA (?FUNC_ENTER_XDATA)
                                                   ?FUNC_LEAVE_XDATA (?FUNC_LEAVE_XDATA)
                                                   ?INTERRUPT_ENTER_XSP (?INTERRUPT_ENTER_XSP)
                                                   ?INTERRUPT_LEAVE_XSP (?INTERRUPT_LEAVE_XSP)
           _BREG_START             00000000 
           ?PBANK                  00000093 
           ?PBANK_NUMBER           000000EF 
           _REGISTER_BANK_START    00000000 
           ?REGISTER_BANK          00000000        Segment part 6 (CSTARTUP)
           _NR_OF_BANKS            00000003 
           _FIRST_BANK_ADDR        00010000 
           _TINY_CODE_END          000007FF 
           _NEAR_CODE_END          0000FFFF 
           _CODE_END               0000FFFF 
           _CODE_START             00000000 
           _XDATA_END              0000FD53 
           _XDATA_START            0000E000 
           _IXDATA_END             0000FD53 
           _IXDATA_START           0000E000 
           _PDATA_END              0000EFFF 
           _PDATA_START            0000EF00 
           _IDATA_END              000000FF 
    *************************************************************************

  FILE NAME : F:\6LoWSN\6lowsn_stack\obj\compiletest\iar51_cc2430\Debug\Obj\adp.r51
  PROGRAM MODULE, NAME : adp

  SEGMENTS IN THE MODULE
  ======================
XDATA_Z
  Relative segment, address: XDATA 0000E1FF - 0000E1FF (0x1 bytes), align: 0
  Segment part 6.             Intra module refs:   adpInit
                                                   adpRxBusy
                                                   adpRxFSM
                                                   adpRxHandoff
           LOCAL                   ADDRESS         
           =====                   =======         
           adpRxState              0000E1FF 
    -------------------------------------------------------------------------
XDATA_Z
  Relative segment, address: XDATA 0000E200 - 0000E228 (0x29 bytes), align: 0
  Segment part 7.             Intra module refs:   adpFSM
                                                   adpFmtCompHeader
                                                   adpTxCompData
           ENTRY                   ADDRESS         REF BY
           =====                   =======         ======
           a_adp_service           0000E200        main (test_pingpong)
                                                   nwkFSM (nwk)
                                                   nwkTxData (nwk)
    -------------------------------------------------------------------------
XDATA_Z
  Relative segment, address: XDATA 0000E229 - 0000E229 (0x1 bytes), align: 0
  Segment part 8.             Intra module refs:   adpFSM
                                                   adpInit
           ENTRY                   ADDRESS         REF BY
           =====                   =======         ======
           adpState                0000E229        nwkFSM (nwk)
                                                   nwkTxData (nwk)
    -------------------------------------------------------------------------
XDATA_Z
  Relative segment, address: XDATA 0000E22A - 0000E260 (0x37 bytes), align: 0
  Segment part 9.             Intra module refs:   adpParseCompHdr
                                                   adpParseHdr
                                                   adpRxFSM
                                                   adpRxHandoff
           ENTRY                   ADDRESS         REF BY
           =====                   =======         ======
           a_adp_rx_data           0000E22A        nwkRxHandoff (nwk)
    -------------------------------------------------------------------------
XDATA_Z
  Relative segment, address: XDATA 0000E261 - 0000E261 (0x1 bytes), align: 0
  Segment part 10.            Intra module refs:   adpInit
                                                   adpTxData
           ENTRY                   ADDRESS         REF BY
           =====                   =======         ======
           adpDSN                  0000E261 
    -------------------------------------------------------------------------
XDATA_Z
  Relative segment, address: XDATA 0000E262 - 0000E264 (0x3 bytes), align: 0
  Segment part 11.            Intra module refs:   adpFSM
                                                   adpInit
           ENTRY                   ADDRESS         REF BY
           =====                   =======         ======
           adp_pib                 0000E262 
    -------------------------------------------------------------------------
XDATA_Z
  Relative segment, address: XDATA 0000E265 - 0000E268 (0x4 bytes), align: 0
  Segment part 12.            Intra module refs:   adpFSM
           LOCAL                   ADDRESS         
           =====                   =======         
           adp_utility_timer       0000E265 
    -------------------------------------------------------------------------
XDATA_Z
  Relative segment, address: XDATA 0000E269 - 0000E269 (0x1 bytes), align: 0
  Segment part 13.            Intra module refs:   adpFSM
           LOCAL                   ADDRESS         
           =====                   =======         
           adp_retries             0000E269 
    -------------------------------------------------------------------------
XDATA_Z
  Relative segment, address: XDATA 0000E26A - 0000E27C (0x13 bytes), align: 0
  Segment part 14.            Intra module refs:   adpFSM
                                                   adpFmtCompHeader
                                                   adpTxCompData
                                                   adpTxData
           ENTRY                   ADDRESS         REF BY
           =====                   =======         ======
           a_adp_tx_data           0000E26A        nwkFindDstDLLAddr (nwk)
    -------------------------------------------------------------------------
NEAR_CODE
  Relative segment, address: CODE 0000061F - 00000645 (0x27 bytes), align: 0
  Segment part 21.
           ENTRY                   ADDRESS         REF BY
           =====                   =======         ======
           adpInit                 0000061F        apsInit (aps)
               stack 1 = 00000000 ( 00000002 )
    -------------------------------------------------------------------------
NEAR_CODE
  Relative segment, address: CODE 00000646 - 000008B1 (0x26c bytes), align: 0
  Segment part 22.
           ENTRY                   ADDRESS         REF BY
           =====                   =======         ======
           adpFSM                  00000646        nwkFSM (nwk)
                                                   nwkTxData (nwk)
               calls direct
               stack 1 = 00000000 ( 00000000 )
               stack 2 = 00000000 ( 0000000F )
    -------------------------------------------------------------------------
NEAR_CODE
  Relative segment, address: CODE 000008B2 - 00000ADE (0x22d bytes), align: 0
  Segment part 23.            Intra module refs:   adpFSM
           ENTRY                   ADDRESS         REF BY
           =====                   =======         ======
           adpTxData               000008B2 
               calls direct
               stack 1 = 00000000 ( 00000003 )
               stack 2 = 0000000F ( 00000000 )
    -------------------------------------------------------------------------
NEAR_CODE
  Relative segment, address: CODE 00000ADF - 00000B93 (0xb5 bytes), align: 0
  Segment part 24.            Intra module refs:   adpFSM
           LOCAL                   ADDRESS         
           =====                   =======         
           adpRxFSM                00000ADF 
               calls direct
               stack 1 = 00000000 ( 00000002 )
               stack 2 = 0000000F ( 00000000 )
    -------------------------------------------------------------------------
NEAR_CODE
  Relative segment, address: CODE 00000B94 - 00000BA8 (0x15 bytes), align: 0
  Segment part 25.
           ENTRY                   ADDRESS         REF BY
           =====                   =======         ======
           adpRxBusy               00000B94        macRxFSM (mac)
               stack 1 = 00000000 ( 00000002 )
    -------------------------------------------------------------------------
NEAR_CODE
  Relative segment, address: CODE 00000BA9 - 00000BF1 (0x49 bytes), align: 0
  Segment part 26.
           ENTRY                   ADDRESS         REF BY
           =====                   =======         ======
           adpRxHandoff            00000BA9        macRxFSM (mac)
               stack 1 = 00000000 ( 00000002 )
    -------------------------------------------------------------------------
NEAR_CODE
  Relative segment, address: CODE 00000BF2 - 00000C5F (0x6e bytes), align: 0
  Segment part 27.            Intra module refs:   adpRxFSM
           LOCAL                   ADDRESS         
           =====                   =======         
           adpParseHdr             00000BF2 
               stack 1 = 00000002 ( 00000002 )
    -------------------------------------------------------------------------
NEAR_CODE
  Relative segment, address: CODE 00000C60 - 00000CEE (0x8f bytes), align: 0
  Segment part 28.            Intra module refs:   adpGetHopsToDest
           ENTRY                   ADDRESS         REF BY
           =====                   =======         ======
           adpFindParentSADDR      00000C60 
               calls direct
               stack 1 = 00000000 ( 00000000 )
               stack 2 = 00000011 ( 0000000F )
    -------------------------------------------------------------------------
NEAR_CODE
  Relative segment, address: CODE 00000CEF - 00000EF5 (0x207 bytes), align: 0
  Segment part 29.
           ENTRY                   ADDRESS         REF BY
           =====                   =======         ======
           adpGetHopsToDest        00000CEF        apsTxData (aps)
               calls direct
               stack 1 = 00000000 ( 00000000 )
               stack 2 = 00000000 ( 00000011 )
    -------------------------------------------------------------------------
NEAR_CODE
  Relative segment, address: CODE 00000EF6 - 0000125E (0x369 bytes), align: 0
  Segment part 30.            Intra module refs:   adpRxFSM
           ENTRY                   ADDRESS         REF BY
           =====                   =======         ======
           adpParseCompHdr         00000EF6 
               calls direct
               stack 1 = 00000002 ( 00000001 )
               stack 2 = 00000000 ( 0000000E )
    -------------------------------------------------------------------------
NEAR_CODE
  Relative segment, address: CODE 0000125F - 00001328 (0xca bytes), align: 0
  Segment part 31.            Intra module refs:   adpFSM
           ENTRY                   ADDRESS         REF BY
           =====                   =======         ======
           adpFmtCompHeader        0000125F 
               calls direct
               stack 1 = 00000000 ( 00000002 )
               stack 2 = 0000000F ( 0000000B )
    -------------------------------------------------------------------------
NEAR_CODE
  Relative segment, address: CODE 00001329 - 00001673 (0x34b bytes), align: 0
  Segment part 32.            Intra module refs:   adpFSM
           ENTRY                   ADDRESS         REF BY
           =====                   =======         ======
           adpTxCompData           00001329 
               stack 1 = 00000000 ( 00000001 )
               stack 2 = 0000000F ( 0000000B )
    -------------------------------------------------------------------------
XDATA_I
  Relative segment, address: XDATA 0000EE54 - 0000EE57 (0x4 bytes), align: 0
  Segment part 15.            Intra module refs:   PingPong (test_pingpong)
                                                   adpFSM
                                                   apsTxFSM (aps)
                                                   doIEEE_backoff (halStack)
                                                   macFSM (mac)
                                                   macTxFSM (mac)
                                                   main (test_pingpong)
                                                   nwkFSM (nwk)
                                                   phyFSM (phy)
                                                   zepFSM (zep)
           ENTRY                   ADDRESS         REF BY
           =====                   =======         ======
           __Constant_fffff        0000EE54 
    -------------------------------------------------------------------------
XDATA_ID
  Relative segment, address: CODE 00007B7A - 00007B7D (0x4 bytes), align: 0
  Segment part 16.            Intra module refs:   __Constant_fffff
    -------------------------------------------------------------------------
XDATA_I
  Relative segment, address: XDATA 0000EE58 - 0000EE5B (0x4 bytes), align: 0
  Segment part 17.            Intra module refs:   adpFSM
                                                   zepFSM (zep)
           ENTRY                   ADDRESS         REF BY
           =====                   =======         ======
           __Constant_3071         0000EE58 
    -------------------------------------------------------------------------
XDATA_ID
  Relative segment, address: CODE 00007B7E - 00007B81 (0x4 bytes), align: 0
  Segment part 18.            Intra module refs:   __Constant_3071
    -------------------------------------------------------------------------
XDATA_I
  Relative segment, address: XDATA 0000EE5C - 0000EE5F (0x4 bytes), align: 0
  Segment part 19.            Intra module refs:   adpFmtCompHeader
                                                   adpParseCompHdr
                                                   apsTxIPData (aps)
                                                   doIEEE_backoff (halStack)
                                                   ds6Init (ds)
                                                   ds6LocalIPFrom16 (ds)
                                                   halWait (halStack)
                                                   icmpCommonFmt (icmpv6)
                                                   lowsn_ds6_prefix_add (ds)
                                                   lowsn_ds6_uaddr_add (ds)
                                                   macInit (mac)
                                                   main (test_pingpong)
                                                   ndFmtRS (nd)
                                                   ndParseRA (nd)
                                                   stimer_set (halStack)
           ENTRY                   ADDRESS         REF BY
           =====                   =======         ======
           __Constant_0            0000EE5C 
    -------------------------------------------------------------------------
XDATA_ID
  Relative segment, address: CODE 00007B82 - 00007B85 (0x4 bytes), align: 0
  Segment part 20.            Intra module refs:   __Constant_0

    *************************************************************************

  FILE NAME : F:\6LoWSN\6lowsn_stack\obj\compiletest\iar51_cc2430\Debug\Obj\aps.r51
  PROGRAM MODULE, NAME : aps

  SEGMENTS IN THE MODULE
  ======================
XDATA_Z
  Relative segment, address: XDATA 0000E27D - 0000E28E (0x12 bytes), align: 0
  Segment part 7.             Intra module refs:   apsFSM
                                                   apsInit
                                                   apsRxFSM
                                                   apsTxData
                                                   apsTxFSM
                                                   apsTxIPData
           ENTRY                   ADDRESS         REF BY
           =====                   =======         ======
           aps_pib                 0000E27D        PingPong (test_pingpong)
                                                   zepCommonFmt (zep)
                                                   zepFmtNodeInfoRsp (zep)
    -------------------------------------------------------------------------
XDATA_Z
  Relative segment, address: XDATA 0000E28F - 0000E295 (0x7 bytes), align: 0
  Segment part 8.             Intra module refs:   aplFmtSendIPMSG
                                                   apsFSM
                                                   apsInjectPacket
           ENTRY                   ADDRESS         REF BY
           =====                   =======         ======
           a_aps_service           0000E28F        PingPong (test_pingpong)
                                                   main (test_pingpong)
    -------------------------------------------------------------------------
XDATA_Z
  Relative segment, address: XDATA 0000E296 - 0000E296 (0x1 bytes), align: 0
  Segment part 9.             Intra module refs:   aplFmtSendIPMSG
                                                   apsFSM
                                                   apsInit
           ENTRY                   ADDRESS         REF BY
           =====                   =======         ======
           apsState                0000E296        PingPong (test_pingpong)
                                                   main (test_pingpong)
    -------------------------------------------------------------------------
XDATA_Z
  Relative segment, address: XDATA 0000E297 - 0000E29C (0x6 bytes), align: 0
  Segment part 10.
           ENTRY                   ADDRESS         REF BY
           =====                   =======         ======
           apsEndPoints            0000E297        zepFmtNodeInfoRsp (zep)
    -------------------------------------------------------------------------
XDATA_Z
  Relative segment, address: XDATA 0000E29D - 0000E2D5 (0x39 bytes), align: 0
  Segment part 11.            Intra module refs:   aplFmtSendIPMSG
                                                   apsCheckAck
                                                   apsFSM
                                                   apsFormatAck
                                                   apsInjectPacket
                                                   apsInjectTxPacket
                                                   apsTxData
                                                   apsTxFSM
                                                   apsTxIPData
           ENTRY                   ADDRESS         REF BY
           =====                   =======         ======
           a_aps_tx_data           0000E29D        zepCommonFmt (zep)
                                                   zepFmtAlarm (zep)
                                                   zepFmtEndDeviceAnnounce (zep)
                                                   zepFmtNodeInfoRsp (zep)
                                                   zepFmtPing (zep)
    -------------------------------------------------------------------------
XDATA_Z
  Relative segment, address: XDATA 0000E2D6 - 0000E301 (0x2c bytes), align: 0
  Segment part 12.            Intra module refs:   apsCheckAck
                                                   apsFormatAck
                                                   apsInjectPacket
                                                   apsInjectTxPacket
                                                   apsParseIPHdr
                                                   apsRxFSM
                                                   apsRxHandoff
           ENTRY                   ADDRESS         REF BY
           =====                   =======         ======
           a_aps_rx_data           0000E2D6        usrRxPacketCallback (test_pingpong)
                                                   zepHandleRxPacket (zep)
    -------------------------------------------------------------------------
XDATA_Z
  Relative segment, address: XDATA 0000E302 - 0000E302 (0x1 bytes), align: 0
  Segment part 14.            Intra module refs:   apsFSM
                                                   apsInit
                                                   apsInjectTxPacket
                                                   apsRxBusy
                                                   apsRxFSM
                                                   apsRxHandoff
           LOCAL                   ADDRESS         
           =====                   =======         
           apsRxState              0000E302 
    -------------------------------------------------------------------------
XDATA_Z
  Relative segment, address: XDATA 0000E303 - 0000E303 (0x1 bytes), align: 0
  Segment part 15.            Intra module refs:   apsFSM
                                                   apsInjectTxPacket
                                                   apsTxData
                                                   apsTxFSM
                                                   apsTxIPData
           LOCAL                   ADDRESS         
           =====                   =======         
           apsTxFSM_status         0000E303 
    -------------------------------------------------------------------------
NEAR_CODE
  Relative segment, address: CODE 00001674 - 00001690 (0x1d bytes), align: 0
  Segment part 22.
           ENTRY                   ADDRESS         REF BY
           =====                   =======         ======
           aplMacTicksToUs         00001674        PingPong (test_pingpong)
               calls direct
               stack 1 = 00000000 ( 00000000 )
               stack 2 = 00000000 ( 0000000B )
    -------------------------------------------------------------------------
NEAR_CODE
  Relative segment, address: CODE 00001691 - 000016E7 (0x57 bytes), align: 0
  Segment part 25.
           ENTRY                   ADDRESS         REF BY
           =====                   =======         ======
           apsInit                 00001691        main (test_pingpong)
               calls direct
               stack 1 = 00000000 ( 00000000 )
               stack 2 = 00000000 ( 0000000B )
    -------------------------------------------------------------------------
NEAR_CODE
  Relative segment, address: CODE 000016E8 - 00001796 (0xaf bytes), align: 0
  Segment part 28.
           ENTRY                   ADDRESS         REF BY
           =====                   =======         ======
           aplFmtSendIPMSG         000016E8        PingPong (test_pingpong)
               calls direct
               stack 1 = 00000000 ( 00000000 )
               stack 2 = 00000016 ( 0000000E )
    -------------------------------------------------------------------------
NEAR_CODE
  Relative segment, address: CODE 00001797 - 000019A0 (0x20a bytes), align: 0
  Segment part 29.            Intra module refs:   aplFmtSendIPMSG
           ENTRY                   ADDRESS         REF BY
           =====                   =======         ======
           apsFSM                  00001797        PingPong (test_pingpong)
                                                   main (test_pingpong)
               calls direct
               stack 1 = 00000002 ( 00000002 )
               stack 2 = 00000016 ( 00000000 )
    -------------------------------------------------------------------------
NEAR_CODE
  Relative segment, address: CODE 000019A1 - 00001A9E (0xfe bytes), align: 0
  Segment part 30.            Intra module refs:   apsFSM
           LOCAL                   ADDRESS         
           =====                   =======         
           apsInjectPacket         000019A1 
               calls direct
               stack 1 = 00000002 ( 00000001 )
               stack 2 = 00000000 ( 00000008 )
    -------------------------------------------------------------------------
NEAR_CODE
  Relative segment, address: CODE 00001A9F - 00001E2B (0x38d bytes), align: 0
  Segment part 31.            Intra module refs:   apsFSM
                                                   apsTxFSM
           ENTRY                   ADDRESS         REF BY
           =====                   =======         ======
           apsTxData               00001A9F 
               calls direct
               stack 1 = 00000002 ( 00000001 )
               stack 2 = 0000000B ( 0000000B )
    -------------------------------------------------------------------------
NEAR_CODE
  Relative segment, address: CODE 00001E2C - 00002305 (0x4da bytes), align: 0
  Segment part 32.            Intra module refs:   apsFSM
           ENTRY                   ADDRESS         REF BY
           =====                   =======         ======
           apsTxIPData             00001E2C 
               calls direct
               stack 1 = 00000002 ( 00000001 )
               stack 2 = 00000000 ( 0000000B )
    -------------------------------------------------------------------------
NEAR_CODE
  Relative segment, address: CODE 00002306 - 00002396 (0x91 bytes), align: 0
  Segment part 33.            Intra module refs:   apsTxData
                                                   apsTxIPData
           LOCAL                   ADDRESS         
           =====                   =======         
           apsInjectTxPacket       00002306 
               calls direct
               stack 1 = 00000000 ( 00000001 )
               stack 2 = 0000000B ( 00000008 )
    -------------------------------------------------------------------------
NEAR_CODE
  Relative segment, address: CODE 00002397 - 000024EF (0x159 bytes), align: 0
  Segment part 34.            Intra module refs:   apsFSM
                                                   apsInjectTxPacket
           LOCAL                   ADDRESS         
           =====                   =======         
           apsRxFSM                00002397 
               calls direct
               stack 1 = 00000002 ( 00000000 )
               stack 2 = 00000008 ( 00000008 )
    -------------------------------------------------------------------------
NEAR_CODE
  Relative segment, address: CODE 000024F0 - 00002560 (0x71 bytes), align: 0
  Segment part 35.            Intra module refs:   apsRxFSM
           LOCAL                   ADDRESS         
           =====                   =======         
           apsCheckAck             000024F0 
               stack 1 = 00000000 ( 00000002 )
               stack 2 = 00000008 ( 00000000 )
    -------------------------------------------------------------------------
NEAR_CODE
  Relative segment, address: CODE 00002561 - 00002575 (0x15 bytes), align: 0
  Segment part 36.
           ENTRY                   ADDRESS         REF BY
           =====                   =======         ======
           apsRxBusy               00002561        nwkRxFSM (nwk)
               stack 1 = 00000000 ( 00000002 )
    -------------------------------------------------------------------------
NEAR_CODE
  Relative segment, address: CODE 00002576 - 000025FB (0x86 bytes), align: 0
  Segment part 37.
           ENTRY                   ADDRESS         REF BY
           =====                   =======         ======
           apsRxHandoff            00002576        nwkRxFSM (nwk)
               stack 1 = 00000000 ( 00000002 )
    -------------------------------------------------------------------------
NEAR_CODE
  Relative segment, address: CODE 000025FC - 000027C3 (0x1c8 bytes), align: 0
  Segment part 38.            Intra module refs:   apsRxFSM
           LOCAL                   ADDRESS         
           =====                   =======         
           apsParseIPHdr           000025FC 
               stack 1 = 00000000 ( 00000002 )
               stack 2 = 00000008 ( 00000000 )
    -------------------------------------------------------------------------
NEAR_CODE
  Relative segment, address: CODE 000027C4 - 00002879 (0xb6 bytes), align: 0
  Segment part 39.            Intra module refs:   apsFSM
           LOCAL                   ADDRESS         
           =====                   =======         
           apsFormatAck            000027C4 
               stack 1 = 00000002 ( 00000002 )
    -------------------------------------------------------------------------
NEAR_CODE
  Relative segment, address: CODE 0000287A - 000029A7 (0x12e bytes), align: 0
  Segment part 40.            Intra module refs:   apsFSM
           LOCAL                   ADDRESS         
           =====                   =======         
           apsTxFSM                0000287A 
               calls direct
               stack 1 = 00000002 ( 00000002 )
               stack 2 = 00000000 ( 0000000B )
    -------------------------------------------------------------------------
XDATA_I
  Relative segment, address: XDATA 0000EE60 - 0000EE63 (0x4 bytes), align: 0
  Segment part 16.            Intra module refs:   apsInit
           ENTRY                   ADDRESS         REF BY
           =====                   =======         ======
           __Constant_3070         0000EE60 
    -------------------------------------------------------------------------
XDATA_ID
  Relative segment, address: CODE 00007B86 - 00007B89 (0x4 bytes), align: 0
  Segment part 17.            Intra module refs:   __Constant_3070
    -------------------------------------------------------------------------
SFR_AN
  Relative segment, address: DATA 000000A8 - 000000A8 (0x1 bytes), align: 0
  Segment part 1. ROOT.
           ENTRY                   ADDRESS         REF BY
           =====                   =======         ======
           _A_IEN0                 000000A8 

    *************************************************************************

  FILE NAME : F:\6LoWSN\6lowsn_stack\obj\compiletest\iar51_cc2430\Debug\Obj\console.r51
  PROGRAM MODULE, NAME : console

  SEGMENTS IN THE MODULE
  ======================
NEAR_CODE
  Relative segment, address: CODE 000029A8 - 000029AF (0x8 bytes), align: 0
  Segment part 21.            Intra module refs:   conPrintConfig
           ENTRY                   ADDRESS         REF BY
           =====                   =======         ======
           conPCRLF                000029A8        PingPong (test_pingpong)
                                                   main (test_pingpong)
                                                   usrGetPrefixCallback (test_pingpong)
                                                   usrRxPacketCallback (test_pingpong)
               calls direct
               stack 1 = 00000000 ( 00000000 )
               stack 2 = 00000013 ( 00000000 )
    -------------------------------------------------------------------------
CODE_C
  Relative segment, address: CODE 00007BD2 - 00007BD3 (0x2 bytes), align: 0
  Segment part 6.             Intra module refs:   conPCRLF
           LOCAL                   ADDRESS         
           =====                   =======         
           conPCRLF{1}::xxxxromstr
                                   00007BD2 
    -------------------------------------------------------------------------
NEAR_CODE
  Relative segment, address: CODE 000029B0 - 000029D4 (0x25 bytes), align: 0
  Segment part 22.            Intra module refs:   conPCRLF
                                                   conPrintConfig
                                                   conPrintIP6ADDR_bytes
                                                   conPrintIP6ADDR_dbytes
                                                   conPrintLADDR_bytes
                                                   conPrintUINT16
                                                   conPrintUINT32
                                                   conPrintUINT8
           ENTRY                   ADDRESS         REF BY
           =====                   =======         ======
           conPrintROMString_func
                                   000029B0        PingPong (test_pingpong)
                                                   macRxFSM (mac)
                                                   main (test_pingpong)
                                                   phyFSM (phy)
                                                   usrGetPrefixCallback (test_pingpong)
                                                   usrRxPacketCallback (test_pingpong)
               calls direct
               stack 1 = 00000001 ( 00000002 )
               stack 2 = 00000013 ( 00000000 )
    -------------------------------------------------------------------------
NEAR_CODE
  Relative segment, address: CODE 000029D5 - 00002A12 (0x3e bytes), align: 0
  Segment part 24.            Intra module refs:   conPrintIP6ADDR_bytes
                                                   conPrintIP6ADDR_dbytes
                                                   conPrintLADDR_bytes
                                                   conPrintUINT16
                                                   conPrintUINT32
                                                   conPrintUINT8
           ENTRY                   ADDRESS         REF BY
           =====                   =======         ======
           conPrintUINT8_noleader
                                   000029D5 
               calls direct
               stack 1 = 00000001 ( 00000001 )
               stack 2 = 0000000F ( 00000000 )
    -------------------------------------------------------------------------
NEAR_CODE
  Relative segment, address: CODE 00002A13 - 00002A27 (0x15 bytes), align: 0
  Segment part 25.            Intra module refs:   conPrintConfig
           ENTRY                   ADDRESS         REF BY
           =====                   =======         ======
           conPrintUINT8           00002A13        macRxFSM (mac)
                                                   phyFSM (phy)
                                                   usrGetPrefixCallback (test_pingpong)
                                                   usrRxPacketCallback (test_pingpong)
               calls direct
               stack 1 = 00000000 ( 00000001 )
               stack 2 = 00000013 ( 00000000 )
    -------------------------------------------------------------------------
CODE_C
  Relative segment, address: CODE 00007BD4 - 00007BD6 (0x3 bytes), align: 0
  Segment part 7.             Intra module refs:   conPrintUINT8
           LOCAL                   ADDRESS         
           =====                   =======         
           conPrintUINT8{1}::xxxxromstr
                                   00007BD4 
    -------------------------------------------------------------------------
NEAR_CODE
  Relative segment, address: CODE 00002A28 - 00002A48 (0x21 bytes), align: 0
  Segment part 26.
           ENTRY                   ADDRESS         REF BY
           =====                   =======         ======
           conPrintUINT16          00002A28        main (test_pingpong)
                                                   usrRxPacketCallback (test_pingpong)
               calls direct
               stack 1 = 00000000 ( 00000000 )
               stack 2 = 00000000 ( 00000008 )
    -------------------------------------------------------------------------
CODE_C
  Relative segment, address: CODE 00007BD7 - 00007BD9 (0x3 bytes), align: 0
  Segment part 8.             Intra module refs:   conPrintUINT16
           LOCAL                   ADDRESS         
           =====                   =======         
           conPrintUINT16{1}::xxxxromstr
                                   00007BD7 
    -------------------------------------------------------------------------
NEAR_CODE
  Relative segment, address: CODE 00002A49 - 00002AA2 (0x5a bytes), align: 0
  Segment part 27.            Intra module refs:   conPrintConfig
           ENTRY                   ADDRESS         REF BY
           =====                   =======         ======
           conPrintUINT32          00002A49        PingPong (test_pingpong)
               calls direct
               stack 1 = 00000000 ( 00000000 )
               stack 2 = 00000013 ( 0000000F )
    -------------------------------------------------------------------------
CODE_C
  Relative segment, address: CODE 00007BDA - 00007BDC (0x3 bytes), align: 0
  Segment part 9.             Intra module refs:   conPrintUINT32
           LOCAL                   ADDRESS         
           =====                   =======         
           conPrintUINT32{1}::xxxxromstr
                                   00007BDA 
    -------------------------------------------------------------------------
NEAR_CODE
  Relative segment, address: CODE 00002AA3 - 00002ADA (0x38 bytes), align: 0
  Segment part 28.            Intra module refs:   conPrintConfig
                                                   conPrintLADDR
           ENTRY                   ADDRESS         REF BY
           =====                   =======         ======
           conPrintLADDR_bytes     00002AA3 
               calls direct
               stack 1 = 00000000 ( 00000000 )
               stack 2 = 00000013 ( 0000000B )
    -------------------------------------------------------------------------
CODE_C
  Relative segment, address: CODE 00007BDD - 00007BE0 (0x4 bytes), align: 0
  Segment part 10.            Intra module refs:   conPrintLADDR_bytes
           LOCAL                   ADDRESS         
           =====                   =======         
           conPrintLADDR_bytes{1}{2}::xxxxromstr
                                   00007BDD 
    -------------------------------------------------------------------------
NEAR_CODE
  Relative segment, address: CODE 00002ADB - 00002ADE (0x4 bytes), align: 0
  Segment part 29.
           ENTRY                   ADDRESS         REF BY
           =====                   =======         ======
           conPrintLADDR           00002ADB        main (test_pingpong)
               calls direct
    -------------------------------------------------------------------------
NEAR_CODE
  Relative segment, address: CODE 00002ADF - 00002B16 (0x38 bytes), align: 0
  Segment part 30.            Intra module refs:   conPrintIP6ADDR
           ENTRY                   ADDRESS         REF BY
           =====                   =======         ======
           conPrintIP6ADDR_bytes   00002ADF 
               calls direct
               stack 1 = 00000000 ( 00000000 )
               stack 2 = 00000000 ( 0000000B )
    -------------------------------------------------------------------------
CODE_C
  Relative segment, address: CODE 00007BE1 - 00007BE4 (0x4 bytes), align: 0
  Segment part 11.            Intra module refs:   conPrintIP6ADDR_bytes
           LOCAL                   ADDRESS         
           =====                   =======         
           conPrintIP6ADDR_bytes{1}{2}::xxxxromstr
                                   00007BE1 
    -------------------------------------------------------------------------
NEAR_CODE
  Relative segment, address: CODE 00002B17 - 00002B66 (0x50 bytes), align: 0
  Segment part 31.            Intra module refs:   conPrintIP6ADDR
           ENTRY                   ADDRESS         REF BY
           =====                   =======         ======
           conPrintIP6ADDR_dbytes
                                   00002B17 
               calls direct
               stack 1 = 00000000 ( 00000000 )
               stack 2 = 00000000 ( 0000000B )
    -------------------------------------------------------------------------
CODE_C
  Relative segment, address: CODE 00007BE5 - 00007BE8 (0x4 bytes), align: 0
  Segment part 12.            Intra module refs:   conPrintIP6ADDR_dbytes
           LOCAL                   ADDRESS         
           =====                   =======         
           conPrintIP6ADDR_dbytes{1}{2}::xxxxromstr
                                   00007BE5 
    -------------------------------------------------------------------------
NEAR_CODE
  Relative segment, address: CODE 00002B67 - 00002B71 (0xb bytes), align: 0
  Segment part 32.
           ENTRY                   ADDRESS         REF BY
           =====                   =======         ======
           conPrintIP6ADDR         00002B67        PingPong (test_pingpong)
                                                   usrGetPrefixCallback (test_pingpong)
                                                   usrRxPacketCallback (test_pingpong)
               calls direct
    -------------------------------------------------------------------------
NEAR_CODE
  Relative segment, address: CODE 00002B72 - 00002BED (0x7c bytes), align: 0
  Segment part 33.
           ENTRY                   ADDRESS         REF BY
           =====                   =======         ======
           conPrintConfig          00002B72        main (test_pingpong)
               calls direct
               stack 1 = 00000000 ( 00000000 )
               stack 2 = 00000000 ( 00000013 )
    -------------------------------------------------------------------------
CODE_C
  Relative segment, address: CODE 00007BE9 - 00007C00 (0x18 bytes), align: 0
  Segment part 13.            Intra module refs:   conPrintConfig
           LOCAL                   ADDRESS         
           =====                   =======         
           conPrintConfig{1}::xxxxromstr
                                   00007BE9 
    -------------------------------------------------------------------------
CODE_C
  Relative segment, address: CODE 00007C01 - 00007C06 (0x6 bytes), align: 0
  Segment part 14.            Intra module refs:   conPrintConfig
           LOCAL                   ADDRESS         
           =====                   =======         
           conPrintConfig{2}::xxxxromstr
                                   00007C01 
    -------------------------------------------------------------------------
CODE_C
  Relative segment, address: CODE 00007C07 - 00007C0C (0x6 bytes), align: 0
  Segment part 15.            Intra module refs:   conPrintConfig
           LOCAL                   ADDRESS         
           =====                   =======         
           conPrintConfig{3}::xxxxromstr
                                   00007C07 
    -------------------------------------------------------------------------
CODE_C
  Relative segment, address: CODE 00007C0D - 00007C16 (0xa bytes), align: 0
  Segment part 16.            Intra module refs:   conPrintConfig
           LOCAL                   ADDRESS         
           =====                   =======         
           conPrintConfig{4}::xxxxromstr
                                   00007C0D 
    -------------------------------------------------------------------------
CODE_C
  Relative segment, address: CODE 00007C17 - 00007C24 (0xe bytes), align: 0
  Segment part 17.            Intra module refs:   conPrintConfig
           LOCAL                   ADDRESS         
           =====                   =======         
           conPrintConfig{5}::xxxxromstr
                                   00007C17 
    -------------------------------------------------------------------------
CODE_C
  Relative segment, address: CODE 00007C25 - 00007C37 (0x13 bytes), align: 0
  Segment part 18.            Intra module refs:   conPrintConfig
           LOCAL                   ADDRESS         
           =====                   =======         
           conPrintConfig{6}::xxxxromstr
                                   00007C25 
    -------------------------------------------------------------------------
XDATA_I
  Relative segment, address: XDATA 0000EE64 - 0000EE67 (0x4 bytes), align: 0
  Segment part 19.            Intra module refs:   conPrintConfig
           ENTRY                   ADDRESS         REF BY
           =====                   =======         ======
           __Constant_1347         0000EE64 
    -------------------------------------------------------------------------
XDATA_ID
  Relative segment, address: CODE 00007B8A - 00007B8D (0x4 bytes), align: 0
  Segment part 20.            Intra module refs:   __Constant_1347

    *************************************************************************

  FILE NAME : F:\6LoWSN\6lowsn_stack\obj\compiletest\iar51_cc2430\Debug\Obj\debug.r51
  PROGRAM MODULE, NAME : debug

  SEGMENTS IN THE MODULE
  ======================
XDATA_Z
  Relative segment, address: XDATA 0000E304 - 0000E304 (0x1 bytes), align: 0
  Segment part 6.
           ENTRY                   ADDRESS         REF BY
           =====                   =======         ======
           debug_level             0000E304        main (test_pingpong)

    *************************************************************************

  FILE NAME : F:\6LoWSN\6lowsn_stack\obj\compiletest\iar51_cc2430\Debug\Obj\ds.r51
  PROGRAM MODULE, NAME : ds

  SEGMENTS IN THE MODULE
  ======================
XDATA_Z
  Relative segment, address: XDATA 0000E305 - 0000E3E7 (0xe3 bytes), align: 0
  Segment part 6.             Intra module refs:   ds6FindLinkLocalIP
                                                   ds6FindSrcIP
                                                   ds6Init
                                                   lowsn_ds6_maddr_add
                                                   lowsn_ds6_uaddr_add
                                                   lowsn_ds6_uaddr_lookup
           ENTRY                   ADDRESS         REF BY
           =====                   =======         ======
           lowsn_ds6_if            0000E305        apsTxIPData (aps)
                                                   icmpCommonFmt (icmpv6)
                                                   ndParseRA (nd)
    -------------------------------------------------------------------------
XDATA_Z
  Relative segment, address: XDATA 0000E3E8 - 0000E42C (0x45 bytes), align: 0
  Segment part 7.             Intra module refs:   ds6Init
                                                   ds6TestOnLink
                                                   lowsn_ds6_prefix_add
                                                   lowsn_ds6_prefix_lookup
           ENTRY                   ADDRESS         REF BY
           =====                   =======         ======
           lowsn_ds6_prefix_list   0000E3E8 
    -------------------------------------------------------------------------
XDATA_Z
  Relative segment, address: XDATA 0000E42D - 0000E43C (0x10 bytes), align: 0
  Segment part 9.             Intra module refs:   ds6Init
                                                   ds6LocalIPFrom16
                                                   lowsn_ds6_uaddr_add
           LOCAL                   ADDRESS         
           =====                   =======         
           loc_fipaddr             0000E42D 
    -------------------------------------------------------------------------
XDATA_Z
  Relative segment, address: XDATA 0000E43D - 0000E43E (0x2 bytes), align: 0
  Segment part 10.            Intra module refs:   ds6FindLinkLocalIP
                                                   ds6FindSrcIP
                                                   lowsn_ds6_uaddr_add
                                                   lowsn_ds6_uaddr_lookup
           LOCAL                   ADDRESS         
           =====                   =======         
           locuaddr                0000E43D 
    -------------------------------------------------------------------------
XDATA_Z
  Relative segment, address: XDATA 0000E43F - 0000E440 (0x2 bytes), align: 0
  Segment part 11.            Intra module refs:   lowsn_ds6_maddr_add
           LOCAL                   ADDRESS         
           =====                   =======         
           locmaddr                0000E43F 
    -------------------------------------------------------------------------
XDATA_Z
  Relative segment, address: XDATA 0000E441 - 0000E442 (0x2 bytes), align: 0
  Segment part 13.            Intra module refs:   ds6TestOnLink
                                                   lowsn_ds6_prefix_add
                                                   lowsn_ds6_prefix_lookup
           LOCAL                   ADDRESS         
           =====                   =======         
           locprefix               0000E441 
    -------------------------------------------------------------------------
NEAR_CODE
  Relative segment, address: CODE 00002BEE - 00002D35 (0x148 bytes), align: 0
  Segment part 23.
           ENTRY                   ADDRESS         REF BY
           =====                   =======         ======
           ds6Init                 00002BEE        nwkInit (nwk)
               calls direct
               stack 1 = 00000000 ( 00000000 )
               stack 2 = 00000000 ( 0000000F )
    -------------------------------------------------------------------------
NEAR_CODE
  Relative segment, address: CODE 00002D36 - 00002D94 (0x5f bytes), align: 0
  Segment part 24.
           ENTRY                   ADDRESS         REF BY
           =====                   =======         ======
           ds6LocalIPFrom16        00002D36        adpFSM (adp)
               calls direct
               stack 1 = 00000000 ( 00000002 )
               stack 2 = 00000000 ( 00000004 )
    -------------------------------------------------------------------------
NEAR_CODE
  Relative segment, address: CODE 00002D95 - 00002E95 (0x101 bytes), align: 0
  Segment part 25.            Intra module refs:   lowsn_ds6_maddr_add
                                                   lowsn_ds6_prefix_add
                                                   lowsn_ds6_prefix_lookup
                                                   lowsn_ds6_uaddr_add
                                                   lowsn_ds6_uaddr_lookup
           ENTRY                   ADDRESS         REF BY
           =====                   =======         ======
           lowsn_ds6_list_loop     00002D95 
               calls direct
               stack 1 = 00000000 ( 00000000 )
               stack 2 = 00000014 ( 00000013 )
    -------------------------------------------------------------------------
NEAR_CODE
  Relative segment, address: CODE 00002E96 - 00002F7F (0xea bytes), align: 0
  Segment part 26.            Intra module refs:   ds6Init
           ENTRY                   ADDRESS         REF BY
           =====                   =======         ======
           lowsn_ds6_prefix_add    00002E96        ndParseRA (nd)
               calls direct
               stack 1 = 00000000 ( 00000002 )
               stack 2 = 0000000F ( 00000014 )
    -------------------------------------------------------------------------
NEAR_CODE
  Relative segment, address: CODE 00002F80 - 00002FC8 (0x49 bytes), align: 0
  Segment part 28.
           ENTRY                   ADDRESS         REF BY
           =====                   =======         ======
           lowsn_ds6_prefix_lookup
                                   00002F80        ndParseRA (nd)
               calls direct
               stack 1 = 00000000 ( 00000000 )
               stack 2 = 00000000 ( 0000000E )
    -------------------------------------------------------------------------
NEAR_CODE
  Relative segment, address: CODE 00002FC9 - 00003131 (0x169 bytes), align: 0
  Segment part 29.            Intra module refs:   ds6Init
                                                   ds6LocalIPFrom16
           ENTRY                   ADDRESS         REF BY
           =====                   =======         ======
           lowsn_ds6_uaddr_add     00002FC9        ndParseRA (nd)
               calls direct
               stack 1 = 00000002 ( 00000002 )
               stack 2 = 0000000F ( 00000014 )
    -------------------------------------------------------------------------
NEAR_CODE
  Relative segment, address: CODE 00003132 - 0000317A (0x49 bytes), align: 0
  Segment part 31.
           ENTRY                   ADDRESS         REF BY
           =====                   =======         ======
           lowsn_ds6_uaddr_lookup
                                   00003132        ndParseRA (nd)
               calls direct
               stack 1 = 00000000 ( 00000000 )
               stack 2 = 00000000 ( 0000000E )
    -------------------------------------------------------------------------
NEAR_CODE
  Relative segment, address: CODE 0000317B - 0000322D (0xb3 bytes), align: 0
  Segment part 32.            Intra module refs:   ds6Init
                                                   lowsn_ds6_uaddr_add
           ENTRY                   ADDRESS         REF BY
           =====                   =======         ======
           lowsn_ds6_maddr_add     0000317B 
               calls direct
               stack 1 = 00000000 ( 00000002 )
               stack 2 = 0000000F ( 00000010 )
    -------------------------------------------------------------------------
NEAR_CODE
  Relative segment, address: CODE 0000322E - 000032C4 (0x97 bytes), align: 0
  Segment part 38.
           ENTRY                   ADDRESS         REF BY
           =====                   =======         ======
           ds6TestOnLink           0000322E        adpFmtCompHeader (adp)
                                                   nwkFindDstDLLAddr (nwk)
               calls direct
               stack 1 = 00000000 ( 00000000 )
               stack 2 = 00000000 ( 0000000B )
    -------------------------------------------------------------------------
NEAR_CODE
  Relative segment, address: CODE 000032C5 - 00003472 (0x1ae bytes), align: 0
  Segment part 39.
           ENTRY                   ADDRESS         REF BY
           =====                   =======         ======
           ds6FindSrcIP            000032C5        apsTxIPData (aps)
                                                   icmpCommonFmt (icmpv6)
                                                   ndFmtRS (nd)
               calls direct
               stack 1 = 00000000 ( 00000000 )
               stack 2 = 00000000 ( 0000000D )
    -------------------------------------------------------------------------
NEAR_CODE
  Relative segment, address: CODE 00003473 - 0000350F (0x9d bytes), align: 0
  Segment part 40.            Intra module refs:   ds6FindSrcIP
           ENTRY                   ADDRESS         REF BY
           =====                   =======         ======
           ds6FindLinkLocalIP      00003473 
               stack 1 = 00000000 ( 00000002 )
               stack 2 = 0000000D ( 00000000 )
    -------------------------------------------------------------------------
NEAR_CODE
  Relative segment, address: CODE 00003510 - 00003535 (0x26 bytes), align: 0
  Segment part 43.            Intra module refs:   ds6Init
           ENTRY                   ADDRESS         REF BY
           =====                   =======         ======
           ds6GenInterfaceID64     00003510        ndParseRA (nd)
               calls direct
               stack 1 = 00000000 ( 00000002 )
               stack 2 = 0000000B ( 00000000 )
    -------------------------------------------------------------------------
NEAR_CODE
  Relative segment, address: CODE 00003536 - 000035DE (0xa9 bytes), align: 0
  Segment part 44.            Intra module refs:   ds6LocalIPFrom16
           ENTRY                   ADDRESS         REF BY
           =====                   =======         ======
           ds6GenInterfaceID16     00003536        adpParseCompHdr (adp)
                                                   main (test_pingpong)
                                                   ndParseRA (nd)
               stack 1 = 00000002 ( 00000001 )
               stack 2 = 00000002 ( 00000008 )
    -------------------------------------------------------------------------
NEAR_CODE
  Relative segment, address: CODE 000035DF - 0000365D (0x7f bytes), align: 0
  Segment part 45.            Intra module refs:   ds6FindSrcIP
           ENTRY                   ADDRESS         REF BY
           =====                   =======         ======
           ds6MatchNum             000035DF 
               stack 1 = 00000000 ( 00000001 )
               stack 2 = 0000000D ( 0000000B )
    -------------------------------------------------------------------------
XDATA_I
  Relative segment, address: XDATA 0000EE68 - 0000EE6B (0x4 bytes), align: 0
  Segment part 15.            Intra module refs:   ds6Init
           ENTRY                   ADDRESS         REF BY
           =====                   =======         ======
           __Constant_7f           0000EE68 
    -------------------------------------------------------------------------
XDATA_ID
  Relative segment, address: CODE 00007B8E - 00007B91 (0x4 bytes), align: 0
  Segment part 16.            Intra module refs:   __Constant_7f
    -------------------------------------------------------------------------
XDATA_I
  Relative segment, address: XDATA 0000EE6C - 0000EE6F (0x4 bytes), align: 0
  Segment part 17.            Intra module refs:   ds6Init
           ENTRY                   ADDRESS         REF BY
           =====                   =======         ======
           __Constant_7530         0000EE6C 
    -------------------------------------------------------------------------
XDATA_ID
  Relative segment, address: CODE 00007B92 - 00007B95 (0x4 bytes), align: 0
  Segment part 18.            Intra module refs:   __Constant_7530
    -------------------------------------------------------------------------
XDATA_I
  Relative segment, address: XDATA 0000EE70 - 0000EE73 (0x4 bytes), align: 0
  Segment part 19.            Intra module refs:   ds6Init
           ENTRY                   ADDRESS         REF BY
           =====                   =======         ======
           __Constant_3e8          0000EE70 
    -------------------------------------------------------------------------
XDATA_ID
  Relative segment, address: CODE 00007B96 - 00007B99 (0x4 bytes), align: 0
  Segment part 20.            Intra module refs:   __Constant_3e8

    *************************************************************************

  FILE NAME : F:\6LoWSN\6lowsn_stack\obj\compiletest\iar51_cc2430\Debug\Obj\evboard.r51
  PROGRAM MODULE, NAME : evboard

  SEGMENTS IN THE MODULE
  ======================
SFR_AN
  Relative segment, address: DATA 000000F4 - 000000F4 (0x1 bytes), align: 0
  Segment part 2. ROOT.
           ENTRY                   ADDRESS         REF BY
           =====                   =======         ======
           P1SEL                   000000F4 
    -------------------------------------------------------------------------
SFR_AN
  Relative segment, address: DATA 000000F5 - 000000F5 (0x1 bytes), align: 0
  Segment part 3. ROOT.
           ENTRY                   ADDRESS         REF BY
           =====                   =======         ======
           P2SEL                   000000F5 
    -------------------------------------------------------------------------
SFR_AN
  Relative segment, address: DATA 000000FD - 000000FD (0x1 bytes), align: 0
  Segment part 4. ROOT.
           ENTRY                   ADDRESS         REF BY
           =====                   =======         ======
           P0DIR                   000000FD 
    -------------------------------------------------------------------------
SFR_AN
  Relative segment, address: DATA 000000FE - 000000FE (0x1 bytes), align: 0
  Segment part 5. ROOT.
           ENTRY                   ADDRESS         REF BY
           =====                   =======         ======
           P1DIR                   000000FE 
    -------------------------------------------------------------------------
XDATA_Z
  Relative segment, address: XDATA 0000E443 - 0000E444 (0x2 bytes), align: 0
  Segment part 11.            Intra module refs:   evbInit
                                                   evbIntCallback
           ENTRY                   ADDRESS         REF BY
           =====                   =======         ======
           sw_state                0000E443 
    -------------------------------------------------------------------------
NEAR_CODE
  Relative segment, address: CODE 0000365E - 000037A1 (0x144 bytes), align: 0
  Segment part 13.            Intra module refs:   evbIntCallback
           ENTRY                   ADDRESS         REF BY
           =====                   =======         ======
           getJoystickDirection    0000365E 
               calls direct
               stack 1 = 00000000 ( 00000001 )
               stack 2 = 00000009 ( 0000000A )
    -------------------------------------------------------------------------
NEAR_CODE
  Relative segment, address: CODE 000037A2 - 000037A2 (0x1 bytes), align: 0
  Segment part 14.
           ENTRY                   ADDRESS         REF BY
           =====                   =======         ======
           evbPoll                 000037A2        phyFSM (phy)
    -------------------------------------------------------------------------
NEAR_CODE
  Relative segment, address: CODE 000037A3 - 000037C7 (0x25 bytes), align: 0
  Segment part 15.
           ENTRY                   ADDRESS         REF BY
           =====                   =======         ======
           evbInit                 000037A3        main (test_pingpong)
               calls direct
               stack 1 = 00000000 ( 00000002 )
    -------------------------------------------------------------------------
NEAR_CODE
  Relative segment, address: CODE 000037C8 - 000037F0 (0x29 bytes), align: 0
  Segment part 16.
           ENTRY                   ADDRESS         REF BY
           =====                   =======         ======
           evbLedSet               000037C8        PingPong (test_pingpong)
                                                   main (test_pingpong)
                                                   zepFSM (zep)
                                                   zepHandleRxPacket (zep)
               stack 1 = 00000000 ( 00000002 )
    -------------------------------------------------------------------------
NEAR_CODE
  Relative segment, address: CODE 000037F1 - 00003822 (0x32 bytes), align: 0
  Segment part 17.
           ENTRY                   ADDRESS         REF BY
           =====                   =======         ======
           evbLedGet               000037F1        PingPong (test_pingpong)
                                                   zepFSM (zep)
                                                   zepHandleRxPacket (zep)
               stack 1 = 00000000 ( 00000002 )
    -------------------------------------------------------------------------
NEAR_CODE
  Relative segment, address: CODE 00003823 - 0000392C (0x10a bytes), align: 0
  Segment part 18.
           ENTRY                   ADDRESS         REF BY
           =====                   =======         ======
           evbIntCallback          00003823        t2_service_IRQ (halStack)
               calls direct
               stack 1 = 00000000 ( 00000000 )
               stack 2 = 00000000 ( 00000009 )
    -------------------------------------------------------------------------
SFR_AN
  Relative segment, address: DATA 00000090 - 00000090 (0x1 bytes), align: 0
  Segment part 1. ROOT.
           ENTRY                   ADDRESS         REF BY
           =====                   =======         ======
           _A_P1                   00000090 

    *************************************************************************

  FILE NAME : F:\6LoWSN\6lowsn_stack\obj\compiletest\iar51_cc2430\Debug\Obj\halNeighbor.r51
  PROGRAM MODULE, NAME : halNeighbor

  SEGMENTS IN THE MODULE
  ======================
XDATA_Z
  Relative segment, address: XDATA 0000E445 - 0000E44E (0xa bytes), align: 0
  Segment part 6.
           ENTRY                   ADDRESS         REF BY
           =====                   =======         ======
           mac_addr_tbl            0000E445        adpGetHopsToDest (adp)
                                                   adpRxFSM (adp)
                                                   adpTxCompData (adp)
                                                   apsFormatAck (aps)
                                                   ds6LocalIPFrom16 (ds)
                                                   main (test_pingpong)
                                                   ndParseRA (nd)
                                                   ntCheckAddressMapEntry (neighbor)
                                                   ntInitAddressMap (neighbor)
                                                   ntNewAddressMapEntry (neighbor)
                                                   zepCommonFmt (zep)
                                                   zepFmtEndDeviceAnnounce (zep)
                                                   zepFmtNodeInfoRsp (zep)
                                                   zepFmtPing (zep)

    *************************************************************************

  FILE NAME : F:\6LoWSN\6lowsn_stack\obj\compiletest\iar51_cc2430\Debug\Obj\halStack.r51
  PROGRAM MODULE, NAME : halStack

  SEGMENTS IN THE MODULE
  ======================
SFR_AN
  Relative segment, address: DATA 00000086 - 00000086 (0x1 bytes), align: 0
  Segment part 6. ROOT.
           ENTRY                   ADDRESS         REF BY
           =====                   =======         ======
           U0CSR                   00000086 
    -------------------------------------------------------------------------
SFR_AN
  Relative segment, address: DATA 00000087 - 00000087 (0x1 bytes), align: 0
  Segment part 7. ROOT.
           ENTRY                   ADDRESS         REF BY
           =====                   =======         ======
           PCON                    00000087 
    -------------------------------------------------------------------------
SFR_AN
  Relative segment, address: DATA 00000091 - 00000091 (0x1 bytes), align: 0
  Segment part 8. ROOT.
           ENTRY                   ADDRESS         REF BY
           =====                   =======         ======
           RFIM                    00000091 
    -------------------------------------------------------------------------
SFR_AN
  Relative segment, address: DATA 00000095 - 00000095 (0x1 bytes), align: 0
  Segment part 9. ROOT.
           ENTRY                   ADDRESS         REF BY
           =====                   =======         ======
           ST0                     00000095 
    -------------------------------------------------------------------------
SFR_AN
  Relative segment, address: DATA 00000096 - 00000096 (0x1 bytes), align: 0
  Segment part 10. ROOT.
           ENTRY                   ADDRESS         REF BY
           =====                   =======         ======
           ST1                     00000096 
    -------------------------------------------------------------------------
SFR_AN
  Relative segment, address: DATA 00000097 - 00000097 (0x1 bytes), align: 0
  Segment part 11. ROOT.
           ENTRY                   ADDRESS         REF BY
           =====                   =======         ======
           ST2                     00000097 
    -------------------------------------------------------------------------
SFR_AN
  Relative segment, address: DATA 0000009A - 0000009A (0x1 bytes), align: 0
  Segment part 12. ROOT.
           ENTRY                   ADDRESS         REF BY
           =====                   =======         ======
           IEN2                    0000009A 
    -------------------------------------------------------------------------
SFR_AN
  Relative segment, address: DATA 0000009B - 0000009B (0x1 bytes), align: 0
  Segment part 13. ROOT.
           ENTRY                   ADDRESS         REF BY
           =====                   =======         ======
           S1CON                   0000009B 
    -------------------------------------------------------------------------
SFR_AN
  Relative segment, address: DATA 0000009C - 0000009C (0x1 bytes), align: 0
  Segment part 14. ROOT.
           ENTRY                   ADDRESS         REF BY
           =====                   =======         ======
           T2PEROF0                0000009C 
    -------------------------------------------------------------------------
SFR_AN
  Relative segment, address: DATA 0000009D - 0000009D (0x1 bytes), align: 0
  Segment part 15. ROOT.
           ENTRY                   ADDRESS         REF BY
           =====                   =======         ======
           T2PEROF1                0000009D 
    -------------------------------------------------------------------------
SFR_AN
  Relative segment, address: DATA 0000009E - 0000009E (0x1 bytes), align: 0
  Segment part 16. ROOT.
           ENTRY                   ADDRESS         REF BY
           =====                   =======         ======
           T2PEROF2                0000009E 
    -------------------------------------------------------------------------
SFR_AN
  Relative segment, address: DATA 000000A1 - 000000A1 (0x1 bytes), align: 0
  Segment part 17. ROOT.
           ENTRY                   ADDRESS         REF BY
           =====                   =======         ======
           T2OF0                   000000A1 
    -------------------------------------------------------------------------
SFR_AN
  Relative segment, address: DATA 000000A2 - 000000A2 (0x1 bytes), align: 0
  Segment part 18. ROOT.
           ENTRY                   ADDRESS         REF BY
           =====                   =======         ======
           T2OF1                   000000A2 
    -------------------------------------------------------------------------
SFR_AN
  Relative segment, address: DATA 000000A3 - 000000A3 (0x1 bytes), align: 0
  Segment part 19. ROOT.
           ENTRY                   ADDRESS         REF BY
           =====                   =======         ======
           T2OF2                   000000A3 
    -------------------------------------------------------------------------
SFR_AN
  Relative segment, address: DATA 000000A4 - 000000A4 (0x1 bytes), align: 0
  Segment part 20. ROOT.
           ENTRY                   ADDRESS         REF BY
           =====                   =======         ======
           T2CAPLPL                000000A4 
    -------------------------------------------------------------------------
SFR_AN
  Relative segment, address: DATA 000000A5 - 000000A5 (0x1 bytes), align: 0
  Segment part 21. ROOT.
           ENTRY                   ADDRESS         REF BY
           =====                   =======         ======
           T2CAPHPH                000000A5 
    -------------------------------------------------------------------------
SFR_AN
  Relative segment, address: DATA 000000B4 - 000000B4 (0x1 bytes), align: 0
  Segment part 22. ROOT.
           ENTRY                   ADDRESS         REF BY
           =====                   =======         ======
           ADCCON1                 000000B4 
    -------------------------------------------------------------------------
SFR_AN
  Relative segment, address: DATA 000000B6 - 000000B6 (0x1 bytes), align: 0
  Segment part 23. ROOT.
           ENTRY                   ADDRESS         REF BY
           =====                   =======         ======
           ADCCON3                 000000B6 
    -------------------------------------------------------------------------
SFR_AN
  Relative segment, address: DATA 000000BA - 000000BA (0x1 bytes), align: 0
  Segment part 24. ROOT.
           ENTRY                   ADDRESS         REF BY
           =====                   =======         ======
           ADCL                    000000BA 
    -------------------------------------------------------------------------
SFR_AN
  Relative segment, address: DATA 000000BB - 000000BB (0x1 bytes), align: 0
  Segment part 25. ROOT.
           ENTRY                   ADDRESS         REF BY
           =====                   =======         ======
           ADCH                    000000BB 
    -------------------------------------------------------------------------
SFR_AN
  Relative segment, address: DATA 000000BE - 000000BE (0x1 bytes), align: 0
  Segment part 26. ROOT.
           ENTRY                   ADDRESS         REF BY
           =====                   =======         ======
           SLEEP                   000000BE 
    -------------------------------------------------------------------------
SFR_AN
  Relative segment, address: DATA 000000C1 - 000000C1 (0x1 bytes), align: 0
  Segment part 27. ROOT.
           ENTRY                   ADDRESS         REF BY
           =====                   =======         ======
           U0DBUF                  000000C1 
    -------------------------------------------------------------------------
SFR_AN
  Relative segment, address: DATA 000000C2 - 000000C2 (0x1 bytes), align: 0
  Segment part 28. ROOT.
           ENTRY                   ADDRESS         REF BY
           =====                   =======         ======
           U0BAUD                  000000C2 
    -------------------------------------------------------------------------
SFR_AN
  Relative segment, address: DATA 000000C3 - 000000C3 (0x1 bytes), align: 0
  Segment part 29. ROOT.
           ENTRY                   ADDRESS         REF BY
           =====                   =======         ======
           T2CNF                   000000C3 
    -------------------------------------------------------------------------
SFR_AN
  Relative segment, address: DATA 000000C4 - 000000C4 (0x1 bytes), align: 0
  Segment part 30. ROOT.
           ENTRY                   ADDRESS         REF BY
           =====                   =======         ======
           U0UCR                   000000C4 
    -------------------------------------------------------------------------
SFR_AN
  Relative segment, address: DATA 000000C5 - 000000C5 (0x1 bytes), align: 0
  Segment part 31. ROOT.
           ENTRY                   ADDRESS         REF BY
           =====                   =======         ======
           U0GCR                   000000C5 
    -------------------------------------------------------------------------
SFR_AN
  Relative segment, address: DATA 000000C6 - 000000C6 (0x1 bytes), align: 0
  Segment part 32. ROOT.
           ENTRY                   ADDRESS         REF BY
           =====                   =======         ======
           CLKCON                  000000C6 
    -------------------------------------------------------------------------
SFR_AN
  Relative segment, address: DATA 000000D9 - 000000D9 (0x1 bytes), align: 0
  Segment part 33. ROOT.
           ENTRY                   ADDRESS         REF BY
           =====                   =======         ======
           RFD                     000000D9 
    -------------------------------------------------------------------------
SFR_AN
  Relative segment, address: DATA 000000E1 - 000000E1 (0x1 bytes), align: 0
  Segment part 34. ROOT.
           ENTRY                   ADDRESS         REF BY
           =====                   =======         ======
           RFST                    000000E1 
    -------------------------------------------------------------------------
SFR_AN
  Relative segment, address: DATA 000000E9 - 000000E9 (0x1 bytes), align: 0
  Segment part 35. ROOT.
           ENTRY                   ADDRESS         REF BY
           =====                   =======         ======
           RFIF                    000000E9 
    -------------------------------------------------------------------------
SFR_AN
  Relative segment, address: DATA 000000F1 - 000000F1 (0x1 bytes), align: 0
  Segment part 36. ROOT.
           ENTRY                   ADDRESS         REF BY
           =====                   =======         ======
           PERCFG                  000000F1 
    -------------------------------------------------------------------------
SFR_AN
  Relative segment, address: DATA 000000F2 - 000000F2 (0x1 bytes), align: 0
  Segment part 37. ROOT.
           ENTRY                   ADDRESS         REF BY
           =====                   =======         ======
           ADCCFG                  000000F2 
    -------------------------------------------------------------------------
SFR_AN
  Relative segment, address: DATA 000000F3 - 000000F3 (0x1 bytes), align: 0
  Segment part 38. ROOT.
           ENTRY                   ADDRESS         REF BY
           =====                   =======         ======
           P0SEL                   000000F3 
    -------------------------------------------------------------------------
XDATA_Z
  Relative segment, address: XDATA 0000E44F - 0000E450 (0x2 bytes), align: 0
  Segment part 49.            Intra module refs:   halInit
                                                   halInitRadio
                                                   spp_rf_IRQ
           ENTRY                   ADDRESS         REF BY
           =====                   =======         ======
           local_radio_flags       0000E44F 
    -------------------------------------------------------------------------
XDATA_Z
  Relative segment, address: XDATA 0000E451 - 0000E470 (0x20 bytes), align: 0
  Segment part 50.            Intra module refs:   urx0_service_IRQ
           LOCAL                   ADDRESS         
           =====                   =======         
           serio_rxBuff            0000E451 
    -------------------------------------------------------------------------
XDATA_Z
  Relative segment, address: XDATA 0000E471 - 0000E471 (0x1 bytes), align: 0
  Segment part 51.            Intra module refs:   halInitUart
                                                   urx0_service_IRQ
           LOCAL                   ADDRESS         
           =====                   =======         
           serio_rxHead            0000E471 
    -------------------------------------------------------------------------
XDATA_Z
  Relative segment, address: XDATA 0000E472 - 0000E472 (0x1 bytes), align: 0
  Segment part 52.            Intra module refs:   halInitUart
           LOCAL                   ADDRESS         
           =====                   =======         
           serio_rxTail            0000E472 
    -------------------------------------------------------------------------
NEAR_CODE
  Relative segment, address: CODE 0000392D - 0000397B (0x4f bytes), align: 0
  Segment part 83.
           ENTRY                   ADDRESS         REF BY
           =====                   =======         ======
           halInit                 0000392D        evbInit (evboard)
                                                   main (test_pingpong)
               calls direct
               stack 1 = 00000000 ( 00000002 )
    -------------------------------------------------------------------------
NEAR_CODE
  Relative segment, address: CODE 0000397C - 00003997 (0x1c bytes), align: 0
  Segment part 84.            Intra module refs:   halInit
           ENTRY                   ADDRESS         REF BY
           =====                   =======         ======
           halInitUart             0000397C 
               stack 1 = 00000002 ( 00000002 )
    -------------------------------------------------------------------------
NEAR_CODE
  Relative segment, address: CODE 00003998 - 000039C3 (0x2c bytes), align: 0
  Segment part 87.
           ENTRY                   ADDRESS         REF BY
           =====                   =======         ======
           halUtilMemCopy          00003998        adpTxData (adp)
                                                   apsInjectTxPacket (aps)
                                                   ntNewAddressMapEntry (neighbor)
               stack 1 = 00000000 ( 00000001 )
               stack 2 = 00000000 ( 00000008 )
    -------------------------------------------------------------------------
NEAR_CODE
  Relative segment, address: CODE 000039C4 - 000039DD (0x1a bytes), align: 0
  Segment part 88.            Intra module refs:   halInit
           ENTRY                   ADDRESS         REF BY
           =====                   =======         ======
           halInitMACTimer         000039C4 
               stack 1 = 00000002 ( 00000000 )
    -------------------------------------------------------------------------
NEAR_CODE
  Relative segment, address: CODE 000039DE - 00003A3C (0x5f bytes), align: 0
  Segment part 89.            Intra module refs:   doIEEE_backoff
           ENTRY                   ADDRESS         REF BY
           =====                   =======         ======
           halGetMACTimer          000039DE        PingPong (test_pingpong)
                                                   adpFSM (adp)
                                                   apsTxData (aps)
                                                   apsTxFSM (aps)
                                                   apsTxIPData (aps)
                                                   macFSM (mac)
                                                   macRxFSM (mac)
                                                   macTxCallback (mac)
                                                   macTxFSM (mac)
                                                   main (test_pingpong)
                                                   nwkFSM (nwk)
                                                   phyFSM (phy)
                                                   phyTxStartCallBack (phy)
                                                   zepFSM (zep)
                                                   zepHandleRxPacket (zep)
               stack 1 = 00000000 ( 00000000 )
               stack 2 = 00000013 ( 0000000F )
    -------------------------------------------------------------------------
NEAR_CODE
  Relative segment, address: CODE 00003A3D - 00003A74 (0x38 bytes), align: 0
  Segment part 90.
           ENTRY                   ADDRESS         REF BY
           =====                   =======         ======
           halMacTicksToUs         00003A3D        aplMacTicksToUs (aps)
               stack 1 = 00000000 ( 00000000 )
               stack 2 = 00000000 ( 0000000F )
    -------------------------------------------------------------------------
NEAR_CODE
  Relative segment, address: CODE 00003A75 - 00003A77 (0x3 bytes), align: 0
  Segment part 91.            Intra module refs:   doIEEE_backoff
           ENTRY                   ADDRESS         REF BY
           =====                   =======         ======
           halGetRandomByte        00003A75        icmpFmtEchoRequest (icmpv6)
                                                   macTxData (mac)
               stack 1 = 00000001 ( 00000000 )
               stack 2 = 00000013 ( 00000000 )
    -------------------------------------------------------------------------
NEAR_CODE
  Relative segment, address: CODE 00003A78 - 00003A80 (0x9 bytes), align: 0
  Segment part 92.
           ENTRY                   ADDRESS         REF BY
           =====                   =======         ======
           halPutch                00003A78        conPrintROMString_func (console)
                                                   conPrintUINT8_noleader (console)
    -------------------------------------------------------------------------
NEAR_CODE
  Relative segment, address: CODE 00003A81 - 00003ADE (0x5e bytes), align: 0
  Segment part 94.            Intra module refs:   halInitRadio
                                                   halSetChannel
           ENTRY                   ADDRESS         REF BY
           =====                   =======         ======
           halSetRadioIEEEFrequency
                                   00003A81 
               stack 1 = 00000002 ( 00000003 )
    -------------------------------------------------------------------------
NEAR_CODE
  Relative segment, address: CODE 00003ADF - 00003AE6 (0x8 bytes), align: 0
  Segment part 95.
           ENTRY                   ADDRESS         REF BY
           =====                   =======         ======
           halSetChannel           00003ADF        macFSM (mac)
                                                   macSetChannel (mac)
               calls direct
    -------------------------------------------------------------------------
NEAR_CODE
  Relative segment, address: CODE 00003AE7 - 00003B43 (0x5d bytes), align: 0
  Segment part 96.            Intra module refs:   halSetRadioIEEEAddress
           ENTRY                   ADDRESS         REF BY
           =====                   =======         ======
           halGetProcessorIEEEAddress
                                   00003AE7        conPrintConfig (console)
                                                   ds6GenInterfaceID64 (ds)
                                                   macTxData (mac)
                                                   ntAddOurselvesToAddressTable (neighbor)
                                                   zepFmtEndDeviceAnnounce (zep)
                                                   zepFmtNodeInfoRsp (zep)
               stack 1 = 00000002 ( 00000003 )
               stack 2 = 00000008 ( 00000000 )
    -------------------------------------------------------------------------
NEAR_CODE
  Relative segment, address: CODE 00003B44 - 00003BB4 (0x71 bytes), align: 0
  Segment part 97.            Intra module refs:   halInitRadio
           ENTRY                   ADDRESS         REF BY
           =====                   =======         ======
           halSetRadioIEEEAddress
                                   00003B44 
               calls direct
               stack 1 = 00000002 ( 00000002 )
               stack 2 = 00000000 ( 00000008 )
    -------------------------------------------------------------------------
NEAR_CODE
  Relative segment, address: CODE 00003BB5 - 00003BC7 (0x13 bytes), align: 0
  Segment part 98.
           ENTRY                   ADDRESS         REF BY
           =====                   =======         ======
           halSetRadioPANID        00003BB5        macInitRadio (mac)
                                                   macParseAssocResponse (mac)
                                                   macSetPANID (mac)
               stack 1 = 00000000 ( 00000002 )
    -------------------------------------------------------------------------
NEAR_CODE
  Relative segment, address: CODE 00003BC8 - 00003BDA (0x13 bytes), align: 0
  Segment part 99.
           ENTRY                   ADDRESS         REF BY
           =====                   =======         ======
           halSetRadioShortAddr    00003BC8        macInitRadio (mac)
                                                   macSetShortAddr (mac)
               stack 1 = 00000000 ( 00000002 )
    -------------------------------------------------------------------------
NEAR_CODE
  Relative segment, address: CODE 00003BDB - 00003CA6 (0xcc bytes), align: 0
  Segment part 100.
           ENTRY                   ADDRESS         REF BY
           =====                   =======         ======
           halInitRadio            00003BDB        phyFSM (phy)
               calls direct
               stack 1 = 00000000 ( 00000002 )
               stack 2 = 00000002 ( 00000000 )
    -------------------------------------------------------------------------
NEAR_CODE
  Relative segment, address: CODE 00003CA7 - 00003D55 (0xaf bytes), align: 0
  Segment part 101.           Intra module refs:   halSendPacket
           ENTRY                   ADDRESS         REF BY
           =====                   =======         ======
           doIEEE_backoff          00003CA7 
               calls direct
               stack 1 = 00000000 ( 00000001 )
               stack 2 = 00000008 ( 00000013 )
    -------------------------------------------------------------------------
NEAR_CODE
  Relative segment, address: CODE 00003D56 - 00003DD7 (0x82 bytes), align: 0
  Segment part 102.
           ENTRY                   ADDRESS         REF BY
           =====                   =======         ======
           halSendPacket           00003D56        phyFSM (phy)
               calls direct
               stack 1 = 00000000 ( 00000000 )
               stack 2 = 00000000 ( 00000008 )
    -------------------------------------------------------------------------
NEAR_CODE
  Relative segment, address: CODE 00003DD8 - 00003E27 (0x50 bytes), align: 0
  Segment part 103.           Intra module refs:   urx0_service_IRQ::??INTVEC 19
           LOCAL                   ADDRESS         
           =====                   =======         
           urx0_service_IRQ        00003DD8 
               interrupt function
               stack 1 = 00000000 ( 00000008 )
    -------------------------------------------------------------------------
NEAR_CODE
  Relative segment, address: CODE 00003E28 - 00003EA8 (0x81 bytes), align: 0
  Segment part 104.           Intra module refs:   t2_service_IRQ::??INTVEC 83
           LOCAL                   ADDRESS         
           =====                   =======         
           t2_service_IRQ          00003E28 
               interrupt function
               calls direct
               stack 1 = 00000000 ( 00000000 )
               stack 2 = 00000000 ( 00000016 )
    -------------------------------------------------------------------------
NEAR_CODE
  Relative segment, address: CODE 00003EA9 - 00003EE0 (0x38 bytes), align: 0
  Segment part 105.           Intra module refs:   rf_error_IRQ::??INTVEC 3
           LOCAL                   ADDRESS         
           =====                   =======         
           rf_error_IRQ            00003EA9 
               interrupt function
               stack 1 = 00000000 ( 00000004 )
    -------------------------------------------------------------------------
NEAR_CODE
  Relative segment, address: CODE 00003EE1 - 000040C7 (0x1e7 bytes), align: 0
  Segment part 106.           Intra module refs:   spp_rf_IRQ::??INTVEC 131
           LOCAL                   ADDRESS         
           =====                   =======         
           spp_rf_IRQ              00003EE1 
               interrupt function
               calls direct
               stack 1 = 00000000 ( 00000015 )
               stack 2 = 00000000 ( 00000005 )
    -------------------------------------------------------------------------
NEAR_CODE
  Relative segment, address: CODE 000040C8 - 00004147 (0x80 bytes), align: 0
  Segment part 107.           Intra module refs:   halSendPacket
           ENTRY                   ADDRESS         REF BY
           =====                   =======         ======
           halWait                 000040C8 
               stack 1 = 00000000 ( 00000000 )
               stack 2 = 0000000F ( 0000000F )
    -------------------------------------------------------------------------
NEAR_CODE
  Relative segment, address: CODE 00004148 - 000041CE (0x87 bytes), align: 0
  Segment part 113.
           ENTRY                   ADDRESS         REF BY
           =====                   =======         ======
           halAdcSampleSingle      00004148        getJoystickDirection (evboard)
               stack 1 = 00000000 ( 00000001 )
               stack 2 = 00000000 ( 0000000C )
    -------------------------------------------------------------------------
XDATA_Z
  Relative segment, address: XDATA 0000E473 - 0000E476 (0x4 bytes), align: 0
  Segment part 54.            Intra module refs:   sysclock_get
           ENTRY                   ADDRESS         REF BY
           =====                   =======         ======
           system_clock            0000E473 
    -------------------------------------------------------------------------
NEAR_CODE
  Relative segment, address: CODE 000041CF - 000041E8 (0x1a bytes), align: 0
  Segment part 115.           Intra module refs:   stimer_set
           ENTRY                   ADDRESS         REF BY
           =====                   =======         ======
           sysclock_get            000041CF 
               stack 1 = 00000000 ( 00000000 )
               stack 2 = 0000000F ( 0000000B )
    -------------------------------------------------------------------------
NEAR_CODE
  Relative segment, address: CODE 000041E9 - 00004238 (0x50 bytes), align: 0
  Segment part 117.
           ENTRY                   ADDRESS         REF BY
           =====                   =======         ======
           stimer_set              000041E9        lowsn_ds6_prefix_add (ds)
               calls direct
               stack 1 = 00000000 ( 00000000 )
               stack 2 = 00000004 ( 0000000F )
    -------------------------------------------------------------------------
INTVEC
  Common segment, address: CODE 00000000 - 00000005 (0x6 bytes), align: 0
  Segment part 40. ROOT.
           LOCAL                   ADDRESS         
           =====                   =======         
           rf_error_IRQ::??INTVEC 3
                                   00000003 
    -------------------------------------------------------------------------
INTVEC
  Common segment, address: CODE 00000000 - 00000015 (0x16 bytes), align: 0
  Segment part 41. ROOT.
           LOCAL                   ADDRESS         
           =====                   =======         
           urx0_service_IRQ::??INTVEC 19
                                   00000013 
    -------------------------------------------------------------------------
INTVEC
  Common segment, address: CODE 00000000 - 00000055 (0x56 bytes), align: 0
  Segment part 42. ROOT.
           LOCAL                   ADDRESS         
           =====                   =======         
           t2_service_IRQ::??INTVEC 83
                                   00000053 
    -------------------------------------------------------------------------
INTVEC
  Common segment, address: CODE 00000000 - 00000085 (0x86 bytes), align: 0
  Segment part 43. ROOT.
           LOCAL                   ADDRESS         
           =====                   =======         
           spp_rf_IRQ::??INTVEC 131
                                   00000083 
    -------------------------------------------------------------------------
XDATA_I
  Relative segment, address: XDATA 0000EE74 - 0000EE77 (0x4 bytes), align: 0
  Segment part 55.            Intra module refs:   halGetMACTimer
                                                   t2_service_IRQ
           ENTRY                   ADDRESS         REF BY
           =====                   =======         ======
           __Constant_f            0000EE74 
    -------------------------------------------------------------------------
XDATA_ID
  Relative segment, address: CODE 00007B9A - 00007B9D (0x4 bytes), align: 0
  Segment part 56.            Intra module refs:   __Constant_f
    -------------------------------------------------------------------------
XDATA_I
  Relative segment, address: XDATA 0000EE78 - 0000EE7B (0x4 bytes), align: 0
  Segment part 57.            Intra module refs:   doIEEE_backoff
                                                   halMacTicksToUs
           ENTRY                   ADDRESS         REF BY
           =====                   =======         ======
           __Constant_1            0000EE78 
    -------------------------------------------------------------------------
XDATA_ID
  Relative segment, address: CODE 00007B9E - 00007BA1 (0x4 bytes), align: 0
  Segment part 58.            Intra module refs:   __Constant_1
    -------------------------------------------------------------------------
XDATA_I
  Relative segment, address: XDATA 0000EE7C - 0000EE7F (0x4 bytes), align: 0
  Segment part 59.            Intra module refs:   halMacTicksToUs
           ENTRY                   ADDRESS         REF BY
           =====                   =======         ======
           __Constant_10           0000EE7C 
    -------------------------------------------------------------------------
XDATA_ID
  Relative segment, address: CODE 00007BA2 - 00007BA5 (0x4 bytes), align: 0
  Segment part 60.            Intra module refs:   __Constant_10
    -------------------------------------------------------------------------
XDATA_I
  Relative segment, address: XDATA 0000EE80 - 0000EE83 (0x4 bytes), align: 0
  Segment part 63.            Intra module refs:   doIEEE_backoff
           ENTRY                   ADDRESS         REF BY
           =====                   =======         ======
           __Constant_14           0000EE80 
    -------------------------------------------------------------------------
XDATA_ID
  Relative segment, address: CODE 00007BA6 - 00007BA9 (0x4 bytes), align: 0
  Segment part 64.            Intra module refs:   __Constant_14
    -------------------------------------------------------------------------
XDATA_I
  Relative segment, address: XDATA 0000EE84 - 0000EE87 (0x4 bytes), align: 0
  Segment part 67.            Intra module refs:   t2_service_IRQ
           ENTRY                   ADDRESS         REF BY
           =====                   =======         ======
           __Constant_186a         0000EE84 
    -------------------------------------------------------------------------
XDATA_ID
  Relative segment, address: CODE 00007BAA - 00007BAD (0x4 bytes), align: 0
  Segment part 68.            Intra module refs:   __Constant_186a
    -------------------------------------------------------------------------
XDATA_I
  Relative segment, address: XDATA 0000EE88 - 0000EE8B (0x4 bytes), align: 0
  Segment part 69.            Intra module refs:   halWait
                                                   main (test_pingpong)
           ENTRY                   ADDRESS         REF BY
           =====                   =======         ======
           __Constant_ffffffff     0000EE88 
    -------------------------------------------------------------------------
XDATA_ID
  Relative segment, address: CODE 00007BAE - 00007BB1 (0x4 bytes), align: 0
  Segment part 70.            Intra module refs:   __Constant_ffffffff
    -------------------------------------------------------------------------
SFR_AN
  Relative segment, address: DATA 00000088 - 00000088 (0x1 bytes), align: 0
  Segment part 1. ROOT.
           ENTRY                   ADDRESS         REF BY
           =====                   =======         ======
           _A_TCON                 00000088 
    -------------------------------------------------------------------------
SFR_AN
  Relative segment, address: DATA 000000B8 - 000000B8 (0x1 bytes), align: 0
  Segment part 3. ROOT.
           ENTRY                   ADDRESS         REF BY
           =====                   =======         ======
           _A_IEN1                 000000B8 
    -------------------------------------------------------------------------
SFR_AN
  Relative segment, address: DATA 000000C0 - 000000C0 (0x1 bytes), align: 0
  Segment part 4. ROOT.
           ENTRY                   ADDRESS         REF BY
           =====                   =======         ======
           _A_IRCON                000000C0 
    -------------------------------------------------------------------------
SFR_AN
  Relative segment, address: DATA 000000E8 - 000000E8 (0x1 bytes), align: 0
  Segment part 5. ROOT.
           ENTRY                   ADDRESS         REF BY
           =====                   =======         ======
           _A_IRCON2               000000E8 

    *************************************************************************

  FILE NAME : F:\6LoWSN\6lowsn_stack\obj\compiletest\iar51_cc2430\Debug\Obj\icmpv6.r51
  PROGRAM MODULE, NAME : icmpv6

  SEGMENTS IN THE MODULE
  ======================
NEAR_CODE
  Relative segment, address: CODE 00004239 - 0000429F (0x67 bytes), align: 0
  Segment part 8.
           ENTRY                   ADDRESS         REF BY
           =====                   =======         ======
           icmpCommonFmt           00004239        nwkFSM (nwk)
               calls direct
               stack 1 = 00000000 ( 00000000 )
               stack 2 = 00000000 ( 0000000D )
    -------------------------------------------------------------------------
NEAR_CODE
  Relative segment, address: CODE 000042A0 - 00004480 (0x1e1 bytes), align: 0
  Segment part 9.
           ENTRY                   ADDRESS         REF BY
           =====                   =======         ======
           icmpFmtEchoRequest      000042A0        nwkFSM (nwk)
               calls direct
               stack 1 = 00000000 ( 00000001 )
               stack 2 = 00000000 ( 00000008 )
    -------------------------------------------------------------------------
NEAR_CODE
  Relative segment, address: CODE 00004481 - 0000450F (0x8f bytes), align: 0
  Segment part 10.
           ENTRY                   ADDRESS         REF BY
           =====                   =======         ======
           icmpParseEchoReply      00004481        nwkRxFSM (nwk)
               stack 1 = 00000000 ( 00000002 )
    -------------------------------------------------------------------------
NEAR_CODE
  Relative segment, address: CODE 00004510 - 0000474E (0x23f bytes), align: 0
  Segment part 11.
           ENTRY                   ADDRESS         REF BY
           =====                   =======         ======
           icmpFmtEchoReply        00004510        nwkFSM (nwk)
               stack 1 = 00000000 ( 00000001 )
               stack 2 = 00000000 ( 0000000D )

    *************************************************************************

  FILE NAME : F:\6LoWSN\6lowsn_stack\obj\compiletest\iar51_cc2430\Debug\Obj\mac.r51
  PROGRAM MODULE, NAME : mac

  SEGMENTS IN THE MODULE
  ======================
XDATA_Z
  Relative segment, address: XDATA 0000E477 - 0000E477 (0x1 bytes), align: 0
  Segment part 6.             Intra module refs:   macInit
                                                   macRxFSM
           LOCAL                   ADDRESS         
           =====                   =======         
           macRxState              0000E477 
    -------------------------------------------------------------------------
XDATA_Z
  Relative segment, address: XDATA 0000E478 - 0000E4B1 (0x3a bytes), align: 0
  Segment part 7.             Intra module refs:   macCheckDataRejection
                                                   macFSM
                                                   macFormatAssocRequest
                                                   macFreeRxPacket
                                                   macGetRxPacket
                                                   macInit
                                                   macInitRadio
                                                   macParseAssocResponse
                                                   macParseBeacon
                                                   macParseOrphanResponse
                                                   macRxBuffEmpty
                                                   macRxBuffFull
                                                   macRxCallback
                                                   macRxFSM
                                                   macSetPANID
                                                   macTxCallback
                                                   macTxData
                                                   macTxFSM
           ENTRY                   ADDRESS         REF BY
           =====                   =======         ======
           mac_pib                 0000E478        adpFSM (adp)
                                                   adpGetHopsToDest (adp)
                                                   adpParseCompHdr (adp)
                                                   adpTxData (adp)
                                                   ds6LocalIPFrom16 (ds)
                                                   main (test_pingpong)
                                                   ndParseRA (nd)
                                                   zepFmtNodeInfoRsp (zep)
    -------------------------------------------------------------------------
XDATA_Z
  Relative segment, address: XDATA 0000E4B2 - 0000E4B5 (0x4 bytes), align: 0
  Segment part 8.             Intra module refs:   macFSM
           ENTRY                   ADDRESS         REF BY
           =====                   =======         ======
           a_mac_service           0000E4B2        adpFSM (adp)
                                                   adpTxData (adp)
    -------------------------------------------------------------------------
XDATA_Z
  Relative segment, address: XDATA 0000E4B6 - 0000E4B6 (0x1 bytes), align: 0
  Segment part 9.             Intra module refs:   macFSM
                                                   macInit
           ENTRY                   ADDRESS         REF BY
           =====                   =======         ======
           macState                0000E4B6        adpFSM (adp)
                                                   adpTxData (adp)
    -------------------------------------------------------------------------
XDATA_Z
  Relative segment, address: XDATA 0000E4B7 - 0000E4C8 (0x12 bytes), align: 0
  Segment part 10.            Intra module refs:   macFSM
                                                   macTxData
           ENTRY                   ADDRESS         REF BY
           =====                   =======         ======
           a_mac_tx_data           0000E4B7        adpTxData (adp)
    -------------------------------------------------------------------------
XDATA_Z
  Relative segment, address: XDATA 0000E4C9 - 0000E4E1 (0x19 bytes), align: 0
  Segment part 11.            Intra module refs:   macCheckDataRejection
                                                   macFSM
                                                   macParseAssocResponse
                                                   macParseBeacon
                                                   macParseHdr
                                                   macParseOrphanResponse
                                                   macRxFSM
           ENTRY                   ADDRESS         REF BY
           =====                   =======         ======
           a_mac_rx_data           0000E4C9        adpRxHandoff (adp)
    -------------------------------------------------------------------------
XDATA_Z
  Relative segment, address: XDATA 0000E4E2 - 0000E4E2 (0x1 bytes), align: 0
  Segment part 12.            Intra module refs:   macFSM
                                                   macTxData
                                                   macTxFSM
           ENTRY                   ADDRESS         REF BY
           =====                   =======         ======
           macTxFSM_status         0000E4E2 
    -------------------------------------------------------------------------
XDATA_Z
  Relative segment, address: XDATA 0000E4E3 - 0000E4E6 (0x4 bytes), align: 0
  Segment part 13.            Intra module refs:   macFSM
           LOCAL                   ADDRESS         
           =====                   =======         
           mac_utility_timer       0000E4E3 
    -------------------------------------------------------------------------
NEAR_CODE
  Relative segment, address: CODE 0000474F - 000047C4 (0x76 bytes), align: 0
  Segment part 27.
           ENTRY                   ADDRESS         REF BY
           =====                   =======         ======
           macInit                 0000474F        adpFSM (adp)
                                                   apsInit (aps)
               calls direct
               stack 1 = 00000000 ( 00000000 )
               stack 2 = 00000000 ( 0000000B )
    -------------------------------------------------------------------------
NEAR_CODE
  Relative segment, address: CODE 000047C5 - 00004845 (0x81 bytes), align: 0
  Segment part 29.
           ENTRY                   ADDRESS         REF BY
           =====                   =======         ======
           macInitRadio            000047C5        adpFSM (adp)
               calls direct
               stack 1 = 00000000 ( 00000000 )
               stack 2 = 00000000 ( 0000000B )
    -------------------------------------------------------------------------
NEAR_CODE
  Relative segment, address: CODE 00004846 - 00004861 (0x1c bytes), align: 0
  Segment part 30.            Intra module refs:   macParseOrphanResponse
           ENTRY                   ADDRESS         REF BY
           =====                   =======         ======
           macSetPANID             00004846 
               calls direct
               stack 1 = 00000000 ( 00000002 )
               stack 2 = 00000008 ( 00000000 )
    -------------------------------------------------------------------------
NEAR_CODE
  Relative segment, address: CODE 00004862 - 00004872 (0x11 bytes), align: 0
  Segment part 31.            Intra module refs:   macParseOrphanResponse
           ENTRY                   ADDRESS         REF BY
           =====                   =======         ======
           macSetChannel           00004862 
               calls direct
               stack 1 = 00000000 ( 00000002 )
               stack 2 = 00000008 ( 00000000 )
    -------------------------------------------------------------------------
NEAR_CODE
  Relative segment, address: CODE 00004873 - 00004891 (0x1f bytes), align: 0
  Segment part 32.            Intra module refs:   macParseAssocResponse
                                                   macParseOrphanResponse
           ENTRY                   ADDRESS         REF BY
           =====                   =======         ======
           macSetShortAddr         00004873 
               calls direct
               stack 1 = 00000000 ( 00000000 )
               stack 2 = 00000008 ( 00000008 )
    -------------------------------------------------------------------------
NEAR_CODE
  Relative segment, address: CODE 00004892 - 00004D01 (0x470 bytes), align: 0
  Segment part 33.
           ENTRY                   ADDRESS         REF BY
           =====                   =======         ======
           macFSM                  00004892        adpFSM (adp)
                                                   adpTxData (adp)
               calls direct
               stack 1 = 00000000 ( 00000001 )
               stack 2 = 00000000 ( 0000000F )
    -------------------------------------------------------------------------
NEAR_CODE
  Relative segment, address: CODE 00004D02 - 00004D3A (0x39 bytes), align: 0
  Segment part 34.
           ENTRY                   ADDRESS         REF BY
           =====                   =======         ======
           macTxCallback           00004D02        spp_rf_IRQ (halStack)
               calls direct
               stack 1 = 00000000 ( 00000000 )
               stack 2 = 00000000 ( 0000000B )
    -------------------------------------------------------------------------
NEAR_CODE
  Relative segment, address: CODE 00004D3B - 00004DE3 (0xa9 bytes), align: 0
  Segment part 35.
           ENTRY                   ADDRESS         REF BY
           =====                   =======         ======
           macRxCallback           00004D3B        spp_rf_IRQ (halStack)
               stack 1 = 00000000 ( 00000001 )
               stack 2 = 00000000 ( 00000008 )
    -------------------------------------------------------------------------
NEAR_CODE
  Relative segment, address: CODE 00004DE4 - 00004E07 (0x24 bytes), align: 0
  Segment part 36.
           ENTRY                   ADDRESS         REF BY
           =====                   =======         ======
           macRxBuffFull           00004DE4        spp_rf_IRQ (halStack)
               stack 1 = 00000000 ( 00000002 )
    -------------------------------------------------------------------------
NEAR_CODE
  Relative segment, address: CODE 00004E08 - 00004E22 (0x1b bytes), align: 0
  Segment part 37.            Intra module refs:   macRxFSM
           ENTRY                   ADDRESS         REF BY
           =====                   =======         ======
           macRxBuffEmpty          00004E08 
               stack 1 = 00000000 ( 00000002 )
               stack 2 = 0000000B ( 00000000 )
    -------------------------------------------------------------------------
NEAR_CODE
  Relative segment, address: CODE 00004E23 - 00004E6C (0x4a bytes), align: 0
  Segment part 38.            Intra module refs:   macRxFSM
           ENTRY                   ADDRESS         REF BY
           =====                   =======         ======
           macGetRxPacket          00004E23 
               stack 1 = 00000000 ( 00000002 )
               stack 2 = 0000000B ( 00000000 )
    -------------------------------------------------------------------------
NEAR_CODE
  Relative segment, address: CODE 00004E6D - 00004EBB (0x4f bytes), align: 0
  Segment part 39.            Intra module refs:   macRxFSM
           ENTRY                   ADDRESS         REF BY
           =====                   =======         ======
           macFreeRxPacket         00004E6D 
               calls direct
               stack 1 = 00000000 ( 00000002 )
               stack 2 = 0000000B ( 00000000 )
    -------------------------------------------------------------------------
NEAR_CODE
  Relative segment, address: CODE 00004EBC - 00004F76 (0xbb bytes), align: 0
  Segment part 40.            Intra module refs:   macFSM
           LOCAL                   ADDRESS         
           =====                   =======         
           macTxFSM                00004EBC 
               calls direct
               stack 1 = 00000000 ( 00000002 )
               stack 2 = 0000000F ( 0000000B )
    -------------------------------------------------------------------------
NEAR_CODE
  Relative segment, address: CODE 00004F77 - 00005293 (0x31d bytes), align: 0
  Segment part 41.            Intra module refs:   macFSM
                                                   macTxFSM
           LOCAL                   ADDRESS         
           =====                   =======         
           macTxData               00004F77 
               calls direct
               stack 1 = 00000000 ( 00000001 )
               stack 2 = 0000000F ( 00000009 )
    -------------------------------------------------------------------------
NEAR_CODE
  Relative segment, address: CODE 00005294 - 00005466 (0x1d3 bytes), align: 0
  Segment part 42.            Intra module refs:   macFSM
           LOCAL                   ADDRESS         
           =====                   =======         
           macRxFSM                00005294 
               calls direct
               stack 1 = 00000000 ( 00000000 )
               stack 2 = 0000000F ( 0000000B )
    -------------------------------------------------------------------------
CODE_C
  Relative segment, address: CODE 00007C38 - 00007C51 (0x1a bytes), align: 0
  Segment part 14.            Intra module refs:   macRxFSM
           LOCAL                   ADDRESS         
           =====                   =======         
           macRxFSM{1}{6}{8}::xxxxromstr
                                   00007C38 
    -------------------------------------------------------------------------
CODE_C
  Relative segment, address: CODE 00007C52 - 00007C55 (0x4 bytes), align: 0
  Segment part 15.            Intra module refs:   macRxFSM
           LOCAL                   ADDRESS         
           =====                   =======         
           macRxFSM{1}{6}{9}{10}::xxxxromstr
                                   00007C52 
    -------------------------------------------------------------------------
CODE_C
  Relative segment, address: CODE 00007C56 - 00007C6F (0x1a bytes), align: 0
  Segment part 16.            Intra module refs:   macRxFSM
           LOCAL                   ADDRESS         
           =====                   =======         
           macRxFSM{1}{6}{11}::xxxxromstr
                                   00007C56 
    -------------------------------------------------------------------------
NEAR_CODE
  Relative segment, address: CODE 00005467 - 0000562D (0x1c7 bytes), align: 0
  Segment part 43.            Intra module refs:   macRxFSM
           LOCAL                   ADDRESS         
           =====                   =======         
           macParseHdr             00005467 
               stack 1 = 00000000 ( 00000001 )
               stack 2 = 0000000B ( 00000009 )
    -------------------------------------------------------------------------
NEAR_CODE
  Relative segment, address: CODE 0000562E - 0000575C (0x12f bytes), align: 0
  Segment part 44.            Intra module refs:   macRxFSM
           LOCAL                   ADDRESS         
           =====                   =======         
           macParseBeacon          0000562E 
               stack 1 = 00000000 ( 00000003 )
               stack 2 = 0000000B ( 00000000 )
    -------------------------------------------------------------------------
NEAR_CODE
  Relative segment, address: CODE 0000575D - 000057C3 (0x67 bytes), align: 0
  Segment part 45.            Intra module refs:   macFSM
           LOCAL                   ADDRESS         
           =====                   =======         
           macFormatAssocRequest   0000575D 
               stack 1 = 00000000 ( 00000003 )
               stack 2 = 0000000F ( 00000000 )
    -------------------------------------------------------------------------
NEAR_CODE
  Relative segment, address: CODE 000057C4 - 000058E8 (0x125 bytes), align: 0
  Segment part 46.            Intra module refs:   macRxFSM
           LOCAL                   ADDRESS         
           =====                   =======         
           macParseAssocResponse   000057C4 
               calls direct
               stack 1 = 00000000 ( 00000000 )
               stack 2 = 0000000B ( 00000008 )
    -------------------------------------------------------------------------
NEAR_CODE
  Relative segment, address: CODE 000058E9 - 00005A46 (0x15e bytes), align: 0
  Segment part 47.            Intra module refs:   macRxFSM
           LOCAL                   ADDRESS         
           =====                   =======         
           macParseOrphanResponse
                                   000058E9 
               calls direct
               stack 1 = 00000000 ( 00000000 )
               stack 2 = 0000000B ( 00000008 )
    -------------------------------------------------------------------------
NEAR_CODE
  Relative segment, address: CODE 00005A47 - 00005A71 (0x2b bytes), align: 0
  Segment part 48.            Intra module refs:   macFSM
           LOCAL                   ADDRESS         
           =====                   =======         
           macFormatOrphanNotify   00005A47 
               stack 1 = 00000000 ( 00000003 )
               stack 2 = 0000000F ( 00000000 )
    -------------------------------------------------------------------------
NEAR_CODE
  Relative segment, address: CODE 00005A72 - 00005B13 (0xa2 bytes), align: 0
  Segment part 49.            Intra module refs:   macRxFSM
           LOCAL                   ADDRESS         
           =====                   =======         
           macCheckDataRejection   00005A72 
               stack 1 = 00000000 ( 00000000 )
               stack 2 = 0000000B ( 00000009 )
    -------------------------------------------------------------------------
XDATA_I
  Relative segment, address: XDATA 0000EE8C - 0000EE8F (0x4 bytes), align: 0
  Segment part 19.            Intra module refs:   macInitRadio
           ENTRY                   ADDRESS         REF BY
           =====                   =======         ======
           __Constant_78           0000EE8C 
    -------------------------------------------------------------------------
XDATA_ID
  Relative segment, address: CODE 00007BB2 - 00007BB5 (0x4 bytes), align: 0
  Segment part 20.            Intra module refs:   __Constant_78
    -------------------------------------------------------------------------
XDATA_I
  Relative segment, address: XDATA 0000EE90 - 0000EE93 (0x4 bytes), align: 0
  Segment part 21.            Intra module refs:   macInitRadio
           ENTRY                   ADDRESS         REF BY
           =====                   =======         ======
           __Constant_36           0000EE90 
    -------------------------------------------------------------------------
XDATA_ID
  Relative segment, address: CODE 00007BB6 - 00007BB9 (0x4 bytes), align: 0
  Segment part 22.            Intra module refs:   __Constant_36
    -------------------------------------------------------------------------
XDATA_I
  Relative segment, address: XDATA 0000EE94 - 0000EE97 (0x4 bytes), align: 0
  Segment part 25.            Intra module refs:   macFSM
           ENTRY                   ADDRESS         REF BY
           =====                   =======         ======
           __Constant_4d9          0000EE94 
    -------------------------------------------------------------------------
XDATA_ID
  Relative segment, address: CODE 00007BBA - 00007BBD (0x4 bytes), align: 0
  Segment part 26.            Intra module refs:   __Constant_4d9

    *************************************************************************

  FILE NAME : F:\6LoWSN\6lowsn_stack\obj\compiletest\iar51_cc2430\Debug\Obj\memalloc.r51
  PROGRAM MODULE, NAME : memalloc

  SEGMENTS IN THE MODULE
  ======================
XDATA_Z
  Relative segment, address: XDATA 0000E4E7 - 0000ECE6 (0x800 bytes), align: 0
  Segment part 7.             Intra module refs:   MemAlloc
                                                   MemFree
                                                   MemInit
           LOCAL                   ADDRESS         
           =====                   =======         
           mem_heap                0000E4E7 
    -------------------------------------------------------------------------
NEAR_CODE
  Relative segment, address: CODE 00005B14 - 00005B40 (0x2d bytes), align: 0
  Segment part 8.             Intra module refs:   MemAlloc
                                                   MemFree
           ENTRY                   ADDRESS         REF BY
           =====                   =======         ======
           memhdr_get_size         00005B14 
               stack 1 = 00000000 ( 00000002 )
               stack 2 = 0000000E ( 00000000 )
    -------------------------------------------------------------------------
NEAR_CODE
  Relative segment, address: CODE 00005B41 - 00005B6A (0x2a bytes), align: 0
  Segment part 9.             Intra module refs:   MemAlloc
                                                   MemFree
                                                   MemInit
           ENTRY                   ADDRESS         REF BY
           =====                   =======         ======
           memhdr_set_size         00005B41 
               stack 1 = 00000000 ( 00000001 )
               stack 2 = 0000000E ( 00000008 )
    -------------------------------------------------------------------------
NEAR_CODE
  Relative segment, address: CODE 00005B6B - 00005BA1 (0x37 bytes), align: 0
  Segment part 10.
           ENTRY                   ADDRESS         REF BY
           =====                   =======         ======
           MemInit                 00005B6B        phyInit (phy)
               calls direct
               stack 1 = 00000000 ( 00000000 )
               stack 2 = 00000000 ( 0000000B )
    -------------------------------------------------------------------------
NEAR_CODE
  Relative segment, address: CODE 00005BA2 - 00005CCF (0x12e bytes), align: 0
  Segment part 11.
           ENTRY                   ADDRESS         REF BY
           =====                   =======         ======
           MemAlloc                00005BA2        apsInjectPacket (aps)
                                                   apsInjectTxPacket (aps)
                                                   spp_rf_IRQ (halStack)
               calls direct
               stack 1 = 00000000 ( 00000000 )
               stack 2 = 00000000 ( 0000000E )
    -------------------------------------------------------------------------
NEAR_CODE
  Relative segment, address: CODE 00005CD0 - 00005DDE (0x10f bytes), align: 0
  Segment part 12.
           ENTRY                   ADDRESS         REF BY
           =====                   =======         ======
           MemFree                 00005CD0        adpRxFSM (adp)
                                                   apsInjectPacket (aps)
                                                   apsRxFSM (aps)
                                                   macFreeRxPacket (mac)
                                                   nwkRxFSM (nwk)
                                                   spp_rf_IRQ (halStack)
               calls direct
               stack 1 = 00000000 ( 00000000 )
               stack 2 = 00000000 ( 0000000E )

    *************************************************************************

  FILE NAME : F:\6LoWSN\6lowsn_stack\obj\compiletest\iar51_cc2430\Debug\Obj\nd.r51
  PROGRAM MODULE, NAME : nd

  SEGMENTS IN THE MODULE
  ======================
XDATA_Z
  Relative segment, address: XDATA 0000ECE7 - 0000ECF6 (0x10 bytes), align: 0
  Segment part 6.             Intra module refs:   ndParseRA
           LOCAL                   ADDRESS         
           =====                   =======         
           ipaddr                  0000ECE7 
    -------------------------------------------------------------------------
XDATA_Z
  Relative segment, address: XDATA 0000ECF7 - 0000ECF8 (0x2 bytes), align: 0
  Segment part 7.             Intra module refs:   ndParseRA
           LOCAL                   ADDRESS         
           =====                   =======         
           prefix                  0000ECF7 
    -------------------------------------------------------------------------
XDATA_Z
  Relative segment, address: XDATA 0000ECF9 - 0000ECFA (0x2 bytes), align: 0
  Segment part 8.             Intra module refs:   ndParseRA
           LOCAL                   ADDRESS         
           =====                   =======         
           addr                    0000ECF9 
    -------------------------------------------------------------------------
NEAR_CODE
  Relative segment, address: CODE 00005DDF - 00005FB8 (0x1da bytes), align: 0
  Segment part 11.
           ENTRY                   ADDRESS         REF BY
           =====                   =======         ======
           ndFmtRS                 00005DDF        nwkFSM (nwk)
               calls direct
               stack 1 = 00000000 ( 00000001 )
               stack 2 = 00000000 ( 0000000B )
    -------------------------------------------------------------------------
NEAR_CODE
  Relative segment, address: CODE 00005FB9 - 0000615F (0x1a7 bytes), align: 0
  Segment part 12.
           ENTRY                   ADDRESS         REF BY
           =====                   =======         ======
           ndParseRA               00005FB9        nwkRxFSM (nwk)
               calls direct
               stack 1 = 00000000 ( 00000000 )
               stack 2 = 00000000 ( 0000000F )

    *************************************************************************

  FILE NAME : F:\6LoWSN\6lowsn_stack\obj\compiletest\iar51_cc2430\Debug\Obj\neighbor.r51
  PROGRAM MODULE, NAME : neighbor

  SEGMENTS IN THE MODULE
  ======================
NEAR_CODE
  Relative segment, address: CODE 00006160 - 0000619D (0x3e bytes), align: 0
  Segment part 6.
           ENTRY                   ADDRESS         REF BY
           =====                   =======         ======
           ntInitAddressMap        00006160        macInit (mac)
                                                   macSetShortAddr (mac)
               stack 1 = 00000000 ( 00000002 )
    -------------------------------------------------------------------------
NEAR_CODE
  Relative segment, address: CODE 0000619E - 000061D3 (0x36 bytes), align: 0
  Segment part 8.
           ENTRY                   ADDRESS         REF BY
           =====                   =======         ======
           ntAddOurselvesToAddressTable
                                   0000619E        macSetShortAddr (mac)
               calls direct
               stack 1 = 00000000 ( 00000000 )
               stack 2 = 00000000 ( 00000010 )
    -------------------------------------------------------------------------
NEAR_CODE
  Relative segment, address: CODE 000061D4 - 000062CB (0xf8 bytes), align: 0
  Segment part 10.            Intra module refs:   ntNewAddressMapEntry
           ENTRY                   ADDRESS         REF BY
           =====                   =======         ======
           ntCheckAddressMapEntry
                                   000061D4 
               stack 1 = 00000000 ( 00000001 )
               stack 2 = 0000000E ( 0000000D )
    -------------------------------------------------------------------------
NEAR_CODE
  Relative segment, address: CODE 000062CC - 00006404 (0x139 bytes), align: 0
  Segment part 11.            Intra module refs:   ntAddOurselvesToAddressTable
           ENTRY                   ADDRESS         REF BY
           =====                   =======         ======
           ntNewAddressMapEntry    000062CC 
               calls direct
               stack 1 = 00000000 ( 00000001 )
               stack 2 = 00000010 ( 0000000E )
    -------------------------------------------------------------------------
NEAR_CODE
  Relative segment, address: CODE 00006405 - 00006469 (0x65 bytes), align: 0
  Segment part 12.            Intra module refs:   ntGetMaxSADDR
           ENTRY                   ADDRESS         REF BY
           =====                   =======         ======
           ntGetCskip              00006405        adpFindParentSADDR (adp)
                                                   adpGetHopsToDest (adp)
               stack 1 = 00000000 ( 00000002 )
               stack 2 = 00000008 ( 00000000 )
    -------------------------------------------------------------------------
NEAR_CODE
  Relative segment, address: CODE 0000646A - 0000649D (0x34 bytes), align: 0
  Segment part 13.
           ENTRY                   ADDRESS         REF BY
           =====                   =======         ======
           ntGetMaxSADDR           0000646A        adpFindParentSADDR (adp)
                                                   adpGetHopsToDest (adp)
               calls direct
               stack 1 = 00000000 ( 00000000 )
               stack 2 = 00000000 ( 00000008 )

    *************************************************************************

  FILE NAME : F:\6LoWSN\6lowsn_stack\obj\compiletest\iar51_cc2430\Debug\Obj\nwk.r51
  PROGRAM MODULE, NAME : nwk

  SEGMENTS IN THE MODULE
  ======================
XDATA_Z
  Relative segment, address: XDATA 0000ECFB - 0000ECFE (0x4 bytes), align: 0
  Segment part 6.             Intra module refs:   nwkFSM
           LOCAL                   ADDRESS         
           =====                   =======         
           nwk_utility_timer       0000ECFB 
    -------------------------------------------------------------------------
XDATA_Z
  Relative segment, address: XDATA 0000ECFF - 0000ED00 (0x2 bytes), align: 0
  Segment part 8.             Intra module refs:   nwkFSM
                                                   nwkRxFSM
                                                   nwkTxData
           ENTRY                   ADDRESS         REF BY
           =====                   =======         ======
           lowsn_len               0000ECFF        icmpFmtEchoReply (icmpv6)
                                                   icmpFmtEchoRequest (icmpv6)
                                                   ndParseRA (nd)
    -------------------------------------------------------------------------
XDATA_Z
  Relative segment, address: XDATA 0000ED01 - 0000ED01 (0x1 bytes), align: 0
  Segment part 14.            Intra module refs:   nwkFSM
                                                   nwkInit
           ENTRY                   ADDRESS         REF BY
           =====                   =======         ======
           nwkState                0000ED01        apsFSM (aps)
                                                   apsTxData (aps)
                                                   apsTxFSM (aps)
                                                   apsTxIPData (aps)
    -------------------------------------------------------------------------
XDATA_Z
  Relative segment, address: XDATA 0000ED02 - 0000ED02 (0x1 bytes), align: 0
  Segment part 15.            Intra module refs:   nwkInit
                                                   nwkRxBusy
                                                   nwkRxFSM
                                                   nwkRxHandoff
           ENTRY                   ADDRESS         REF BY
           =====                   =======         ======
           nwkRxState              0000ED02 
    -------------------------------------------------------------------------
XDATA_Z
  Relative segment, address: XDATA 0000ED03 - 0000ED16 (0x14 bytes), align: 0
  Segment part 16.            Intra module refs:   nwkFSM
           ENTRY                   ADDRESS         REF BY
           =====                   =======         ======
           a_nwk_service           0000ED03        apsFSM (aps)
                                                   apsTxData (aps)
                                                   apsTxFSM (aps)
                                                   apsTxIPData (aps)
                                                   icmpFmtEchoRequest (icmpv6)
                                                   main (test_pingpong)
    -------------------------------------------------------------------------
XDATA_Z
  Relative segment, address: XDATA 0000ED17 - 0000ED1E (0x8 bytes), align: 0
  Segment part 17.            Intra module refs:   nwkFSM
                                                   nwkInit
                                                   nwkRxFSM
           ENTRY                   ADDRESS         REF BY
           =====                   =======         ======
           nwk_pib                 0000ED17        icmpFmtEchoRequest (icmpv6)
                                                   icmpParseEchoReply (icmpv6)
    -------------------------------------------------------------------------
XDATA_Z
  Relative segment, address: XDATA 0000ED1F - 0000ED59 (0x3b bytes), align: 0
  Segment part 18.            Intra module refs:   nwkFSM
                                                   nwkFindDstDLLAddr
                                                   nwkTxData
           ENTRY                   ADDRESS         REF BY
           =====                   =======         ======
           a_nwk_tx_data           0000ED1F        apsTxData (aps)
                                                   apsTxIPData (aps)
                                                   icmpCommonFmt (icmpv6)
                                                   ndFmtRS (nd)
    -------------------------------------------------------------------------
XDATA_Z
  Relative segment, address: XDATA 0000ED5A - 0000ED8C (0x33 bytes), align: 0
  Segment part 19.            Intra module refs:   nwkFSM
                                                   nwkParseHdr
                                                   nwkRxFSM
                                                   nwkRxHandoff
           ENTRY                   ADDRESS         REF BY
           =====                   =======         ======
           a_nwk_rx_data           0000ED5A        apsRxHandoff (aps)
                                                   icmpFmtEchoReply (icmpv6)
                                                   icmpParseEchoReply (icmpv6)
                                                   ndParseRA (nd)
    -------------------------------------------------------------------------
XDATA_Z
  Relative segment, address: XDATA 0000ED8D - 0000ED92 (0x6 bytes), align: 0
  Segment part 20.
           ENTRY                   ADDRESS         REF BY
           =====                   =======         ======
           pmtu                    0000ED8D        ds6Init (ds)
    -------------------------------------------------------------------------
XDATA_Z
  Relative segment, address: XDATA 0000ED93 - 0000ED94 (0x2 bytes), align: 0
  Segment part 21.            Intra module refs:   nwkRxFSM
           ENTRY                   ADDRESS         REF BY
           =====                   =======         ======
           lowsn_next_hdr          0000ED93 
    -------------------------------------------------------------------------
XDATA_Z
  Relative segment, address: XDATA 0000ED95 - 0000ED95 (0x1 bytes), align: 0
  Segment part 22.            Intra module refs:   nwkRxFSM
           ENTRY                   ADDRESS         REF BY
           =====                   =======         ======
           lowsn_ext_bitmap        0000ED95 
    -------------------------------------------------------------------------
XDATA_Z
  Relative segment, address: XDATA 0000ED96 - 0000ED96 (0x1 bytes), align: 0
  Segment part 23.            Intra module refs:   nwkRxFSM
           ENTRY                   ADDRESS         REF BY
           =====                   =======         ======
           lowsn_ext_len           0000ED96 
    -------------------------------------------------------------------------
NEAR_CODE
  Relative segment, address: CODE 0000649E - 000064BF (0x22 bytes), align: 0
  Segment part 36.
           ENTRY                   ADDRESS         REF BY
           =====                   =======         ======
           nwkInit                 0000649E        apsInit (aps)
               calls direct
               stack 1 = 00000000 ( 00000002 )
    -------------------------------------------------------------------------
NEAR_CODE
  Relative segment, address: CODE 000064C0 - 00006885 (0x3c6 bytes), align: 0
  Segment part 37.
           ENTRY                   ADDRESS         REF BY
           =====                   =======         ======
           nwkFSM                  000064C0        apsFSM (aps)
                                                   apsTxData (aps)
                                                   apsTxIPData (aps)
               calls direct
               stack 1 = 00000000 ( 00000000 )
               stack 2 = 00000000 ( 0000000F )
    -------------------------------------------------------------------------
NEAR_CODE
  Relative segment, address: CODE 00006886 - 00006A61 (0x1dc bytes), align: 0
  Segment part 38.            Intra module refs:   nwkFSM
           ENTRY                   ADDRESS         REF BY
           =====                   =======         ======
           nwkRxFSM                00006886 
               calls direct
               stack 1 = 00000000 ( 00000002 )
               stack 2 = 0000000F ( 00000000 )
    -------------------------------------------------------------------------
NEAR_CODE
  Relative segment, address: CODE 00006A62 - 00006CE4 (0x283 bytes), align: 0
  Segment part 39.            Intra module refs:   nwkFSM
           ENTRY                   ADDRESS         REF BY
           =====                   =======         ======
           nwkTxData               00006A62 
               calls direct
               stack 1 = 00000000 ( 00000001 )
               stack 2 = 0000000F ( 0000000D )
    -------------------------------------------------------------------------
NEAR_CODE
  Relative segment, address: CODE 00006CE5 - 00006CF9 (0x15 bytes), align: 0
  Segment part 40.
           ENTRY                   ADDRESS         REF BY
           =====                   =======         ======
           nwkRxBusy               00006CE5        adpRxFSM (adp)
               stack 1 = 00000000 ( 00000002 )
    -------------------------------------------------------------------------
NEAR_CODE
  Relative segment, address: CODE 00006CFA - 00006DA3 (0xaa bytes), align: 0
  Segment part 42.
           ENTRY                   ADDRESS         REF BY
           =====                   =======         ======
           nwkRxHandoff            00006CFA        adpRxFSM (adp)
               stack 1 = 00000000 ( 00000000 )
               stack 2 = 00000000 ( 0000000B )
    -------------------------------------------------------------------------
NEAR_CODE
  Relative segment, address: CODE 00006DA4 - 00006F00 (0x15d bytes), align: 0
  Segment part 43.            Intra module refs:   nwkRxFSM
           ENTRY                   ADDRESS         REF BY
           =====                   =======         ======
           nwkParseHdr             00006DA4 
               stack 1 = 00000002 ( 00000001 )
               stack 2 = 00000000 ( 0000000B )
    -------------------------------------------------------------------------
NEAR_CODE
  Relative segment, address: CODE 00006F01 - 00006FF5 (0xf5 bytes), align: 0
  Segment part 44.            Intra module refs:   nwkFSM
           ENTRY                   ADDRESS         REF BY
           =====                   =======         ======
           nwkFindDstDLLAddr       00006F01 
               calls direct
               stack 1 = 00000000 ( 00000002 )
               stack 2 = 0000000F ( 00000000 )
    -------------------------------------------------------------------------
XDATA_I
  Relative segment, address: XDATA 0000EE98 - 0000EE9B (0x4 bytes), align: 0
  Segment part 27.            Intra module refs:   nwkFSM
           ENTRY                   ADDRESS         REF BY
           =====                   =======         ======
           __Constant_f231         0000EE98 
    -------------------------------------------------------------------------
XDATA_ID
  Relative segment, address: CODE 00007BBE - 00007BC1 (0x4 bytes), align: 0
  Segment part 28.            Intra module refs:   __Constant_f231

    *************************************************************************

  FILE NAME : F:\6LoWSN\6lowsn_stack\obj\compiletest\iar51_cc2430\Debug\Obj\phy.r51
  PROGRAM MODULE, NAME : phy

  SEGMENTS IN THE MODULE
  ======================
XDATA_Z
  Relative segment, address: XDATA 0000ED97 - 0000EDA7 (0x11 bytes), align: 0
  Segment part 6.             Intra module refs:   phyFSM
                                                   phyInit
                                                   phyTxEndCallBack
                                                   phyTxStartCallBack
           ENTRY                   ADDRESS         REF BY
           =====                   =======         ======
           phy_pib                 0000ED97        PingPong (test_pingpong)
                                                   adpTxCompData (adp)
                                                   adpTxData (adp)
                                                   apsFSM (aps)
                                                   apsInjectTxPacket (aps)
                                                   apsTxData (aps)
                                                   apsTxFSM (aps)
                                                   apsTxIPData (aps)
                                                   icmpCommonFmt (icmpv6)
                                                   icmpFmtEchoReply (icmpv6)
                                                   icmpFmtEchoRequest (icmpv6)
                                                   macFSM (mac)
                                                   macFormatAssocRequest (mac)
                                                   macFormatOrphanNotify (mac)
                                                   macInitRadio (mac)
                                                   macSetChannel (mac)
                                                   macTxCallback (mac)
                                                   macTxData (mac)
                                                   ndFmtRS (nd)
                                                   nwkFSM (nwk)
                                                   nwkTxData (nwk)
    -------------------------------------------------------------------------
XDATA_Z
  Relative segment, address: XDATA 0000EDA8 - 0000EDAB (0x4 bytes), align: 0
  Segment part 7.             Intra module refs:   phyFSM
           ENTRY                   ADDRESS         REF BY
           =====                   =======         ======
           a_phy_service           0000EDA8        macFSM (mac)
                                                   macInitRadio (mac)
                                                   macTxData (mac)
                                                   macTxFSM (mac)
    -------------------------------------------------------------------------
XDATA_Z
  Relative segment, address: XDATA 0000EDAC - 0000EDAC (0x1 bytes), align: 0
  Segment part 8.             Intra module refs:   phyFSM
                                                   phyInit
           ENTRY                   ADDRESS         REF BY
           =====                   =======         ======
           phyState                0000EDAC        macFSM (mac)
                                                   macInitRadio (mac)
                                                   macTxData (mac)
                                                   macTxFSM (mac)
    -------------------------------------------------------------------------
XDATA_Z
  Relative segment, address: XDATA 0000EDAD - 0000EE2B (0x7f bytes), align: 0
  Segment part 9.
           ENTRY                   ADDRESS         REF BY
           =====                   =======         ======
           tmpTxBuff               0000EDAD        apsTxData (aps)
                                                   apsTxIPData (aps)
                                                   icmpFmtEchoReply (icmpv6)
                                                   icmpFmtEchoRequest (icmpv6)
                                                   macFSM (mac)
                                                   macFormatAssocRequest (mac)
                                                   macFormatOrphanNotify (mac)
                                                   ndFmtRS (nd)
                                                   zepFmtAlarm (zep)
                                                   zepFmtEndDeviceAnnounce (zep)
                                                   zepFmtNodeInfoRsp (zep)
                                                   zepFmtPing (zep)
    -------------------------------------------------------------------------
NEAR_CODE
  Relative segment, address: CODE 00006FF6 - 0000700D (0x18 bytes), align: 0
  Segment part 17.
           ENTRY                   ADDRESS         REF BY
           =====                   =======         ======
           phyInit                 00006FF6        adpFSM (adp)
                                                   apsInit (aps)
               calls direct
               stack 1 = 00000000 ( 00000002 )
    -------------------------------------------------------------------------
NEAR_CODE
  Relative segment, address: CODE 0000700E - 0000700E (0x1 bytes), align: 0
  Segment part 18.
           ENTRY                   ADDRESS         REF BY
           =====                   =======         ======
           phyRxCallback           0000700E        spp_rf_IRQ (halStack)
    -------------------------------------------------------------------------
NEAR_CODE
  Relative segment, address: CODE 0000700F - 0000702B (0x1d bytes), align: 0
  Segment part 19.
           ENTRY                   ADDRESS         REF BY
           =====                   =======         ======
           phyTxStartCallBack      0000700F        halSendPacket (halStack)
               calls direct
               stack 1 = 00000000 ( 00000000 )
               stack 2 = 00000000 ( 0000000B )
    -------------------------------------------------------------------------
NEAR_CODE
  Relative segment, address: CODE 0000702C - 00007040 (0x15 bytes), align: 0
  Segment part 20.
           ENTRY                   ADDRESS         REF BY
           =====                   =======         ======
           phyTxEndCallBack        0000702C        spp_rf_IRQ (halStack)
               stack 1 = 00000000 ( 00000002 )
    -------------------------------------------------------------------------
NEAR_CODE
  Relative segment, address: CODE 00007041 - 00007168 (0x128 bytes), align: 0
  Segment part 21.
           ENTRY                   ADDRESS         REF BY
           =====                   =======         ======
           phyFSM                  00007041        macFSM (mac)
                                                   macInitRadio (mac)
                                                   macTxData (mac)
               calls direct
               stack 1 = 00000000 ( 00000000 )
               stack 2 = 00000000 ( 00000011 )
    -------------------------------------------------------------------------
CODE_C
  Relative segment, address: CODE 00007C70 - 00007C89 (0x1a bytes), align: 0
  Segment part 10.            Intra module refs:   phyFSM
           LOCAL                   ADDRESS         
           =====                   =======         
           phyFSM{1}{4}{7}::xxxxromstr
                                   00007C70 
    -------------------------------------------------------------------------
CODE_C
  Relative segment, address: CODE 00007C8A - 00007C8C (0x3 bytes), align: 0
  Segment part 11.            Intra module refs:   phyFSM
           LOCAL                   ADDRESS         
           =====                   =======         
           phyFSM{1}{4}{8}{9}::xxxxromstr
                                   00007C8A 
    -------------------------------------------------------------------------
CODE_C
  Relative segment, address: CODE 00007C8D - 00007CA6 (0x1a bytes), align: 0
  Segment part 12.            Intra module refs:   phyFSM
           LOCAL                   ADDRESS         
           =====                   =======         
           phyFSM{1}{4}{10}::xxxxromstr
                                   00007C8D 
    -------------------------------------------------------------------------
XDATA_I
  Relative segment, address: XDATA 0000EE9C - 0000EE9F (0x4 bytes), align: 0
  Segment part 15.            Intra module refs:   phyFSM
           ENTRY                   ADDRESS         REF BY
           =====                   =======         ======
           __Constant_12d          0000EE9C 
    -------------------------------------------------------------------------
XDATA_ID
  Relative segment, address: CODE 00007BC2 - 00007BC5 (0x4 bytes), align: 0
  Segment part 16.            Intra module refs:   __Constant_12d

    *************************************************************************

  FILE NAME : F:\6LoWSN\6lowsn_stack\obj\compiletest\iar51_cc2430\Debug\Obj\staticbind.r51
    *************************************************************************

  FILE NAME : F:\6LoWSN\6lowsn_stack\obj\compiletest\iar51_cc2430\Debug\Obj\test_pingpong.r51
  PROGRAM MODULE, NAME : test_pingpong

  SEGMENTS IN THE MODULE
  ======================
XDATA_Z
  Relative segment, address: XDATA 0000EE2C - 0000EE2D (0x2 bytes), align: 0
  Segment part 7.             Intra module refs:   PingPong
                                                   main
                                                   usrRxPacketCallback
           ENTRY                   ADDRESS         REF BY
           =====                   =======         ======
           ping_cnt                0000EE2C 
    -------------------------------------------------------------------------
XDATA_Z
  Relative segment, address: XDATA 0000EE2E - 0000EE31 (0x4 bytes), align: 0
  Segment part 8.             Intra module refs:   PingPong
                                                   main
           ENTRY                   ADDRESS         REF BY
           =====                   =======         ======
           my_timer                0000EE2E 
    -------------------------------------------------------------------------
XDATA_Z
  Relative segment, address: XDATA 0000EE32 - 0000EE35 (0x4 bytes), align: 0
  Segment part 9.             Intra module refs:   PingPong
           ENTRY                   ADDRESS         REF BY
           =====                   =======         ======
           last_tx_start           0000EE32 
    -------------------------------------------------------------------------
XDATA_Z
  Relative segment, address: XDATA 0000EE36 - 0000EE45 (0x10 bytes), align: 0
  Segment part 12.            Intra module refs:   PingPong
                                                   main
                                                   usrRxPacketCallback
           ENTRY                   ADDRESS         REF BY
           =====                   =======         ======
           dstIPADDR               0000EE36 
    -------------------------------------------------------------------------
XDATA_I
  Relative segment, address: XDATA 0000EEA0 - 0000EEA3 (0x4 bytes), align: 0
  Segment part 53.            Intra module refs:   PingPong
           ENTRY                   ADDRESS         REF BY
           =====                   =======         ======
           __Constant_4baf1        0000EEA0 
    -------------------------------------------------------------------------
XDATA_I
  Relative segment, address: XDATA 0000EEA4 - 0000EEA7 (0x4 bytes), align: 0
  Segment part 55.            Intra module refs:   PingPong
           ENTRY                   ADDRESS         REF BY
           =====                   =======         ======
           __Constant_1e461        0000EEA4 
    -------------------------------------------------------------------------
XDATA_I
  Relative segment, address: XDATA 0000EEA8 - 0000EEAB (0x4 bytes), align: 0
  Segment part 61.            Intra module refs:   main
           ENTRY                   ADDRESS         REF BY
           =====                   =======         ======
           __Constant_1e460        0000EEA8 
    -------------------------------------------------------------------------
XDATA_Z
  Relative segment, address: XDATA 0000EE46 - 0000EE46 (0x1 bytes), align: 0
  Segment part 19.            Intra module refs:   PingPong
                                                   main
           ENTRY                   ADDRESS         REF BY
           =====                   =======         ======
           ppState                 0000EE46 
    -------------------------------------------------------------------------
XDATA_Z
  Relative segment, address: XDATA 0000EE47 - 0000EE47 (0x1 bytes), align: 0
  Segment part 20.            Intra module refs:   PingPong
                                                   main
                                                   usrRxPacketCallback
           ENTRY                   ADDRESS         REF BY
           =====                   =======         ======
           rxFlag                  0000EE47 
    -------------------------------------------------------------------------
XDATA_Z
  Relative segment, address: XDATA 0000EE48 - 0000EE49 (0x2 bytes), align: 0
  Segment part 21.            Intra module refs:   PingPong
           ENTRY                   ADDRESS         REF BY
           =====                   =======         ======
           payload                 0000EE48 
    -------------------------------------------------------------------------
XDATA_Z
  Relative segment, address: XDATA 0000EE4A - 0000EE4B (0x2 bytes), align: 0
  Segment part 22.            Intra module refs:   PingPong
                                                   main
                                                   usrRxPacketCallback
           ENTRY                   ADDRESS         REF BY
           =====                   =======         ======
           numTimeouts             0000EE4A 
    -------------------------------------------------------------------------
XDATA_Z
  Relative segment, address: XDATA 0000EE4C - 0000EE4C (0x1 bytes), align: 0
  Segment part 23.            Intra module refs:   PingPong
                                                   main
           ENTRY                   ADDRESS         REF BY
           =====                   =======         ======
           first_packet            0000EE4C 
    -------------------------------------------------------------------------
NEAR_CODE
  Relative segment, address: CODE 00007169 - 000073A0 (0x238 bytes), align: 0
  Segment part 63.            Intra module refs:   main
           ENTRY                   ADDRESS         REF BY
           =====                   =======         ======
           PingPong                00007169 
               calls direct
               stack 1 = 00000000 ( 00000000 )
               stack 2 = 00000000 ( 00000025 )
    -------------------------------------------------------------------------
CODE_C
  Relative segment, address: CODE 00007CA7 - 00007CC2 (0x1c bytes), align: 0
  Segment part 24.            Intra module refs:   PingPong
           LOCAL                   ADDRESS         
           =====                   =======         
           PingPong{1}{8}{9}::xxxxromstr
                                   00007CA7 
    -------------------------------------------------------------------------
CODE_C
  Relative segment, address: CODE 00007CC3 - 00007CC4 (0x2 bytes), align: 0
  Segment part 25.            Intra module refs:   PingPong
           LOCAL                   ADDRESS         
           =====                   =======         
           PingPong{1}{8}{10}::xxxxromstr
                                   00007CC3 
    -------------------------------------------------------------------------
CODE_C
  Relative segment, address: CODE 00007CC5 - 00007CDB (0x17 bytes), align: 0
  Segment part 26.            Intra module refs:   PingPong
           LOCAL                   ADDRESS         
           =====                   =======         
           PingPong{1}{12}{13}::xxxxromstr
                                   00007CC5 
    -------------------------------------------------------------------------
CODE_C
  Relative segment, address: CODE 00007CDC - 00007CFD (0x22 bytes), align: 0
  Segment part 27.            Intra module refs:   PingPong
           LOCAL                   ADDRESS         
           =====                   =======         
           PingPong{1}{14}{15}::xxxxromstr
                                   00007CDC 
    -------------------------------------------------------------------------
NEAR_CODE
  Relative segment, address: CODE 000073A1 - 000075DC (0x23c bytes), align: 0
  Segment part 64.
           ENTRY                   ADDRESS         REF BY
           =====                   =======         ======
           main                    000073A1        ?call_main (?cmain)
               calls direct
               stack 1 = 00000000 ( 00000000 )
               stack 2 = 00000000 ( 00000002 )
    -------------------------------------------------------------------------
CODE_C
  Relative segment, address: CODE 00007CFE - 00007D16 (0x19 bytes), align: 0
  Segment part 28.            Intra module refs:   main
           LOCAL                   ADDRESS         
           =====                   =======         
           main{1}{3}{4}::xxxxromstr
                                   00007CFE 
    -------------------------------------------------------------------------
CODE_C
  Relative segment, address: CODE 00007D17 - 00007D2B (0x15 bytes), align: 0
  Segment part 29.            Intra module refs:   main
           LOCAL                   ADDRESS         
           =====                   =======         
           main{1}{3}{5}::xxxxromstr
                                   00007D17 
    -------------------------------------------------------------------------
CODE_C
  Relative segment, address: CODE 00007D2C - 00007D3A (0xf bytes), align: 0
  Segment part 30.            Intra module refs:   main
           LOCAL                   ADDRESS         
           =====                   =======         
           main{1}{3}{6}::xxxxromstr
                                   00007D2C 
    -------------------------------------------------------------------------
CODE_C
  Relative segment, address: CODE 00007D3B - 00007D4B (0x11 bytes), align: 0
  Segment part 31.            Intra module refs:   main
           LOCAL                   ADDRESS         
           =====                   =======         
           main{1}{3}{7}::xxxxromstr
                                   00007D3B 
    -------------------------------------------------------------------------
CODE_C
  Relative segment, address: CODE 00007D4C - 00007D7C (0x31 bytes), align: 0
  Segment part 32.            Intra module refs:   main
           LOCAL                   ADDRESS         
           =====                   =======         
           main{1}{8}{9}::xxxxromstr
                                   00007D4C 
    -------------------------------------------------------------------------
CODE_C
  Relative segment, address: CODE 00007D7D - 00007D9D (0x21 bytes), align: 0
  Segment part 33.            Intra module refs:   main
           LOCAL                   ADDRESS         
           =====                   =======         
           main{10}{11}::xxxxromstr
                                   00007D7D 
    -------------------------------------------------------------------------
CODE_C
  Relative segment, address: CODE 00007D9E - 00007DB3 (0x16 bytes), align: 0
  Segment part 34.            Intra module refs:   main
           LOCAL                   ADDRESS         
           =====                   =======         
           main{10}{13}{14}::xxxxromstr
                                   00007D9E 
    -------------------------------------------------------------------------
CODE_C
  Relative segment, address: CODE 00007DB4 - 00007DE8 (0x35 bytes), align: 0
  Segment part 35.            Intra module refs:   main
           LOCAL                   ADDRESS         
           =====                   =======         
           main{10}{15}{16}::xxxxromstr
                                   00007DB4 
    -------------------------------------------------------------------------
CODE_C
  Relative segment, address: CODE 00007DE9 - 00007DFD (0x15 bytes), align: 0
  Segment part 36.            Intra module refs:   main
           LOCAL                   ADDRESS         
           =====                   =======         
           main{19}::xxxxromstr    00007DE9 
    -------------------------------------------------------------------------
NEAR_CODE
  Relative segment, address: CODE 000075DD - 000075DF (0x3 bytes), align: 0
  Segment part 65.
           ENTRY                   ADDRESS         REF BY
           =====                   =======         ======
           usrZepRxCallback        000075DD        zepHandleRxPacket (zep)
    -------------------------------------------------------------------------
NEAR_CODE
  Relative segment, address: CODE 000075E0 - 000076E8 (0x109 bytes), align: 0
  Segment part 66.
           ENTRY                   ADDRESS         REF BY
           =====                   =======         ======
           usrRxPacketCallback     000075E0        apsInjectPacket (aps)
                                                   apsRxFSM (aps)
               calls direct
               stack 1 = 00000000 ( 00000002 )
    -------------------------------------------------------------------------
CODE_C
  Relative segment, address: CODE 00007DFE - 00007E1A (0x1d bytes), align: 0
  Segment part 37.            Intra module refs:   usrRxPacketCallback
           LOCAL                   ADDRESS         
           =====                   =======         
           usrRxPacketCallback{1}::xxxxromstr
                                   00007DFE 
    -------------------------------------------------------------------------
CODE_C
  Relative segment, address: CODE 00007E1B - 00007E25 (0xb bytes), align: 0
  Segment part 38.            Intra module refs:   usrRxPacketCallback
           LOCAL                   ADDRESS         
           =====                   =======         
           usrRxPacketCallback{2}::xxxxromstr
                                   00007E1B 
    -------------------------------------------------------------------------
CODE_C
  Relative segment, address: CODE 00007E26 - 00007E2F (0xa bytes), align: 0
  Segment part 39.            Intra module refs:   usrRxPacketCallback
           LOCAL                   ADDRESS         
           =====                   =======         
           usrRxPacketCallback{3}::xxxxromstr
                                   00007E26 
    -------------------------------------------------------------------------
CODE_C
  Relative segment, address: CODE 00007E30 - 00007E3B (0xc bytes), align: 0
  Segment part 40.            Intra module refs:   usrRxPacketCallback
           LOCAL                   ADDRESS         
           =====                   =======         
           usrRxPacketCallback{4}::xxxxromstr
                                   00007E30 
    -------------------------------------------------------------------------
CODE_C
  Relative segment, address: CODE 00007E3C - 00007E47 (0xc bytes), align: 0
  Segment part 41.            Intra module refs:   usrRxPacketCallback
           LOCAL                   ADDRESS         
           =====                   =======         
           usrRxPacketCallback{5}::xxxxromstr
                                   00007E3C 
    -------------------------------------------------------------------------
CODE_C
  Relative segment, address: CODE 00007E48 - 00007E59 (0x12 bytes), align: 0
  Segment part 42.            Intra module refs:   usrRxPacketCallback
           LOCAL                   ADDRESS         
           =====                   =======         
           usrRxPacketCallback{6}::xxxxromstr
                                   00007E48 
    -------------------------------------------------------------------------
CODE_C
  Relative segment, address: CODE 00007E5A - 00007E5B (0x2 bytes), align: 0
  Segment part 43.            Intra module refs:   usrRxPacketCallback
           LOCAL                   ADDRESS         
           =====                   =======         
           usrRxPacketCallback{7}::xxxxromstr
                                   00007E5A 
    -------------------------------------------------------------------------
CODE_C
  Relative segment, address: CODE 00007E5C - 00007E69 (0xe bytes), align: 0
  Segment part 44.            Intra module refs:   usrRxPacketCallback
           LOCAL                   ADDRESS         
           =====                   =======         
           usrRxPacketCallback{8}::xxxxromstr
                                   00007E5C 
    -------------------------------------------------------------------------
CODE_C
  Relative segment, address: CODE 00007E6A - 00007E74 (0xb bytes), align: 0
  Segment part 45.            Intra module refs:   usrRxPacketCallback
           LOCAL                   ADDRESS         
           =====                   =======         
           usrRxPacketCallback{9}::xxxxromstr
                                   00007E6A 
    -------------------------------------------------------------------------
CODE_C
  Relative segment, address: CODE 00007E75 - 00007E7C (0x8 bytes), align: 0
  Segment part 46.            Intra module refs:   usrRxPacketCallback
           LOCAL                   ADDRESS         
           =====                   =======         
           usrRxPacketCallback{10}::xxxxromstr
                                   00007E75 
    -------------------------------------------------------------------------
CODE_C
  Relative segment, address: CODE 00007E7D - 00007E86 (0xa bytes), align: 0
  Segment part 47.            Intra module refs:   usrRxPacketCallback
           LOCAL                   ADDRESS         
           =====                   =======         
           usrRxPacketCallback{11}::xxxxromstr
                                   00007E7D 
    -------------------------------------------------------------------------
CODE_C
  Relative segment, address: CODE 00007E87 - 00007E95 (0xf bytes), align: 0
  Segment part 48.            Intra module refs:   usrRxPacketCallback
           LOCAL                   ADDRESS         
           =====                   =======         
           usrRxPacketCallback{12}::xxxxromstr
                                   00007E87 
    -------------------------------------------------------------------------
NEAR_CODE
  Relative segment, address: CODE 000076E9 - 0000771C (0x34 bytes), align: 0
  Segment part 67.
           ENTRY                   ADDRESS         REF BY
           =====                   =======         ======
           usrGetPrefixCallback    000076E9        ndParseRA (nd)
               calls direct
               stack 1 = 00000000 ( 00000000 )
               stack 2 = 00000000 ( 00000008 )
    -------------------------------------------------------------------------
CODE_C
  Relative segment, address: CODE 00007E96 - 00007EB7 (0x22 bytes), align: 0
  Segment part 49.            Intra module refs:   usrGetPrefixCallback
           LOCAL                   ADDRESS         
           =====                   =======         
           usrGetPrefixCallback{1}::xxxxromstr
                                   00007E96 
    -------------------------------------------------------------------------
CODE_C
  Relative segment, address: CODE 00007EB8 - 00007EC7 (0x10 bytes), align: 0
  Segment part 50.            Intra module refs:   usrGetPrefixCallback
           LOCAL                   ADDRESS         
           =====                   =======         
           usrGetPrefixCallback{2}::xxxxromstr
                                   00007EB8 
    -------------------------------------------------------------------------
NEAR_CODE
  Relative segment, address: CODE 0000771D - 0000771D (0x1 bytes), align: 0
  Segment part 68.
           ENTRY                   ADDRESS         REF BY
           =====                   =======         ======
           usrSlowTimerInt         0000771D        t2_service_IRQ (halStack)
    -------------------------------------------------------------------------
NEAR_CODE
  Relative segment, address: CODE 0000771E - 0000771E (0x1 bytes), align: 0
  Segment part 69.
           ENTRY                   ADDRESS         REF BY
           =====                   =======         ======
           usrIntCallback          0000771E        spp_rf_IRQ (halStack)
    -------------------------------------------------------------------------
XDATA_ID
  Relative segment, address: CODE 00007BC6 - 00007BC9 (0x4 bytes), align: 0
  Segment part 54.            Intra module refs:   __Constant_4baf1
    -------------------------------------------------------------------------
XDATA_ID
  Relative segment, address: CODE 00007BCA - 00007BCD (0x4 bytes), align: 0
  Segment part 56.            Intra module refs:   __Constant_1e461
    -------------------------------------------------------------------------
XDATA_ID
  Relative segment, address: CODE 00007BCE - 00007BD1 (0x4 bytes), align: 0
  Segment part 62.            Intra module refs:   __Constant_1e460

    *************************************************************************

  FILE NAME : F:\6LoWSN\6lowsn_stack\obj\compiletest\iar51_cc2430\Debug\Obj\zep.r51
  PROGRAM MODULE, NAME : zep

  SEGMENTS IN THE MODULE
  ======================
XDATA_Z
  Relative segment, address: XDATA 0000EE4D - 0000EE4D (0x1 bytes), align: 0
  Segment part 6.             Intra module refs:   zepInit
           ENTRY                   ADDRESS         REF BY
           =====                   =======         ======
           zepState                0000EE4D 
    -------------------------------------------------------------------------
XDATA_Z
  Relative segment, address: XDATA 0000EE4E - 0000EE53 (0x6 bytes), align: 0
  Segment part 7.             Intra module refs:   zepFSM
                                                   zepHandleRxPacket
                                                   zepInit
           ENTRY                   ADDRESS         REF BY
           =====                   =======         ======
           zep_pib                 0000EE4E 
    -------------------------------------------------------------------------
NEAR_CODE
  Relative segment, address: CODE 0000771F - 00007733 (0x15 bytes), align: 0
  Segment part 12.
           ENTRY                   ADDRESS         REF BY
           =====                   =======         ======
           zepInit                 0000771F        apsInit (aps)
               stack 1 = 00000000 ( 00000002 )
    -------------------------------------------------------------------------
NEAR_CODE
  Relative segment, address: CODE 00007734 - 0000779E (0x6b bytes), align: 0
  Segment part 13.
           ENTRY                   ADDRESS         REF BY
           =====                   =======         ======
           zepFSM                  00007734        apsFSM (aps)
               calls direct
               stack 1 = 00000000 ( 00000000 )
               stack 2 = 00000000 ( 0000000F )
    -------------------------------------------------------------------------
NEAR_CODE
  Relative segment, address: CODE 0000779F - 0000783A (0x9c bytes), align: 0
  Segment part 14.
           ENTRY                   ADDRESS         REF BY
           =====                   =======         ======
           zepHandleRxPacket       0000779F        apsInjectPacket (aps)
                                                   apsRxFSM (aps)
               calls direct
               stack 1 = 00000000 ( 00000000 )
               stack 2 = 00000000 ( 0000000B )
    -------------------------------------------------------------------------
NEAR_CODE
  Relative segment, address: CODE 0000783B - 000078B3 (0x79 bytes), align: 0
  Segment part 15.            Intra module refs:   zepFmtAlarm
                                                   zepFmtEndDeviceAnnounce
                                                   zepFmtNodeInfoRsp
                                                   zepFmtPing
           LOCAL                   ADDRESS         
           =====                   =======         
           zepCommonFmt            0000783B 
               stack 1 = 00000002 ( 00000002 )
               stack 2 = 0000000B ( 00000000 )
    -------------------------------------------------------------------------
NEAR_CODE
  Relative segment, address: CODE 000078B4 - 000078F7 (0x44 bytes), align: 0
  Segment part 16.
           ENTRY                   ADDRESS         REF BY
           =====                   =======         ======
           zepFmtPing              000078B4        apsFSM (aps)
               calls direct
               stack 1 = 00000000 ( 00000003 )
    -------------------------------------------------------------------------
NEAR_CODE
  Relative segment, address: CODE 000078F8 - 00007922 (0x2b bytes), align: 0
  Segment part 17.
           ENTRY                   ADDRESS         REF BY
           =====                   =======         ======
           zepFmtAlarm             000078F8        apsFSM (aps)
               calls direct
               stack 1 = 00000000 ( 00000003 )
    -------------------------------------------------------------------------
NEAR_CODE
  Relative segment, address: CODE 00007923 - 0000797D (0x5b bytes), align: 0
  Segment part 18.
           ENTRY                   ADDRESS         REF BY
           =====                   =======         ======
           zepFmtEndDeviceAnnounce
                                   00007923        apsFSM (aps)
               calls direct
               stack 1 = 00000000 ( 00000001 )
               stack 2 = 00000000 ( 00000009 )
    -------------------------------------------------------------------------
NEAR_CODE
  Relative segment, address: CODE 0000797E - 00007AA9 (0x12c bytes), align: 0
  Segment part 19.
           ENTRY                   ADDRESS         REF BY
           =====                   =======         ======
           zepFmtNodeInfoRsp       0000797E        apsFSM (aps)
               calls direct
               stack 1 = 00000000 ( 00000001 )
               stack 2 = 00000000 ( 0000000B )

    *************************************************************************

  FILE NAME : C:\Program Files\IAR Systems\Embedded Workbench 4.05 Evaluation version\8051\LIB\CLIB\cl-pli-nlxd-1e16x01.r51
  LIBRARY MODULE, NAME : ?cexit

  SEGMENTS IN THE MODULE
  ======================
CSTART
  Relative segment, address: CODE 00000086 - 0000008A (0x5 bytes), align: 0
  Segment part 0.
           ENTRY                   ADDRESS         REF BY
           =====                   =======         ======
           exit                    00000086        ?call_main (?cmain)
           ?C_EXIT                 00000086 
           ?ROM_MONITOR_NOPS       00000086 

    -------------------------------------------------------------------------
  LIBRARY MODULE, NAME : ?cmain

  SEGMENTS IN THE MODULE
  ======================
CSTART
  Relative segment, address: CODE 0000008B, align: 0
  Segment part 0.
           ENTRY                   ADDRESS         REF BY
           =====                   =======         ======
           ?cmain                  0000008B        Segment part 12 (CSTARTUP)
    -------------------------------------------------------------------------
CSTART
  Relative segment, address: CODE 0000008B - 00000093 (0x9 bytes), align: 0
  Segment part 1.
           ENTRY                   ADDRESS         REF BY
           =====                   =======         ======
           __low_level_init_call   0000008B        __low_level_init (?low_level_init)
    -------------------------------------------------------------------------
CSTART
  Relative segment, address: CODE 00000094 - 000000A3 (0x10 bytes), align: 0
  Segment part 11.
           ENTRY                   ADDRESS         REF BY
           =====                   =======         ======
           __INIT_XDATA_Z          00000094        a_adp_rx_data (adp)
                                                   a_adp_service (adp)
                                                   a_adp_tx_data (adp)
                                                   a_aps_rx_data (aps)
                                                   a_aps_service (aps)
                                                   a_aps_tx_data (aps)
                                                   a_mac_rx_data (mac)
                                                   a_mac_service (mac)
                                                   a_mac_tx_data (mac)
                                                   a_nwk_rx_data (nwk)
                                                   a_nwk_service (nwk)
                                                   a_nwk_tx_data (nwk)
                                                   a_phy_service (phy)
                                                   addr (nd)
                                                   adpDSN (adp)
                                                   adpRxState (adp)
                                                   adpState (adp)
                                                   adp_pib (adp)
                                                   adp_retries (adp)
                                                   adp_utility_timer (adp)
                                                   apsEndPoints (aps)
                                                   apsRxState (aps)
                                                   apsState (aps)
                                                   apsTxFSM_status (aps)
                                                   aps_pib (aps)
                                                   debug_level (debug)
                                                   dstIPADDR (test_pingpong)
                                                   first_packet (test_pingpong)
                                                   ipaddr (nd)
                                                   last_tx_start (test_pingpong)
                                                   loc_fipaddr (ds)
                                                   local_radio_flags (halStack)
                                                   locmaddr (ds)
                                                   locprefix (ds)
                                                   locuaddr (ds)
                                                   lowsn_ds6_if (ds)
                                                   lowsn_ds6_prefix_list (ds)
                                                   lowsn_ext_bitmap (nwk)
                                                   lowsn_ext_len (nwk)
                                                   lowsn_len (nwk)
                                                   lowsn_next_hdr (nwk)
                                                   macRxState (mac)
                                                   macState (mac)
                                                   macTxFSM_status (mac)
                                                   mac_addr_tbl (halNeighbor)
                                                   mac_pib (mac)
                                                   mac_utility_timer (mac)
                                                   mem_heap (memalloc)
                                                   my_timer (test_pingpong)
                                                   numTimeouts (test_pingpong)
                                                   nwkRxState (nwk)
                                                   nwkState (nwk)
                                                   nwk_pib (nwk)
                                                   nwk_utility_timer (nwk)
                                                   payload (test_pingpong)
                                                   phyState (phy)
                                                   phy_pib (phy)
                                                   ping_cnt (test_pingpong)
                                                   pmtu (nwk)
                                                   ppState (test_pingpong)
                                                   prefix (nd)
                                                   rxFlag (test_pingpong)
                                                   serio_rxBuff (halStack)
                                                   serio_rxHead (halStack)
                                                   serio_rxTail (halStack)
                                                   sw_state (evboard)
                                                   system_clock (halStack)
                                                   tmpTxBuff (phy)
                                                   zepState (zep)
                                                   zep_pib (zep)
    -------------------------------------------------------------------------
CSTART
  Relative segment, address: CODE 000000A4 - 000000CC (0x29 bytes), align: 0
  Segment part 28.
           ENTRY                   ADDRESS         REF BY
           =====                   =======         ======
           __INIT_XDATA_I          000000A4        __Constant_0 (adp)
                                                   __Constant_1 (halStack)
                                                   __Constant_10 (halStack)
                                                   __Constant_12d (phy)
                                                   __Constant_1347 (console)
                                                   __Constant_14 (halStack)
                                                   __Constant_186a (halStack)
                                                   __Constant_1e460 (test_pingpong)
                                                   __Constant_1e461 (test_pingpong)
                                                   __Constant_3070 (aps)
                                                   __Constant_3071 (adp)
                                                   __Constant_36 (mac)
                                                   __Constant_3e8 (ds)
                                                   __Constant_4baf1 (test_pingpong)
                                                   __Constant_4d9 (mac)
                                                   __Constant_7530 (ds)
                                                   __Constant_78 (mac)
                                                   __Constant_7f (ds)
                                                   __Constant_f (halStack)
                                                   __Constant_f231 (nwk)
                                                   __Constant_fffff (adp)
                                                   __Constant_ffffffff (halStack)
    -------------------------------------------------------------------------
CSTART
  Relative segment, address: CODE 000000CD - 000000F5 (0x29 bytes), align: 0
  Segment part 31.            Intra module refs:   __low_level_init_call
           ENTRY                   ADDRESS         REF BY
           =====                   =======         ======
           __INIT_IXDATA_I         000000CD 
    -------------------------------------------------------------------------
CSTART
  Relative segment, address: CODE 000000F6 - 000000FB (0x6 bytes), align: 0
  Segment part 32.            Intra module refs:   ?cmain
           ENTRY                   ADDRESS         REF BY
           =====                   =======         ======
           ?call_main              000000F6 

    -------------------------------------------------------------------------
  LIBRARY MODULE, NAME : CSTARTUP

  SEGMENTS IN THE MODULE
  ======================
REGISTERS
  Relative segment, address: DATA 00000000, align: 0
  Segment part 0.             Intra module refs:   Segment part 6
           ENTRY                   ADDRESS         REF BY
           =====                   =======         ======
           ?REGISTERS              00000000 
    -------------------------------------------------------------------------
ISTACK
  Relative segment, address: IDATA 000000C0, align: 0
  Segment part 1.             Intra module refs:   Segment part 6
           ENTRY                   ADDRESS         REF BY
           =====                   =======         ======
           ?ISTACK_START           000000C0 
    -------------------------------------------------------------------------
XSTACK
  Relative segment, address: XDATA 0000E000, align: 0
  Segment part 3.             Intra module refs:   ?RESET_XSP
           ENTRY                   ADDRESS         REF BY
           =====                   =======         ======
           ?XSTACK_START           0000E000 
    -------------------------------------------------------------------------
INTVEC
  Common segment, address: CODE 00000000 - 00000002 (0x3 bytes), align: 0
  Segment part 5. ROOT.       Intra module refs:   Segment part 6
    -------------------------------------------------------------------------
CSTART
  Relative segment, address: CODE 000000FC - 00000101 (0x6 bytes), align: 0
  Segment part 6. ROOT.       Intra module refs:   Segment part 5
           ENTRY                   ADDRESS         REF BY
           =====                   =======         ======
           __program_start         000000FC        Absolute parts (?ABS_ENTRY_MOD)
           ?RESET_SP               000000FF 
    -------------------------------------------------------------------------
CSTART
  Relative segment, address: CODE 00000102 - 00000107 (0x6 bytes), align: 0
  Segment part 8.
           ENTRY                   ADDRESS         REF BY
           =====                   =======         ======
           ?RESET_XSP              00000102        ?XSP (VIRTUAL_REGISTERS)
    -------------------------------------------------------------------------
CSTART
  Relative segment, address: CODE 00000108 - 0000010A (0x3 bytes), align: 0
  Segment part 12.            Intra module refs:   Absolute parts

    -------------------------------------------------------------------------
  LIBRARY MODULE, NAME : VIRTUAL_REGISTERS

  SEGMENTS IN THE MODULE
  ======================
BREG
  Relative segment, address: BIT 00000020.0 - 00000020.7 (0x8 bits), align: 0
  Segment part 0.
           ENTRY                   ADDRESS         REF BY
           =====                   =======         ======
           ?B0                     00000020.0      Absolute parts (CSTARTUP)
    -------------------------------------------------------------------------
VREG
  Relative segment, address: DATA 00000008, align: 0
  Segment part 1.
           ENTRY                   ADDRESS         REF BY
           =====                   =======         ======
           ?V0                     00000008        ?FUNC_ENTER_XDATA (?FUNC_ENTER_XDATA)
                                                   ?FUNC_LEAVE_XDATA (?FUNC_LEAVE_XDATA)
                                                   ?INTERRUPT_ENTER_XSP (?INTERRUPT_ENTER_XSP)
                                                   ?INTERRUPT_LEAVE_XSP (?INTERRUPT_LEAVE_XSP)
                                                   MemAlloc (memalloc)
                                                   MemFree (memalloc)
                                                   MemInit (memalloc)
                                                   PingPong (test_pingpong)
                                                   adpFSM (adp)
                                                   adpFindParentSADDR (adp)
                                                   adpFmtCompHeader (adp)
                                                   adpGetHopsToDest (adp)
                                                   adpParseCompHdr (adp)
                                                   adpTxCompData (adp)
                                                   aplFmtSendIPMSG (aps)
                                                   aplMacTicksToUs (aps)
                                                   apsInit (aps)
                                                   apsInjectPacket (aps)
                                                   apsInjectTxPacket (aps)
                                                   apsTxData (aps)
                                                   apsTxFSM (aps)
                                                   apsTxIPData (aps)
                                                   conPrintConfig (console)
                                                   conPrintIP6ADDR_bytes (console)
                                                   conPrintIP6ADDR_dbytes (console)
                                                   conPrintLADDR_bytes (console)
                                                   conPrintUINT32 (console)
                                                   doIEEE_backoff (halStack)
                                                   ds6FindSrcIP (ds)
                                                   ds6Init (ds)
                                                   ds6MatchNum (ds)
                                                   ds6TestOnLink (ds)
                                                   evbIntCallback (evboard)
                                                   halAdcSampleSingle (halStack)
                                                   halGetMACTimer (halStack)
                                                   halMacTicksToUs (halStack)
                                                   halWait (halStack)
                                                   icmpCommonFmt (icmpv6)
                                                   icmpFmtEchoReply (icmpv6)
                                                   lowsn_ds6_list_loop (ds)
                                                   lowsn_ds6_maddr_add (ds)
                                                   lowsn_ds6_prefix_add (ds)
                                                   lowsn_ds6_prefix_lookup (ds)
                                                   lowsn_ds6_uaddr_add (ds)
                                                   lowsn_ds6_uaddr_lookup (ds)
                                                   macCheckDataRejection (mac)
                                                   macFSM (mac)
                                                   macInit (mac)
                                                   macInitRadio (mac)
                                                   macParseHdr (mac)
                                                   macRxFSM (mac)
                                                   macTxCallback (mac)
                                                   macTxData (mac)
                                                   macTxFSM (mac)
                                                   main (test_pingpong)
                                                   memcpy (?memcpy)
                                                   ndFmtRS (nd)
                                                   ndParseRA (nd)
                                                   ntCheckAddressMapEntry (neighbor)
                                                   ntNewAddressMapEntry (neighbor)
                                                   nwkFSM (nwk)
                                                   nwkParseHdr (nwk)
                                                   nwkRxHandoff (nwk)
                                                   nwkTxData (nwk)
                                                   phyFSM (phy)
                                                   phyTxStartCallBack (phy)
                                                   spp_rf_IRQ (halStack)
                                                   stimer_set (halStack)
                                                   sysclock_get (halStack)
                                                   t2_service_IRQ (halStack)
                                                   urx0_service_IRQ (halStack)
                                                   zepFSM (zep)
                                                   zepFmtEndDeviceAnnounce (zep)
                                                   zepFmtNodeInfoRsp (zep)
                                                   zepHandleRxPacket (zep)
    -------------------------------------------------------------------------
XSP
  Relative segment, address: DATA 00000010 - 00000011 (0x2 bytes), align: 0
  Segment part 3.
           ENTRY                   ADDRESS         REF BY
           =====                   =======         ======
           ?XSP                    00000010        ?ADD_XSTACK_DISP0_8 (?ADD_XSTACK_DISP8)
                                                   ?ALLOC_XSTACK8 (?ALLOC_XSTACK8)
                                                   ?DEALLOC_XSTACK8 (?DEALLOC_XSTACK8)
                                                   ?FUNC_ENTER_XDATA (?FUNC_ENTER_XDATA)
                                                   ?FUNC_LEAVE_XDATA (?FUNC_LEAVE_XDATA)
                                                   ?INTERRUPT_ENTER_XSP (?INTERRUPT_ENTER_XSP)
                                                   ?INTERRUPT_LEAVE_XSP (?INTERRUPT_LEAVE_XSP)
                                                   ?PUSH_XSTACK8_X (?PUSH_XSTACK8_X)
                                                   ?RESET_XSP (CSTARTUP)
                                                   ?XSTACK_DISP0_8 (?XSTACK_DISP8)
                                                   MemFree (memalloc)
                                                   adpGetHopsToDest (adp)
                                                   conPrintConfig (console)
                                                   doIEEE_backoff (halStack)
                                                   getJoystickDirection (evboard)
                                                   halAdcSampleSingle (halStack)
                                                   halInitRadio (halStack)
                                                   halSetRadioIEEEAddress (halStack)
                                                   lowsn_ds6_list_loop (ds)
                                                   ntAddOurselvesToAddressTable (neighbor)
                                                   ntNewAddressMapEntry (neighbor)
                                                   spp_rf_IRQ (halStack)

    -------------------------------------------------------------------------
  LIBRARY MODULE, NAME : ?L_EQ_X

  SEGMENTS IN THE MODULE
  ======================
RCODE
  Relative segment, address: CODE 0000010E - 00000110 (0x3 bytes), align: 0
  Segment part 0. ROOT.
           ENTRY                   ADDRESS         REF BY
           =====                   =======         ======
           ?L_EQ_X_REW             0000010E 
    -------------------------------------------------------------------------
RCODE
  Relative segment, address: CODE 00000111 - 00000125 (0x15 bytes), align: 0
  Segment part 1. ROOT.       Intra module refs:   ?L_EQ_X_REW
           ENTRY                   ADDRESS         REF BY
           =====                   =======         ======
           ?L_EQ_X                 00000111        adpFmtCompHeader (adp)
                                                   halWait (halStack)
                                                   lowsn_ds6_prefix_add (ds)
                                                   lowsn_ds6_uaddr_add (ds)
                                                   stimer_set (halStack)

    -------------------------------------------------------------------------
  LIBRARY MODULE, NAME : ?UL_GT

  SEGMENTS IN THE MODULE
  ======================
RCODE
  Relative segment, address: CODE 00000126 - 00000128 (0x3 bytes), align: 0
  Segment part 0. ROOT.
           ENTRY                   ADDRESS         REF BY
           =====                   =======         ======
           ?UL_GT_REW              00000126 
    -------------------------------------------------------------------------
RCODE
  Relative segment, address: CODE 00000129 - 00000138 (0x10 bytes), align: 0
  Segment part 1. ROOT.       Intra module refs:   ?UL_GT_REW
           ENTRY                   ADDRESS         REF BY
           =====                   =======         ======
           ?UL_GT                  00000129        PingPong (test_pingpong)
                                                   adpFSM (adp)
                                                   doIEEE_backoff (halStack)
                                                   macFSM (mac)
                                                   main (test_pingpong)
                                                   nwkFSM (nwk)
                                                   phyFSM (phy)
                                                   zepFSM (zep)

    -------------------------------------------------------------------------
  LIBRARY MODULE, NAME : ?UL_GT_X

  SEGMENTS IN THE MODULE
  ======================
RCODE
  Relative segment, address: CODE 00000139 - 0000013B (0x3 bytes), align: 0
  Segment part 0. ROOT.
           ENTRY                   ADDRESS         REF BY
           =====                   =======         ======
           ?UL_GT_X_REW            00000139 
    -------------------------------------------------------------------------
RCODE
  Relative segment, address: CODE 0000013C - 0000014B (0x10 bytes), align: 0
  Segment part 1. ROOT.       Intra module refs:   ?UL_GT_X_REW
           ENTRY                   ADDRESS         REF BY
           =====                   =======         ======
           ?UL_GT_X                0000013C        apsTxFSM (aps)
                                                   macTxFSM (mac)

    -------------------------------------------------------------------------
  LIBRARY MODULE, NAME : ?L_MUL

  SEGMENTS IN THE MODULE
  ======================
RCODE
  Relative segment, address: CODE 0000014C - 0000014E (0x3 bytes), align: 0
  Segment part 0. ROOT.
           ENTRY                   ADDRESS         REF BY
           =====                   =======         ======
           ?L_MUL                  0000014C        halMacTicksToUs (halStack)
    -------------------------------------------------------------------------
RCODE
  Relative segment, address: CODE 0000014F - 000001CB (0x7d bytes), align: 0
  Segment part 1. ROOT.       Intra module refs:   ?L_MUL
           ENTRY                   ADDRESS         REF BY
           =====                   =======         ======
           ?L_MUL_REW              0000014F 

    -------------------------------------------------------------------------
  LIBRARY MODULE, NAME : ?UL_DIV_MOD

  SEGMENTS IN THE MODULE
  ======================
RCODE
  Relative segment, address: CODE 000001CC, align: 0
  Segment part 0. ROOT.
    -------------------------------------------------------------------------
RCODE
  Relative segment, address: CODE 000001CC - 0000023B (0x70 bytes), align: 0
  Segment part 1. ROOT.
           ENTRY                   ADDRESS         REF BY
           =====                   =======         ======
           ?UL_DIV_MOD             000001CC        halMacTicksToUs (halStack)

    -------------------------------------------------------------------------
  LIBRARY MODULE, NAME : ?SL_SHR

  SEGMENTS IN THE MODULE
  ======================
RCODE
  Relative segment, address: CODE 0000023C - 00000241 (0x6 bytes), align: 0
  Segment part 0. ROOT.
           ENTRY                   ADDRESS         REF BY
           =====                   =======         ======
           ?SL_SHR_REW             0000023C 
    -------------------------------------------------------------------------
RCODE
  Relative segment, address: CODE 00000242 - 00000246 (0x5 bytes), align: 0
  Segment part 1. ROOT.       Intra module refs:   Segment part 2
           ENTRY                   ADDRESS         REF BY
           =====                   =======         ======
           ?SL_SHR                 00000242 
    -------------------------------------------------------------------------
RCODE
  Relative segment, address: CODE 00000247 - 0000025B (0x15 bytes), align: 0
  Segment part 2. ROOT.       Intra module refs:   ?SL_SHR
                                                   ?SL_SHR_REW

    -------------------------------------------------------------------------
  LIBRARY MODULE, NAME : ?UL_SHR

  SEGMENTS IN THE MODULE
  ======================
RCODE
  Relative segment, address: CODE 0000025C - 00000261 (0x6 bytes), align: 0
  Segment part 0. ROOT.
           ENTRY                   ADDRESS         REF BY
           =====                   =======         ======
           ?UL_SHR_REW             0000025C 
    -------------------------------------------------------------------------
RCODE
  Relative segment, address: CODE 00000262 - 00000266 (0x5 bytes), align: 0
  Segment part 1. ROOT.       Intra module refs:   Segment part 2
           ENTRY                   ADDRESS         REF BY
           =====                   =======         ======
           ?UL_SHR                 00000262        adpTxCompData (adp)
                                                   conPrintUINT32 (console)
                                                   halWait (halStack)
                                                   nwkTxData (nwk)
                                                   t2_service_IRQ (halStack)
    -------------------------------------------------------------------------
RCODE
  Relative segment, address: CODE 00000267 - 0000027A (0x14 bytes), align: 0
  Segment part 2. ROOT.       Intra module refs:   ?UL_SHR
                                                   ?UL_SHR_REW

    -------------------------------------------------------------------------
  LIBRARY MODULE, NAME : ?L_SHL

  SEGMENTS IN THE MODULE
  ======================
RCODE
  Relative segment, address: CODE 0000027B - 00000280 (0x6 bytes), align: 0
  Segment part 0. ROOT.
           ENTRY                   ADDRESS         REF BY
           =====                   =======         ======
           ?L_SHL                  0000027B        adpParseCompHdr (adp)
                                                   doIEEE_backoff (halStack)
                                                   halGetMACTimer (halStack)
                                                   nwkParseHdr (nwk)
                                                   t2_service_IRQ (halStack)
    -------------------------------------------------------------------------
RCODE
  Relative segment, address: CODE 00000281 - 00000285 (0x5 bytes), align: 0
  Segment part 1. ROOT.       Intra module refs:   Segment part 2
           ENTRY                   ADDRESS         REF BY
           =====                   =======         ======
           ?L_SHL_REW              00000281 
    -------------------------------------------------------------------------
RCODE
  Relative segment, address: CODE 00000286 - 00000299 (0x14 bytes), align: 0
  Segment part 2. ROOT.       Intra module refs:   ?L_SHL
                                                   ?L_SHL_REW

    -------------------------------------------------------------------------
  LIBRARY MODULE, NAME : ?L_ADD

  SEGMENTS IN THE MODULE
  ======================
RCODE
  Relative segment, address: CODE 0000029A - 0000029C (0x3 bytes), align: 0
  Segment part 0. ROOT.
           ENTRY                   ADDRESS         REF BY
           =====                   =======         ======
           ?L_ADD_REW              0000029A 
    -------------------------------------------------------------------------
RCODE
  Relative segment, address: CODE 0000029D - 000002AF (0x13 bytes), align: 0
  Segment part 1. ROOT.       Intra module refs:   ?L_ADD_REW
           ENTRY                   ADDRESS         REF BY
           =====                   =======         ======
           ?L_ADD                  0000029D        halGetMACTimer (halStack)
                                                   halWait (halStack)
                                                   stimer_set (halStack)
                                                   t2_service_IRQ (halStack)

    -------------------------------------------------------------------------
  LIBRARY MODULE, NAME : ?L_ADD_X

  SEGMENTS IN THE MODULE
  ======================
RCODE
  Relative segment, address: CODE 000002B0 - 000002B2 (0x3 bytes), align: 0
  Segment part 0. ROOT.
           ENTRY                   ADDRESS         REF BY
           =====                   =======         ======
           ?L_ADD_X_REW            000002B0 
    -------------------------------------------------------------------------
RCODE
  Relative segment, address: CODE 000002B3 - 000002C5 (0x13 bytes), align: 0
  Segment part 1. ROOT.       Intra module refs:   ?L_ADD_X_REW
           ENTRY                   ADDRESS         REF BY
           =====                   =======         ======
           ?L_ADD_X                000002B3        doIEEE_backoff (halStack)
                                                   halWait (halStack)
                                                   t2_service_IRQ (halStack)

    -------------------------------------------------------------------------
  LIBRARY MODULE, NAME : ?L_ADD_TO_X

  SEGMENTS IN THE MODULE
  ======================
RCODE
  Relative segment, address: CODE 000002C6 - 000002C8 (0x3 bytes), align: 0
  Segment part 0. ROOT.
           ENTRY                   ADDRESS         REF BY
           =====                   =======         ======
           ?L_ADD_TO_X_REW         000002C6 
    -------------------------------------------------------------------------
RCODE
  Relative segment, address: CODE 000002C9 - 000002DB (0x13 bytes), align: 0
  Segment part 1. ROOT.       Intra module refs:   ?L_ADD_TO_X_REW
           ENTRY                   ADDRESS         REF BY
           =====                   =======         ======
           ?L_ADD_TO_X             000002C9        adpParseCompHdr (adp)
                                                   nwkParseHdr (nwk)

    -------------------------------------------------------------------------
  LIBRARY MODULE, NAME : ?L_SUB

  SEGMENTS IN THE MODULE
  ======================
RCODE
  Relative segment, address: CODE 000002DC - 000002DE (0x3 bytes), align: 0
  Segment part 0. ROOT.
           ENTRY                   ADDRESS         REF BY
           =====                   =======         ======
           ?L_SUB_REW              000002DC 
    -------------------------------------------------------------------------
RCODE
  Relative segment, address: CODE 000002DF - 000002F2 (0x14 bytes), align: 0
  Segment part 1. ROOT.       Intra module refs:   ?L_SUB_REW
           ENTRY                   ADDRESS         REF BY
           =====                   =======         ======
           ?L_SUB                  000002DF 

    -------------------------------------------------------------------------
  LIBRARY MODULE, NAME : ?L_SUB_X

  SEGMENTS IN THE MODULE
  ======================
RCODE
  Relative segment, address: CODE 000002F3 - 000002F5 (0x3 bytes), align: 0
  Segment part 0. ROOT.
           ENTRY                   ADDRESS         REF BY
           =====                   =======         ======
           ?L_SUB_X_REW            000002F3 
    -------------------------------------------------------------------------
RCODE
  Relative segment, address: CODE 000002F6 - 0000030D (0x18 bytes), align: 0
  Segment part 1. ROOT.       Intra module refs:   ?L_SUB_X_REW
           ENTRY                   ADDRESS         REF BY
           =====                   =======         ======
           ?L_SUB_X                000002F6        PingPong (test_pingpong)
                                                   adpFSM (adp)
                                                   apsTxFSM (aps)
                                                   doIEEE_backoff (halStack)
                                                   macFSM (mac)
                                                   macTxFSM (mac)
                                                   main (test_pingpong)
                                                   nwkFSM (nwk)
                                                   phyFSM (phy)
                                                   zepFSM (zep)

    -------------------------------------------------------------------------
  LIBRARY MODULE, NAME : ?L_AND_X

  SEGMENTS IN THE MODULE
  ======================
RCODE
  Relative segment, address: CODE 0000030E - 00000310 (0x3 bytes), align: 0
  Segment part 0. ROOT.
           ENTRY                   ADDRESS         REF BY
           =====                   =======         ======
           ?L_AND_X_REW            0000030E 
    -------------------------------------------------------------------------
RCODE
  Relative segment, address: CODE 00000311 - 00000323 (0x13 bytes), align: 0
  Segment part 1. ROOT.       Intra module refs:   ?L_AND_X_REW
           ENTRY                   ADDRESS         REF BY
           =====                   =======         ======
           ?L_AND_X                00000311        PingPong (test_pingpong)
                                                   adpFSM (adp)
                                                   apsTxFSM (aps)
                                                   doIEEE_backoff (halStack)
                                                   halGetMACTimer (halStack)
                                                   macFSM (mac)
                                                   macTxFSM (mac)
                                                   main (test_pingpong)
                                                   nwkFSM (nwk)
                                                   phyFSM (phy)
                                                   t2_service_IRQ (halStack)
                                                   zepFSM (zep)

    -------------------------------------------------------------------------
  LIBRARY MODULE, NAME : ?L_IOR

  SEGMENTS IN THE MODULE
  ======================
RCODE
  Relative segment, address: CODE 00000324 - 00000326 (0x3 bytes), align: 0
  Segment part 0. ROOT.
           ENTRY                   ADDRESS         REF BY
           =====                   =======         ======
           ?L_IOR_REW              00000324 
    -------------------------------------------------------------------------
RCODE
  Relative segment, address: CODE 00000327 - 00000339 (0x13 bytes), align: 0
  Segment part 1. ROOT.       Intra module refs:   ?L_IOR_REW
           ENTRY                   ADDRESS         REF BY
           =====                   =======         ======
           ?L_IOR                  00000327 

    -------------------------------------------------------------------------
  LIBRARY MODULE, NAME : ?L_MOV_X

  SEGMENTS IN THE MODULE
  ======================
RCODE
  Relative segment, address: CODE 0000033A - 00000348 (0xf bytes), align: 0
  Segment part 0. ROOT.
           ENTRY                   ADDRESS         REF BY
           =====                   =======         ======
           ?L_MOV_X                0000033A        PingPong (test_pingpong)
                                                   adpFSM (adp)
                                                   adpFmtCompHeader (adp)
                                                   adpParseCompHdr (adp)
                                                   adpTxCompData (adp)
                                                   apsInit (aps)
                                                   apsTxIPData (aps)
                                                   conPrintConfig (console)
                                                   doIEEE_backoff (halStack)
                                                   ds6Init (ds)
                                                   halMacTicksToUs (halStack)
                                                   icmpCommonFmt (icmpv6)
                                                   lowsn_ds6_prefix_add (ds)
                                                   lowsn_ds6_uaddr_add (ds)
                                                   macFSM (mac)
                                                   macInit (mac)
                                                   macInitRadio (mac)
                                                   main (test_pingpong)
                                                   ndFmtRS (nd)
                                                   nwkFSM (nwk)
                                                   nwkRxHandoff (nwk)
                                                   nwkTxData (nwk)
                                                   phyFSM (phy)
                                                   stimer_set (halStack)
                                                   sysclock_get (halStack)
                                                   zepFSM (zep)

    -------------------------------------------------------------------------
  LIBRARY MODULE, NAME : ?L_MOV_TO_X

  SEGMENTS IN THE MODULE
  ======================
RCODE
  Relative segment, address: CODE 00000349 - 00000352 (0xa bytes), align: 0
  Segment part 0. ROOT.
           ENTRY                   ADDRESS         REF BY
           =====                   =======         ======
           ?L_MOV_TO_X_REWX        00000349 
    -------------------------------------------------------------------------
RCODE
  Relative segment, address: CODE 00000353 - 00000355 (0x3 bytes), align: 0
  Segment part 1. ROOT.       Intra module refs:   ?L_MOV_TO_X_REWX
           ENTRY                   ADDRESS         REF BY
           =====                   =======         ======
           ?L_MOV_TO_X_REW         00000353 
    -------------------------------------------------------------------------
RCODE
  Relative segment, address: CODE 00000356 - 00000364 (0xf bytes), align: 0
  Segment part 2. ROOT.       Intra module refs:   ?L_MOV_TO_X_REW
           ENTRY                   ADDRESS         REF BY
           =====                   =======         ======
           ?L_MOV_TO_X             00000356        PingPong (test_pingpong)
                                                   adpFSM (adp)
                                                   apsInit (aps)
                                                   apsTxData (aps)
                                                   apsTxFSM (aps)
                                                   apsTxIPData (aps)
                                                   doIEEE_backoff (halStack)
                                                   ds6Init (ds)
                                                   icmpCommonFmt (icmpv6)
                                                   macFSM (mac)
                                                   macInit (mac)
                                                   macInitRadio (mac)
                                                   macRxFSM (mac)
                                                   macTxCallback (mac)
                                                   main (test_pingpong)
                                                   ndFmtRS (nd)
                                                   nwkFSM (nwk)
                                                   nwkParseHdr (nwk)
                                                   nwkRxHandoff (nwk)
                                                   nwkTxData (nwk)
                                                   phyTxStartCallBack (phy)
                                                   stimer_set (halStack)
                                                   zepFSM (zep)
                                                   zepHandleRxPacket (zep)

    -------------------------------------------------------------------------
  LIBRARY MODULE, NAME : ?MOVE_LONG8_XDATA_IDATA

  SEGMENTS IN THE MODULE
  ======================
RCODE
  Relative segment, address: CODE 00000365 - 00000371 (0xd bytes), align: 0
  Segment part 0. ROOT.
           ENTRY                   ADDRESS         REF BY
           =====                   =======         ======
           ?MOVE_LONG8_XDATA_IDATA
                                   00000365        ?PUSH_XSTACK_I (?PUSH_XSTACK_I)

    -------------------------------------------------------------------------
  LIBRARY MODULE, NAME : ?MOVE_LONG8_XDATA_XDATA

  SEGMENTS IN THE MODULE
  ======================
RCODE
  Relative segment, address: CODE 00000372 - 00000392 (0x21 bytes), align: 0
  Segment part 0. ROOT.
           ENTRY                   ADDRESS         REF BY
           =====                   =======         ======
           ?MOVE_LONG8_XDATA_XDATA
                                   00000372        ?PUSH_XSTACK8_X (?PUSH_XSTACK8_X)
                                                   aplFmtSendIPMSG (aps)
                                                   apsRxHandoff (aps)
                                                   apsTxIPData (aps)
                                                   ds6FindSrcIP (ds)
                                                   halInitRadio (halStack)
                                                   lowsn_ds6_maddr_add (ds)
                                                   lowsn_ds6_prefix_add (ds)
                                                   lowsn_ds6_uaddr_add (ds)
                                                   ndParseRA (nd)
                                                   nwkRxHandoff (nwk)
                                                   nwkTxData (nwk)
                                                   usrRxPacketCallback (test_pingpong)

    -------------------------------------------------------------------------
  LIBRARY MODULE, NAME : ?SS_SHR

  SEGMENTS IN THE MODULE
  ======================
RCODE
  Relative segment, address: CODE 00000393 - 00000396 (0x4 bytes), align: 0
  Segment part 0. ROOT.
           ENTRY                   ADDRESS         REF BY
           =====                   =======         ======
           ?SS_SHR_REW             00000393 
    -------------------------------------------------------------------------
RCODE
  Relative segment, address: CODE 00000397 - 00000399 (0x3 bytes), align: 0
  Segment part 1. ROOT.       Intra module refs:   Segment part 2
           ENTRY                   ADDRESS         REF BY
           =====                   =======         ======
           ?SS_SHR                 00000397        halAdcSampleSingle (halStack)
    -------------------------------------------------------------------------
RCODE
  Relative segment, address: CODE 0000039A - 000003A6 (0xd bytes), align: 0
  Segment part 2. ROOT.       Intra module refs:   ?SS_SHR
                                                   ?SS_SHR_REW

    -------------------------------------------------------------------------
  LIBRARY MODULE, NAME : ?S_SHL

  SEGMENTS IN THE MODULE
  ======================
RCODE
  Relative segment, address: CODE 000003A7 - 000003A9 (0x3 bytes), align: 0
  Segment part 0. ROOT.
           ENTRY                   ADDRESS         REF BY
           =====                   =======         ======
           ?S_SHL                  000003A7        evbIntCallback (evboard)
                                                   halAdcSampleSingle (halStack)
                                                   halWait (halStack)
                                                   icmpFmtEchoReply (icmpv6)
    -------------------------------------------------------------------------
RCODE
  Relative segment, address: CODE 000003AA - 000003AC (0x3 bytes), align: 0
  Segment part 1. ROOT.       Intra module refs:   Segment part 2
           ENTRY                   ADDRESS         REF BY
           =====                   =======         ======
           ?S_SHL_REW              000003AA 
    -------------------------------------------------------------------------
RCODE
  Relative segment, address: CODE 000003AD - 000003B9 (0xd bytes), align: 0
  Segment part 2. ROOT.       Intra module refs:   ?S_SHL
                                                   ?S_SHL_REW

    -------------------------------------------------------------------------
  LIBRARY MODULE, NAME : ?ALLOC_XSTACK8

  SEGMENTS IN THE MODULE
  ======================
RCODE
  Relative segment, address: CODE 000003BA - 000003C8 (0xf bytes), align: 0
  Segment part 0. ROOT.
           ENTRY                   ADDRESS         REF BY
           =====                   =======         ======
           ?ALLOC_XSTACK8          000003BA        MemFree (memalloc)
                                                   adpGetHopsToDest (adp)
                                                   conPrintConfig (console)
                                                   doIEEE_backoff (halStack)
                                                   getJoystickDirection (evboard)
                                                   halAdcSampleSingle (halStack)
                                                   halSetRadioIEEEAddress (halStack)
                                                   lowsn_ds6_list_loop (ds)
                                                   ntAddOurselvesToAddressTable (neighbor)
                                                   ntNewAddressMapEntry (neighbor)
                                                   nwkTxData (nwk)
                                                   spp_rf_IRQ (halStack)

    -------------------------------------------------------------------------
  LIBRARY MODULE, NAME : ?DEALLOC_XSTACK8

  SEGMENTS IN THE MODULE
  ======================
RCODE
  Relative segment, address: CODE 000003C9 - 000003DB (0x13 bytes), align: 0
  Segment part 0. ROOT.
           ENTRY                   ADDRESS         REF BY
           =====                   =======         ======
           ?DEALLOC_XSTACK8        000003C9        MemFree (memalloc)
                                                   MemInit (memalloc)
                                                   PingPong (test_pingpong)
                                                   adpGetHopsToDest (adp)
                                                   adpParseCompHdr (adp)
                                                   conPrintConfig (console)
                                                   doIEEE_backoff (halStack)
                                                   ds6Init (ds)
                                                   ds6LocalIPFrom16 (ds)
                                                   ds6TestOnLink (ds)
                                                   getJoystickDirection (evboard)
                                                   halAdcSampleSingle (halStack)
                                                   halSetRadioIEEEAddress (halStack)
                                                   icmpCommonFmt (icmpv6)
                                                   lowsn_ds6_list_loop (ds)
                                                   lowsn_ds6_maddr_add (ds)
                                                   lowsn_ds6_prefix_add (ds)
                                                   lowsn_ds6_prefix_lookup (ds)
                                                   lowsn_ds6_uaddr_add (ds)
                                                   lowsn_ds6_uaddr_lookup (ds)
                                                   main (test_pingpong)
                                                   ndParseRA (nd)
                                                   ntAddOurselvesToAddressTable (neighbor)
                                                   ntNewAddressMapEntry (neighbor)
                                                   nwkTxData (nwk)
                                                   phyFSM (phy)
                                                   spp_rf_IRQ (halStack)

    -------------------------------------------------------------------------
  LIBRARY MODULE, NAME : ?ADD_XSTACK_DISP8

  SEGMENTS IN THE MODULE
  ======================
RCODE
  Relative segment, address: CODE 000003DC - 000003EF (0x14 bytes), align: 0
  Segment part 1. ROOT.
           ENTRY                   ADDRESS         REF BY
           =====                   =======         ======
           ?ADD_XSTACK_DISP0_8     000003DC        ?PUSH_XSTACK_I (?PUSH_XSTACK_I)

    -------------------------------------------------------------------------
  LIBRARY MODULE, NAME : ?XSTACK_DISP8

  SEGMENTS IN THE MODULE
  ======================
RCODE
  Relative segment, address: CODE 000003F0 - 000003F9 (0xa bytes), align: 0
  Segment part 1. ROOT.
           ENTRY                   ADDRESS         REF BY
           =====                   =======         ======
           ?XSTACK_DISP0_8         000003F0        aplFmtSendIPMSG (aps)
                                                   ds6GenInterfaceID16 (ds)
                                                   getJoystickDirection (evboard)
                                                   halSetRadioIEEEAddress (halStack)
                                                   lowsn_ds6_list_loop (ds)
                                                   lowsn_ds6_prefix_add (ds)
                                                   lowsn_ds6_uaddr_add (ds)
                                                   memcmp (?memcmp)
                                                   memcpy (?memcpy)
                                                   memset (?memset)
                                                   ntCheckAddressMapEntry (neighbor)
                                                   spp_rf_IRQ (halStack)
                                                   stimer_set (halStack)

    -------------------------------------------------------------------------
  LIBRARY MODULE, NAME : ?FUNC_ENTER_XDATA

  SEGMENTS IN THE MODULE
  ======================
RCODE
  Relative segment, address: CODE 000003FA - 00000458 (0x5f bytes), align: 0
  Segment part 1. ROOT.
           ENTRY                   ADDRESS         REF BY
           =====                   =======         ======
           ?FUNC_ENTER_XDATA       000003FA        MemAlloc (memalloc)
                                                   MemFree (memalloc)
                                                   MemInit (memalloc)
                                                   PingPong (test_pingpong)
                                                   adpFSM (adp)
                                                   adpFindParentSADDR (adp)
                                                   adpFmtCompHeader (adp)
                                                   adpGetHopsToDest (adp)
                                                   adpParseCompHdr (adp)
                                                   adpTxCompData (adp)
                                                   aplFmtSendIPMSG (aps)
                                                   aplMacTicksToUs (aps)
                                                   apsInit (aps)
                                                   apsInjectPacket (aps)
                                                   apsInjectTxPacket (aps)
                                                   apsRxFSM (aps)
                                                   apsTxData (aps)
                                                   apsTxFSM (aps)
                                                   apsTxIPData (aps)
                                                   conPrintConfig (console)
                                                   conPrintIP6ADDR_bytes (console)
                                                   conPrintIP6ADDR_dbytes (console)
                                                   conPrintLADDR_bytes (console)
                                                   conPrintUINT16 (console)
                                                   conPrintUINT32 (console)
                                                   doIEEE_backoff (halStack)
                                                   ds6FindSrcIP (ds)
                                                   ds6GenInterfaceID16 (ds)
                                                   ds6Init (ds)
                                                   ds6MatchNum (ds)
                                                   ds6TestOnLink (ds)
                                                   evbIntCallback (evboard)
                                                   getJoystickDirection (evboard)
                                                   halAdcSampleSingle (halStack)
                                                   halGetMACTimer (halStack)
                                                   halMacTicksToUs (halStack)
                                                   halSendPacket (halStack)
                                                   halUtilMemCopy (halStack)
                                                   halWait (halStack)
                                                   icmpCommonFmt (icmpv6)
                                                   icmpFmtEchoReply (icmpv6)
                                                   icmpFmtEchoRequest (icmpv6)
                                                   lowsn_ds6_list_loop (ds)
                                                   lowsn_ds6_maddr_add (ds)
                                                   lowsn_ds6_prefix_add (ds)
                                                   lowsn_ds6_prefix_lookup (ds)
                                                   lowsn_ds6_uaddr_add (ds)
                                                   lowsn_ds6_uaddr_lookup (ds)
                                                   macCheckDataRejection (mac)
                                                   macFSM (mac)
                                                   macInit (mac)
                                                   macInitRadio (mac)
                                                   macParseAssocResponse (mac)
                                                   macParseHdr (mac)
                                                   macParseOrphanResponse (mac)
                                                   macRxCallback (mac)
                                                   macRxFSM (mac)
                                                   macSetShortAddr (mac)
                                                   macTxCallback (mac)
                                                   macTxData (mac)
                                                   macTxFSM (mac)
                                                   memcmp (?memcmp)
                                                   memcpy (?memcpy)
                                                   memhdr_set_size (memalloc)
                                                   memset (?memset)
                                                   ndFmtRS (nd)
                                                   ndParseRA (nd)
                                                   ntAddOurselvesToAddressTable (neighbor)
                                                   ntCheckAddressMapEntry (neighbor)
                                                   ntGetMaxSADDR (neighbor)
                                                   ntNewAddressMapEntry (neighbor)
                                                   nwkFSM (nwk)
                                                   nwkParseHdr (nwk)
                                                   nwkRxHandoff (nwk)
                                                   nwkTxData (nwk)
                                                   phyFSM (phy)
                                                   phyTxStartCallBack (phy)
                                                   stimer_set (halStack)
                                                   sysclock_get (halStack)
                                                   usrGetPrefixCallback (test_pingpong)
                                                   zepFSM (zep)
                                                   zepFmtEndDeviceAnnounce (zep)
                                                   zepFmtNodeInfoRsp (zep)
                                                   zepHandleRxPacket (zep)

    -------------------------------------------------------------------------
  LIBRARY MODULE, NAME : ?FUNC_LEAVE_XDATA

  SEGMENTS IN THE MODULE
  ======================
RCODE
  Relative segment, address: CODE 00000459 - 00000493 (0x3b bytes), align: 0
  Segment part 1. ROOT.
           ENTRY                   ADDRESS         REF BY
           =====                   =======         ======
           ?FUNC_LEAVE_XDATA       00000459        MemAlloc (memalloc)
                                                   MemFree (memalloc)
                                                   MemInit (memalloc)
                                                   PingPong (test_pingpong)
                                                   adpFSM (adp)
                                                   adpFindParentSADDR (adp)
                                                   adpFmtCompHeader (adp)
                                                   adpGetHopsToDest (adp)
                                                   adpParseCompHdr (adp)
                                                   adpTxCompData (adp)
                                                   aplFmtSendIPMSG (aps)
                                                   aplMacTicksToUs (aps)
                                                   apsInit (aps)
                                                   apsInjectPacket (aps)
                                                   apsInjectTxPacket (aps)
                                                   apsRxFSM (aps)
                                                   apsTxData (aps)
                                                   apsTxFSM (aps)
                                                   apsTxIPData (aps)
                                                   conPrintConfig (console)
                                                   conPrintIP6ADDR_bytes (console)
                                                   conPrintIP6ADDR_dbytes (console)
                                                   conPrintLADDR_bytes (console)
                                                   conPrintUINT16 (console)
                                                   conPrintUINT32 (console)
                                                   doIEEE_backoff (halStack)
                                                   ds6FindSrcIP (ds)
                                                   ds6GenInterfaceID16 (ds)
                                                   ds6Init (ds)
                                                   ds6MatchNum (ds)
                                                   ds6TestOnLink (ds)
                                                   evbIntCallback (evboard)
                                                   getJoystickDirection (evboard)
                                                   halAdcSampleSingle (halStack)
                                                   halGetMACTimer (halStack)
                                                   halMacTicksToUs (halStack)
                                                   halSendPacket (halStack)
                                                   halUtilMemCopy (halStack)
                                                   halWait (halStack)
                                                   icmpCommonFmt (icmpv6)
                                                   icmpFmtEchoReply (icmpv6)
                                                   icmpFmtEchoRequest (icmpv6)
                                                   lowsn_ds6_list_loop (ds)
                                                   lowsn_ds6_maddr_add (ds)
                                                   lowsn_ds6_prefix_add (ds)
                                                   lowsn_ds6_prefix_lookup (ds)
                                                   lowsn_ds6_uaddr_add (ds)
                                                   lowsn_ds6_uaddr_lookup (ds)
                                                   macCheckDataRejection (mac)
                                                   macFSM (mac)
                                                   macInit (mac)
                                                   macInitRadio (mac)
                                                   macParseAssocResponse (mac)
                                                   macParseHdr (mac)
                                                   macParseOrphanResponse (mac)
                                                   macRxCallback (mac)
                                                   macRxFSM (mac)
                                                   macSetShortAddr (mac)
                                                   macTxCallback (mac)
                                                   macTxData (mac)
                                                   macTxFSM (mac)
                                                   memcmp (?memcmp)
                                                   memcpy (?memcpy)
                                                   memhdr_set_size (memalloc)
                                                   memset (?memset)
                                                   ndFmtRS (nd)
                                                   ndParseRA (nd)
                                                   ntAddOurselvesToAddressTable (neighbor)
                                                   ntCheckAddressMapEntry (neighbor)
                                                   ntGetMaxSADDR (neighbor)
                                                   ntNewAddressMapEntry (neighbor)
                                                   nwkFSM (nwk)
                                                   nwkParseHdr (nwk)
                                                   nwkRxHandoff (nwk)
                                                   nwkTxData (nwk)
                                                   phyFSM (phy)
                                                   phyTxStartCallBack (phy)
                                                   stimer_set (halStack)
                                                   sysclock_get (halStack)
                                                   usrGetPrefixCallback (test_pingpong)
                                                   zepFSM (zep)
                                                   zepFmtEndDeviceAnnounce (zep)
                                                   zepFmtNodeInfoRsp (zep)
                                                   zepHandleRxPacket (zep)

    -------------------------------------------------------------------------
  LIBRARY MODULE, NAME : ?INTERRUPT_ENTER_XSP

  SEGMENTS IN THE MODULE
  ======================
RCODE
  Relative segment, address: CODE 00000494 - 000004EB (0x58 bytes), align: 0
  Segment part 1. ROOT.
           ENTRY                   ADDRESS         REF BY
           =====                   =======         ======
           ?INTERRUPT_ENTER_XSP    00000494        spp_rf_IRQ (halStack)
                                                   t2_service_IRQ (halStack)

    -------------------------------------------------------------------------
  LIBRARY MODULE, NAME : ?INTERRUPT_LEAVE_XSP

  SEGMENTS IN THE MODULE
  ======================
RCODE
  Relative segment, address: CODE 000004EC - 0000053C (0x51 bytes), align: 0
  Segment part 1. ROOT.
           ENTRY                   ADDRESS         REF BY
           =====                   =======         ======
           ?INTERRUPT_LEAVE_XSP    000004EC        spp_rf_IRQ (halStack)
                                                   t2_service_IRQ (halStack)

    -------------------------------------------------------------------------
  LIBRARY MODULE, NAME : ?PUSH_XSTACK_I

  SEGMENTS IN THE MODULE
  ======================
RCODE
  Relative segment, address: CODE 0000053D - 00000540 (0x4 bytes), align: 0
  Segment part 0. ROOT.
           ENTRY                   ADDRESS         REF BY
           =====                   =======         ======
           ?PUSH_XSTACK_I_FOUR     0000053D        lowsn_ds6_prefix_add (ds)
    -------------------------------------------------------------------------
RCODE
  Relative segment, address: CODE 00000541 - 00000544 (0x4 bytes), align: 0
  Segment part 1. ROOT.
           ENTRY                   ADDRESS         REF BY
           =====                   =======         ======
           ?PUSH_XSTACK_I_THREE    00000541 
    -------------------------------------------------------------------------
RCODE
  Relative segment, address: CODE 00000545 - 00000548 (0x4 bytes), align: 0
  Segment part 2. ROOT.
           ENTRY                   ADDRESS         REF BY
           =====                   =======         ======
           ?PUSH_XSTACK_I_TWO      00000545        MemInit (memalloc)
                                                   PingPong (test_pingpong)
                                                   ds6Init (ds)
                                                   ds6TestOnLink (ds)
                                                   icmpCommonFmt (icmpv6)
                                                   lowsn_ds6_list_loop (ds)
                                                   lowsn_ds6_maddr_add (ds)
                                                   lowsn_ds6_prefix_add (ds)
                                                   lowsn_ds6_prefix_lookup (ds)
                                                   lowsn_ds6_uaddr_add (ds)
                                                   lowsn_ds6_uaddr_lookup (ds)
                                                   main (test_pingpong)
                                                   ntNewAddressMapEntry (neighbor)
    -------------------------------------------------------------------------
RCODE
  Relative segment, address: CODE 00000549 - 0000054A (0x2 bytes), align: 0
  Segment part 3. ROOT.
           ENTRY                   ADDRESS         REF BY
           =====                   =======         ======
           ?PUSH_XSTACK_I_ONE      00000549        PingPong (test_pingpong)
                                                   lowsn_ds6_maddr_add (ds)
                                                   lowsn_ds6_prefix_add (ds)
                                                   lowsn_ds6_prefix_lookup (ds)
                                                   lowsn_ds6_uaddr_add (ds)
                                                   lowsn_ds6_uaddr_lookup (ds)
    -------------------------------------------------------------------------
RCODE
  Relative segment, address: CODE 0000054B - 00000557 (0xd bytes), align: 0
  Segment part 4. ROOT.       Intra module refs:   ?PUSH_XSTACK_I_FOUR
                                                   ?PUSH_XSTACK_I_ONE
                                                   ?PUSH_XSTACK_I_THREE
                                                   ?PUSH_XSTACK_I_TWO
           ENTRY                   ADDRESS         REF BY
           =====                   =======         ======
           ?PUSH_XSTACK_I          0000054B 

    -------------------------------------------------------------------------
  LIBRARY MODULE, NAME : ?PUSH_XSTACK8_X

  SEGMENTS IN THE MODULE
  ======================
RCODE
  Relative segment, address: CODE 00000558 - 0000055B (0x4 bytes), align: 0
  Segment part 1. ROOT.
           ENTRY                   ADDRESS         REF BY
           =====                   =======         ======
           ?PUSH_XSTACK8_X_FOUR    00000558        ds6Init (ds)
                                                   ds6LocalIPFrom16 (ds)
                                                   ndParseRA (nd)
    -------------------------------------------------------------------------
RCODE
  Relative segment, address: CODE 0000055C - 0000055F (0x4 bytes), align: 0
  Segment part 2. ROOT.
           ENTRY                   ADDRESS         REF BY
           =====                   =======         ======
           ?PUSH_XSTACK8_X_THREE   0000055C 
    -------------------------------------------------------------------------
RCODE
  Relative segment, address: CODE 00000560 - 00000563 (0x4 bytes), align: 0
  Segment part 3. ROOT.
           ENTRY                   ADDRESS         REF BY
           =====                   =======         ======
           ?PUSH_XSTACK8_X_TWO     00000560        adpParseCompHdr (adp)
                                                   ds6LocalIPFrom16 (ds)
                                                   ndParseRA (nd)
    -------------------------------------------------------------------------
RCODE
  Relative segment, address: CODE 00000564 - 00000565 (0x2 bytes), align: 0
  Segment part 4. ROOT.
           ENTRY                   ADDRESS         REF BY
           =====                   =======         ======
           ?PUSH_XSTACK8_X_ONE     00000564 
    -------------------------------------------------------------------------
RCODE
  Relative segment, address: CODE 00000566 - 00000589 (0x24 bytes), align: 0
  Segment part 5. ROOT.       Intra module refs:   ?PUSH_XSTACK8_X_FOUR
                                                   ?PUSH_XSTACK8_X_ONE
                                                   ?PUSH_XSTACK8_X_THREE
                                                   ?PUSH_XSTACK8_X_TWO
           ENTRY                   ADDRESS         REF BY
           =====                   =======         ======
           ?PUSH_XSTACK8_X         00000566        PingPong (test_pingpong)
                                                   phyFSM (phy)

    -------------------------------------------------------------------------
  LIBRARY MODULE, NAME : ?UC_SWITCH_DENSE

  SEGMENTS IN THE MODULE
  ======================
RCODE
  Relative segment, address: CODE 0000058A - 000005BF (0x36 bytes), align: 0
  Segment part 0. ROOT.
           ENTRY                   ADDRESS         REF BY
           =====                   =======         ======
           ?UC_SWITCH_DENSE        0000058A        PingPong (test_pingpong)
                                                   adpFSM (adp)
                                                   adpParseCompHdr (adp)
                                                   adpRxFSM (adp)
                                                   apsFSM (aps)
                                                   apsRxFSM (aps)
                                                   evbLedGet (evboard)
                                                   evbLedSet (evboard)
                                                   macFSM (mac)
                                                   macRxFSM (mac)
                                                   macTxData (mac)
                                                   ntGetCskip (neighbor)
                                                   nwkFSM (nwk)
                                                   nwkRxFSM (nwk)
                                                   phyFSM (phy)
                                                   zepHandleRxPacket (zep)

    -------------------------------------------------------------------------
  LIBRARY MODULE, NAME : ?UC_SWITCH_SPARSE

  SEGMENTS IN THE MODULE
  ======================
RCODE
  Relative segment, address: CODE 000005C0 - 000005E9 (0x2a bytes), align: 0
  Segment part 0. ROOT.
           ENTRY                   ADDRESS         REF BY
           =====                   =======         ======
           ?UC_SWITCH_SPARSE       000005C0        apsFSM (aps)
                                                   macFSM (mac)
                                                   macRxFSM (mac)
                                                   nwkRxFSM (nwk)
           ?UC_SWITCH_SPARSE_LEAVE
                                   000005DD        ?UC_JMP_IF_IN_RANGE (?UC_JMP_IF_IN_RANGE)
                                                   ?UC_JMP_IF_VALUE (?UC_JMP_IF_VALUE)

    -------------------------------------------------------------------------
  LIBRARY MODULE, NAME : ?UC_JMP_IF_IN_RANGE

  SEGMENTS IN THE MODULE
  ======================
RCODE
  Relative segment, address: CODE 000005EA - 00000608 (0x1f bytes), align: 0
  Segment part 0. ROOT.
           ENTRY                   ADDRESS         REF BY
           =====                   =======         ======
           ?UC_JMP_IF_IN_RANGE     000005EA        Segment part 0 (?UC_SWITCH_SPARSE)

    -------------------------------------------------------------------------
  LIBRARY MODULE, NAME : ?UC_JMP_IF_VALUE

  SEGMENTS IN THE MODULE
  ======================
RCODE
  Relative segment, address: CODE 00000609 - 0000061E (0x16 bytes), align: 0
  Segment part 0. ROOT.
           ENTRY                   ADDRESS         REF BY
           =====                   =======         ======
           ?UC_JMP_IF_VALUE        00000609        Segment part 0 (?UC_SWITCH_SPARSE)

    -------------------------------------------------------------------------
  LIBRARY MODULE, NAME : ?memcmp

  SEGMENTS IN THE MODULE
  ======================
NEAR_CODE
  Relative segment, address: CODE 00007AAA - 00007B02 (0x59 bytes), align: 0
  Segment part 6.
           ENTRY                   ADDRESS         REF BY
           =====                   =======         ======
           memcmp                  00007AAA        ds6TestOnLink (ds)
                                                   lowsn_ds6_list_loop (ds)
               stack 1 = 00000000 ( 00000000 )
               stack 2 = 00000002 ( 00000008 )

    -------------------------------------------------------------------------
  LIBRARY MODULE, NAME : ?memcpy

  SEGMENTS IN THE MODULE
  ======================
NEAR_CODE
  Relative segment, address: CODE 00007B03 - 00007B4A (0x48 bytes), align: 0
  Segment part 6.
           ENTRY                   ADDRESS         REF BY
           =====                   =======         ======
           memcpy                  00007B03        icmpCommonFmt (icmpv6)
               stack 1 = 00000000 ( 00000001 )
               stack 2 = 00000002 ( 00000009 )

    -------------------------------------------------------------------------
  LIBRARY MODULE, NAME : ?memset

  SEGMENTS IN THE MODULE
  ======================
NEAR_CODE
  Relative segment, address: CODE 00007B4B - 00007B79 (0x2f bytes), align: 0
  Segment part 6.
           ENTRY                   ADDRESS         REF BY
           =====                   =======         ======
           memset                  00007B4B        MemInit (memalloc)
                                                   ds6Init (ds)
               stack 1 = 00000000 ( 00000001 )
               stack 2 = 00000002 ( 00000008 )

    -------------------------------------------------------------------------
  LIBRARY MODULE, NAME : ?low_level_init

  SEGMENTS IN THE MODULE
  ======================
CSTART
  Relative segment, address: CODE 0000010B - 0000010D (0x3 bytes), align: 0
  Segment part 6. ROOT.
           ENTRY                   ADDRESS         REF BY
           =====                   =======         ======
           __low_level_init        0000010B        __low_level_init_call (?cmain)




                ****************************************
                *                                      *
                *            MODULE SUMMARY            *
                *                                      *
                ****************************************

Module                     CODE      DATA      XDATA  IDATA    BIT
------                     ----      ----      -----  -----    ---
                          (Rel)  (Rel)  (Abs)  (Rel)  (Rel)  (Rel)
?ADD_XSTACK_DISP8            20
?ALLOC_XSTACK8               15
?DEALLOC_XSTACK8             19
?FUNC_ENTER_XDATA            95
?FUNC_LEAVE_XDATA            59
?INTERRUPT_ENTER_XSP         88
?INTERRUPT_LEAVE_XSP         81
?L_ADD                       22
?L_ADD_TO_X                  22
?L_ADD_X                     22
?L_AND_X                     22
?L_EQ_X                      24
?L_IOR                       22
?L_MOV_TO_X                  28
?L_MOV_X                     15
?L_MUL                      128
?L_SHL                       31
?L_SUB                       23
?L_SUB_X                     27
?MOVE_LONG8_XDATA_IDATA      13
?MOVE_LONG8_XDATA_XDATA      33
?PUSH_XSTACK8_X              50
?PUSH_XSTACK_I               27
?SL_SHR                      32
?SS_SHR                      20
?S_SHL                       19
?UC_JMP_IF_IN_RANGE          31
?UC_JMP_IF_VALUE             22
?UC_SWITCH_DENSE             54
?UC_SWITCH_SPARSE            42
?UL_DIV_MOD                 112
?UL_GT                       19
?UL_GT_X                     19
?UL_SHR                      31
?XSTACK_DISP8                10
?cexit                        5
?cmain                      113
?low_level_init               3
?memcmp                      89
?memcpy                      72
?memset                      47
CSTARTUP                     15
  + common                    3
VIRTUAL_REGISTERS                    2                           8
adp                       4 193                  126
  + shared                                        12
aps                       4 920                  139
  + shared                                  1
console                     688                    4
debug                                              1
ds                        2 684                  326
  + shared                                         4
evboard                     719             4      2
  + shared                                  1
halNeighbor                                       10
halStack                  2 340            37     60
  + shared                  134                    4
  + common
icmpv6                    1 302
mac                       5 129                  124
memalloc                    715                2 048
nd                          897                   20
neighbor                    830
nwk                       2 908                  160
phy                         430                  153
test_pingpong             2 019                   45
zep                         907                    7
N/A (command line)                  16           511     64
N/A (alignment)
----------               ------     --     --  -----     --      -
Total:                   32 322     18     43  3 756     64      8
  + common                  134


                ****************************************
                *                                      *
                *      SEGMENTS IN ADDRESS ORDER       *
                *                                      *
                ****************************************


SEGMENT              SPACE    START ADDRESS   END ADDRESS     SIZE  TYPE  ALIGN
=======              =====    =============   ===========     ====  ====  =====
INTVEC               CODE          00000000 - 00000085          86   com    0
CSTART               CODE          00000086 - 0000010D          88   rel    0
RCODE                CODE          0000010E - 0000061E         511   rel    0
NEAR_CODE            CODE          0000061F - 00007B79        755B   rel    0
IDATA_ID             CODE               00007B7A                     dse    0
IXDATA_ID            CODE               00007B7A                     dse    0
PDATA_ID             CODE               00007B7A                     dse    0
DATA_ID              CODE               00007B7A                     dse    0
BIT_ID               CODE               00007B7A                     dse    0
BDATA_ID             CODE               00007B7A                     dse    0
XDATA_ID             CODE          00007B7A - 00007BD1          58   rel    0
CODE_C               CODE          00007BD2 - 00007EC7         2F6   rel    0
REGISTERS            DATA          00000000 - 00000007           8   rel    0
VREG                 DATA          00000008 - 0000000F           8   rel    0
PSP                  DATA               00000010                     dse    0
XSP                  DATA          00000010 - 00000011           2   rel    0
BREG                 BIT        00000020.0  -  00000020.7        8   rel    0
SFR_AN               DATA          00000086 - 00000088           3   rel    0
                     DATA          00000090 - 00000091           2 
                     DATA          00000095 - 00000097           3 
                     DATA          0000009A - 0000009E           5 
                     DATA          000000A1 - 000000A5           5 
                     DATA          000000A8 - 000000A8           1 
                     DATA          000000B4 - 000000B4           1 
                     DATA          000000B6 - 000000B6           1 
                     DATA          000000B8 - 000000B8           1 
                     DATA          000000BA - 000000BB           2 
                     DATA          000000BE - 000000BE           1 
                     DATA          000000C0 - 000000C6           7 
                     DATA          000000D9 - 000000D9           1 
                     DATA          000000E1 - 000000E1           1 
                     DATA          000000E8 - 000000E9           2 
                     DATA          000000F1 - 000000F5           5 
                     DATA          000000FD - 000000FE           2 
XSTACK               XDATA         0000E000 - 0000E1FE         1FF   rel    0
IXDATA_I             XDATA              0000E1FF                     dse    0
XDATA_N              XDATA              0000E1FF                     dse    0
XDATA_Z              XDATA         0000E1FF - 0000EE53         C55   rel    0
XDATA_I              XDATA         0000EE54 - 0000EEAB          58   rel    0
ISTACK               IDATA         000000C0 - 000000FF          40   rel    0

                ****************************************
                *                                      *
                *        END OF CROSS REFERENCE        *
                *                                      *
                ****************************************

 32 456 bytes of CODE  memory
     18 bytes of DATA  memory (+ 43 absolute )
  3 756 bytes of XDATA memory
     64 bytes of IDATA memory
      8 bits  of BIT   memory

Errors: none
Warnings: none

