################################################################################
#                                                                              #
#      IAR Universal Linker V4.61L/W32                                         #
#                                                                              #
#           Link time     =  16/Oct/2013  13:31:34                             #
#           Target CPU    =  x51                                               #
#           List file     =  F:\6LoWSN\6lowsn_stack\obj\compiletest\iar51_cc25 #
#                            30\coord\List\compiletest.map                     #
#           Output file 1 =  F:\6LoWSN\6lowsn_stack\obj\compiletest\iar51_cc25 #
#                            30\coord\Exe\compiletest.hex                      #
#                            Format: debug                                     #
#                            UBROF version 10.0.2                              #
#                            Using library modules for C-SPY (-rt)             #
#           Command line  =  -D_NR_OF_BANKS=0x03 -D_CODEBANK_END=0xFFFF        #
#                            -D_CODEBANK_START=0x2900 -D?CBANK_MASK=0x30       #
#                            -D?CBANK=0xC7                                     #
#                            "-IC:\Program Files\IAR Systems\Embedded Workbenc #
#                            h 5.3 Evaluation version\8051\CONFIG\"            #
#                            F:\6LoWSN\6lowsn_stack\obj\compiletest\iar51_cc25 #
#                            30\coord\Obj\adp.r51                              #
#                            F:\6LoWSN\6lowsn_stack\obj\compiletest\iar51_cc25 #
#                            30\coord\Obj\aps.r51                              #
#                            F:\6LoWSN\6lowsn_stack\obj\compiletest\iar51_cc25 #
#                            30\coord\Obj\console.r51                          #
#                            F:\6LoWSN\6lowsn_stack\obj\compiletest\iar51_cc25 #
#                            30\coord\Obj\debug.r51                            #
#                            F:\6LoWSN\6lowsn_stack\obj\compiletest\iar51_cc25 #
#                            30\coord\Obj\ds.r51                               #
#                            F:\6LoWSN\6lowsn_stack\obj\compiletest\iar51_cc25 #
#                            30\coord\Obj\evboard.r51                          #
#                            F:\6LoWSN\6lowsn_stack\obj\compiletest\iar51_cc25 #
#                            30\coord\Obj\halNeighbor.r51                      #
#                            F:\6LoWSN\6lowsn_stack\obj\compiletest\iar51_cc25 #
#                            30\coord\Obj\halStack.r51                         #
#                            F:\6LoWSN\6lowsn_stack\obj\compiletest\iar51_cc25 #
#                            30\coord\Obj\hal_dma.r51                          #
#                            F:\6LoWSN\6lowsn_stack\obj\compiletest\iar51_cc25 #
#                            30\coord\Obj\icmpv6.r51                           #
#                            F:\6LoWSN\6lowsn_stack\obj\compiletest\iar51_cc25 #
#                            30\coord\Obj\mac.r51                              #
#                            F:\6LoWSN\6lowsn_stack\obj\compiletest\iar51_cc25 #
#                            30\coord\Obj\memalloc.r51                         #
#                            F:\6LoWSN\6lowsn_stack\obj\compiletest\iar51_cc25 #
#                            30\coord\Obj\mp.r51                               #
#                            F:\6LoWSN\6lowsn_stack\obj\compiletest\iar51_cc25 #
#                            30\coord\Obj\nd.r51                               #
#                            F:\6LoWSN\6lowsn_stack\obj\compiletest\iar51_cc25 #
#                            30\coord\Obj\neighbor.r51                         #
#                            F:\6LoWSN\6lowsn_stack\obj\compiletest\iar51_cc25 #
#                            30\coord\Obj\nwk.r51                              #
#                            F:\6LoWSN\6lowsn_stack\obj\compiletest\iar51_cc25 #
#                            30\coord\Obj\phy.r51                              #
#                            F:\6LoWSN\6lowsn_stack\obj\compiletest\iar51_cc25 #
#                            30\coord\Obj\slip.r51                             #
#                            F:\6LoWSN\6lowsn_stack\obj\compiletest\iar51_cc25 #
#                            30\coord\Obj\test_demo.r51                        #
#                            -o                                                #
#                            F:\6LoWSN\6lowsn_stack\obj\compiletest\iar51_cc25 #
#                            30\coord\Exe\compiletest.hex                      #
#                            -l                                                #
#                            F:\6LoWSN\6lowsn_stack\obj\compiletest\iar51_cc25 #
#                            30\coord\List\compiletest.map                     #
#                            -xmsn                                             #
#                            "-IC:\Program Files\IAR Systems\Embedded Workbenc #
#                            h 5.3 Evaluation version\8051\LIB\"               #
#                            -f                                                #
#                            "C:\Program Files\IAR Systems\Embedded Workbench  #
#                            5.3 Evaluation version\8051\config\lnk51ew_cc2530 #
#                            b.xcl"                                            #
#                            (-D_IDATA_END=0xFF -D_PDATA_START=0x1E00          #
#                            -D_PDATA_END=0x1EFF -D_IXDATA_START=0x0001        #
#                            -D_IXDATA_END=0x1EFF                              #
#                            -D_XDATA_START=_IXDATA_START                      #
#                            -D_XDATA_END=_IXDATA_END -D_CODE_START=0x0000     #
#                            -D_CODE_END=0x7FFF -D_FIRST_BANK_ADDR=0x10000     #
#                            -M(CODE)[(_CODEBANK_START+_FIRST_BANK_ADDR)-(_COD #
#                            EBANK_END+_FIRST_BANK_ADDR)]*_NR_OF_BANKS+0x10000 #
#                            =0x8000                                           #
#                            -ww69=i -D_NEAR_CODE_END=_CODE_END                #
#                            -D?REGISTER_BANK=0 -D_REGISTER_BANK_START=0       #
#                            -D?PBANK_NUMBER=0x1E -D?PBANK=0x93                #
#                            -D_BREG_START=0x00 -D?VB=0x20                     #
#                            -D_FAR_DATA_NR_OF_BANKS=0x0E                      #
#                            -D_FAR_DATA_START=0x010001                        #
#                            -D_FAR_DATA_END=0xFFFFFF                          #
#                            -D_FAR_CODE_START=_CODE_START                     #
#                            -D_FAR_CODE_END=_CODE_END -f lnk_base.xcl         #
#                            (-Z(BIT)BREG=_BREG_START -Z(BIT)BIT_N=0-7F        #
#                            -Z(DATA)REGISTERS+8=_REGISTER_BANK_START          #
#                            -Z(DATA)BDATA_Z,BDATA_N,BDATA_I=20-2F             #
#                            -Z(DATA)VREG+_NR_OF_VIRTUAL_REGISTERS=08-7F       #
#                            -Z(DATA)PSP,XSP=08-7F -Z(DATA)DOVERLAY=08-7F      #
#                            -Z(DATA)DATA_I,DATA_Z,DATA_N=08-7F                #
#                            -U(IDATA)0-7F=(DATA)0-7F                          #
#                            -Z(IDATA)IDATA_I,IDATA_Z,IDATA_N=08-_IDATA_END    #
#                            -Z(IDATA)ISTACK+_IDATA_STACK_SIZE#08-_IDATA_END   #
#                            -Z(IDATA)IOVERLAY=08-FF -Z(CODE)INTVEC=0          #
#                            -Z(CODE)CSTART=_CODE_START-_CODE_END              #
#                            -Z(CODE)BIT_ID,BDATA_ID,DATA_ID,IDATA_ID,IXDATA_I #
#                            D,PDATA_ID,XDATA_ID=_CODE_START-_CODE_END         #
#                            -Z(CODE)HUGE_ID=_FAR_CODE_START-_FAR_CODE_END     #
#                            -Z(CODE)BANK_RELAYS,RCODE,DIFUNCT,CODE_C,CODE_N,N #
#                            EAR_CODE=_CODE_START-_CODE_END                    #
#                            -P(CODE)BANKED_CODE=_CODE_START-_CODE_END,[(_CODE #
#                            BANK_START+_FIRST_BANK_ADDR)-(_CODEBANK_END+_FIRS #
#                            T_BANK_ADDR)]*_NR_OF_BANKS+10000                  #
#                            -P(CODE)FAR_CODE_C,FAR_CODE_N,FAR_CODE=[_FAR_CODE #
#                            _START-_FAR_CODE_END]/10000                       #
#                            -P(CODE)HUGE_CODE_C=_FAR_CODE_START-_FAR_CODE_END #
#                            -Z(CODE)CHECKSUM#_CODE_END                        #
#                            -Z(XDATA)EXT_STACK+_EXTENDED_STACK_SIZE=_EXTENDED #
#                            _STACK_START                                      #
#                            -Z(XDATA)PSTACK+_PDATA_STACK_SIZE=_PDATA_START-_P #
#                            DATA_END                                          #
#                            -Z(XDATA)XSTACK+_XDATA_STACK_SIZE=_XDATA_START-_X #
#                            DATA_END                                          #
#                            -Z(XDATA)PDATA_Z,PDATA_I=_PDATA_START-_PDATA_END  #
#                            -P(XDATA)PDATA_N=_PDATA_START-_PDATA_END          #
#                            -Z(XDATA)IXDATA_Z,IXDATA_I=_IXDATA_START-_IXDATA_ #
#                            END                                               #
#                            -P(XDATA)IXDATA_N=_IXDATA_START-_IXDATA_END       #
#                            -Z(XDATA)XDATA_Z,XDATA_I=_XDATA_START-_XDATA_END  #
#                            -P(XDATA)XDATA_N=_XDATA_START-_XDATA_END          #
#                            -Z(XDATA)XDATA_HEAP+_XDATA_HEAP_SIZE=_XDATA_START #
#                            -_XDATA_END                                       #
#                            -Z(CONST)XDATA_ROM_C=_XDATA_START-_XDATA_END      #
#                            -Z(XDATA)FAR_Z=[_FAR_DATA_START-_FAR_DATA_END]/10 #
#                            000                                               #
#                            -Z(XDATA)FAR_I=[_FAR_DATA_START-_FAR_DATA_END]/10 #
#                            000                                               #
#                            -Z(CODE)FAR_ID=[_FAR_CODE_START-_FAR_CODE_END]/10 #
#                            000                                               #
#                            -Z(XDATA)FAR_HEAP+_FAR_HEAP_SIZE=[_FAR_DATA_START #
#                            -_FAR_DATA_END]/10000                             #
#                            -P(XDATA)FAR_N=[_FAR_DATA_START-_FAR_DATA_END]*_F #
#                            AR_DATA_NR_OF_BANKS+10000                         #
#                            -P(CONST)FAR_ROM_C=[_FAR_DATA_START-_FAR_DATA_END #
#                            ]*_FAR_DATA_NR_OF_BANKS+10000                     #
#                            -Z(XDATA)HUGE_Z,HUGE_I=_FAR_DATA_START-_FAR_DATA_ #
#                            END                                               #
#                            -P(XDATA)HUGE_N=_FAR_DATA_START-_FAR_DATA_END     #
#                            -Z(XDATA)HUGE_HEAP+_HUGE_HEAP_SIZE=_FAR_DATA_STAR #
#                            T-_FAR_DATA_END                                   #
#                            -Z(CONST)HUGE_ROM_C=_FAR_DATA_START-_FAR_DATA_END #
#                            -cx51) -D_BANK0_START=0x00000                     #
#                            -D_BANK0_END=0x07FFF -D_BANK1_START=0x18000       #
#                            -D_BANK1_END=0x1FFFF -D_BANK2_START=0x28000       #
#                            -D_BANK2_END=0x2FFFF -D_BANK3_START=0x38000       #
#                            -D_BANK3_END=0x3FFFF -D_BANK4_START=0x48000       #
#                            -D_BANK4_END=0x4FFFF -D_BANK5_START=0x58000       #
#                            -D_BANK5_END=0x5FFFF -D_BANK6_START=0x68000       #
#                            -D_BANK6_END=0x6FFFF -D_BANK7_START=0x78000       #
#                            -D_BANK7_END=0x7FFFF                              #
#                            -P(CODE)BANK0=_BANK0_START-_BANK0_END             #
#                            -P(CODE)BANK1=_BANK1_START-_BANK1_END             #
#                            -P(CODE)BANK2=_BANK2_START-_BANK2_END             #
#                            -P(CODE)BANK3=_BANK3_START-_BANK3_END             #
#                            -P(CODE)BANK4=_BANK4_START-_BANK4_END             #
#                            -P(CODE)BANK5=_BANK5_START-_BANK5_END             #
#                            -P(CODE)BANK6=_BANK6_START-_BANK6_END             #
#                            -P(CODE)BANK7=_BANK7_START-_BANK7_END             #
#                            -D_FLASH_LOCK_BITS_START=((_NR_OF_BANKS*_FIRST_BA #
#                            NK_ADDR)+0xFFF0)                                  #
#                            -D_FLASH_LOCK_BITS_END=((_NR_OF_BANKS*_FIRST_BANK #
#                            _ADDR)+0xFFFF)                                    #
#                            -Z(CODE)FLASH_LOCK_BITS=_FLASH_LOCK_BITS_START-_F #
#                            LASH_LOCK_BITS_END                                #
#                            -U(CODE)0x0000=(CODE)_FLASH_LOCK_BITS_START-_FLAS #
#                            H_LOCK_BITS_END)                                  #
#                            -D_NR_OF_VIRTUAL_REGISTERS=8 -e?BCALL_30=?BCALL   #
#                            -e?BRET_30=?BRET -e?BDISPATCH_30=?BDISPATCH       #
#                            -e_medium_write=_formatted_write                  #
#                            -e_medium_read=_formatted_read -rt -s             #
#                            __program_start                                   #
#                            "C:\Program Files\IAR Systems\Embedded Workbench  #
#                            5.3 Evaluation version\8051\LIB\CLIB\cl-pli-blxd- #
#                            1e16x01.r51"                                      #
#                            -D_IDATA_STACK_SIZE=0x40                          #
#                            -D_EXTENDED_STACK_START=0x00                      #
#                            -D_EXTENDED_STACK_SIZE=0x00                       #
#                            -D_PDATA_STACK_SIZE=0x80                          #
#                            -D_XDATA_STACK_SIZE=0x1FF                         #
#                            -D_XDATA_HEAP_SIZE=0xFF -D_FAR_HEAP_SIZE=0xFFF    #
#                            -D_HUGE_HEAP_SIZE=0xFFF                           #
#                                                                              #
#                           Copyright (C) 1987-2009 IAR Systems AB.            #
################################################################################





                ****************************************
                *                                      *
                *           CROSS REFERENCE            *
                *                                      *
                ****************************************

       Program entry at : CODE      000000E3  Relocatable, from module : CSTARTUP




                ****************************************
                *                                      *
                *            RUNTIME MODEL             *
                *                                      *
                ****************************************

  __calling_convention     = xdata_reentrant
  __code_model             = banked
  __core                   = plain
  __data_model             = large
  __dptr_size              = 16
  __extended_stack         = disabled
  __location_for_constants = data
  __number_of_dptrs        = 1
  __rt_version             = 1



                ****************************************
                *                                      *
                *              MODULE MAP              *
                *                                      *
                ****************************************


  DEFINED ABSOLUTE ENTRIES
    *************************************************************************

  DEFINED ABSOLUTE ENTRIES
  PROGRAM MODULE, NAME : ?ABS_ENTRY_MOD

Absolute parts
           ENTRY                   ADDRESS         REF BY
           =====                   =======         ======
           _HUGE_HEAP_SIZE         00000FFF 
           _FAR_HEAP_SIZE          00000FFF 
           _XDATA_HEAP_SIZE        000000FF 
           _XDATA_STACK_SIZE       000001FF 
           _PDATA_STACK_SIZE       00000080 
           _EXTENDED_STACK_SIZE    00000000 
           _EXTENDED_STACK_START   00000000 
           _IDATA_STACK_SIZE       00000040 
           _NR_OF_VIRTUAL_REGISTERS
                                   00000008 
           _FLASH_LOCK_BITS_END    000304FF 
           _FLASH_LOCK_BITS_START
                                   000304F0 
           _BANK7_END              0007FFFF 
           _BANK7_START            00078000 
           _BANK6_END              0006FFFF 
           _BANK6_START            00068000 
           _BANK5_END              0005FFFF 
           _BANK5_START            00058000 
           _BANK4_END              0004FFFF 
           _BANK4_START            00048000 
           _BANK3_END              000304FF 
           _BANK3_START            00028500 
           _BANK2_END              00022DFF 
           _BANK2_START            0001AE00 
           _BANK1_END              000156FF 
           _BANK1_START            0000D700 
           _BANK0_END              00007FFF 
           _BANK0_START            00000000 
           _FAR_CODE_END           00007FFF 
           _FAR_CODE_START         00000000 
           _FAR_DATA_END           00FFFFFF 
           _FAR_DATA_START         00010001 
           _FAR_DATA_NR_OF_BANKS   0000000E 
           ?VB                     00000020        ?BANKED_ENTER_XDATA (?BANKED_ENTER_XDATA)
                                                   ?BANKED_LEAVE_XDATA (?BANKED_LEAVE_XDATA)
                                                   ?INTERRUPT_ENTER_XSP (?INTERRUPT_ENTER_XSP)
                                                   ?INTERRUPT_LEAVE_XSP (?INTERRUPT_LEAVE_XSP)
           _BREG_START             00000000 
           ?PBANK                  00000093 
           ?PBANK_NUMBER           0000001E 
           _REGISTER_BANK_START    00000000 
           ?REGISTER_BANK          00000000        Segment part 6 (CSTARTUP)
           _NEAR_CODE_END          00007FFF 
           _FIRST_BANK_ADDR        00010000 
           _CODE_END               00007FFF 
           _CODE_START             00000000 
           _XDATA_END              00001EFF 
           _XDATA_START            00000001 
           _IXDATA_END             00001EFF 
           _IXDATA_START           00000001 
           _PDATA_END              00001EFF 
           _PDATA_START            00001E00 
           _IDATA_END              000000FF 
           ?CBANK                  000000C7        ?RESET_CODE_BANK (CSTARTUP)
                                                   Segment part 1 (?BANKED_CODE_SUPPORT)
           ?CBANK_MASK             00000030 
           _CODEBANK_START         00002900 
           _CODEBANK_END           0000FFFF 
           _NR_OF_BANKS            00000003 
    *************************************************************************

  FILE NAME : F:\6LoWSN\6lowsn_stack\obj\compiletest\iar51_cc2530\coord\Obj\adp.r51
  PROGRAM MODULE, NAME : adp

  SEGMENTS IN THE MODULE
  ======================
XDATA_Z
  Relative segment, address: XDATA 00000200 - 00000200 (0x1 bytes), align: 0
  Segment part 6.             Intra module refs:   adpInit
                                                   adpRxBusy
                                                   adpRxFSM
                                                   adpRxHandoff
           LOCAL                   ADDRESS         
           =====                   =======         
           adpRxState              00000200 
    -------------------------------------------------------------------------
XDATA_Z
  Relative segment, address: XDATA 00000201 - 00000229 (0x29 bytes), align: 0
  Segment part 7.             Intra module refs:   ?Subroutine3
                                                   adpFSM
                                                   adpFmtCompHeader
                                                   adpTxCompData
           ENTRY                   ADDRESS         REF BY
           =====                   =======         ======
           a_adp_service           00000201        ?Subroutine10 (nwk)
                                                   ?Subroutine17 (nwk)
                                                   main (test_demo)
                                                   nwkFSM (nwk)
                                                   nwkTxData (nwk)
    -------------------------------------------------------------------------
XDATA_Z
  Relative segment, address: XDATA 0000022A - 0000022A (0x1 bytes), align: 0
  Segment part 8.             Intra module refs:   adpFSM
                                                   adpInit
                                                   adpRxFSM
           ENTRY                   ADDRESS         REF BY
           =====                   =======         ======
           adpState                0000022A        ?Subroutine17 (nwk)
                                                   nwkFSM (nwk)
    -------------------------------------------------------------------------
XDATA_Z
  Relative segment, address: XDATA 0000022B - 00000261 (0x37 bytes), align: 0
  Segment part 9.             Intra module refs:   ?Subroutine17
                                                   ?Subroutine21
                                                   adpParseCompHdr
                                                   adpRxFSM
                                                   adpRxHandoff
           ENTRY                   ADDRESS         REF BY
           =====                   =======         ======
           a_adp_rx_data           0000022B        nwkRxHandoff (nwk)
    -------------------------------------------------------------------------
XDATA_Z
  Relative segment, address: XDATA 00000262 - 00000262 (0x1 bytes), align: 0
  Segment part 10.            Intra module refs:   adpInit
           ENTRY                   ADDRESS         REF BY
           =====                   =======         ======
           adpDSN                  00000262 
    -------------------------------------------------------------------------
XDATA_Z
  Relative segment, address: XDATA 00000263 - 00000276 (0x14 bytes), align: 0
  Segment part 11.            Intra module refs:   ?Subroutine19
                                                   ?Subroutine5
                                                   adpCopyFwdPkt
                                                   adpFSM
                                                   adpInit
                                                   adpRxFSM
           ENTRY                   ADDRESS         REF BY
           =====                   =======         ======
           adp_pib                 00000263 
    -------------------------------------------------------------------------
XDATA_Z
  Relative segment, address: XDATA 00000277 - 0000028A (0x14 bytes), align: 0
  Segment part 12.            Intra module refs:   adpCopyFwdPkt
                                                   adpFSM
                                                   adpFmtCompHeader
                                                   adpTxCompData
                                                   adpTxData
           ENTRY                   ADDRESS         REF BY
           =====                   =======         ======
           a_adp_tx_data           00000277        nwkFindDstDLLAddr (nwk)
    -------------------------------------------------------------------------
<BANKED_CODE> 1 (was BANKED_CODE)
  Relative segment, address: CODE 00003E0C - 00003E31 (0x26 bytes), align: 0
  Segment part 37.            Intra module refs:   adpInit::?relay
           ENTRY                   ADDRESS         REF BY
           =====                   =======         ======
           adpInit                 00003E0C 
               ISTACK = 00000000 ( 00000002 )
    -------------------------------------------------------------------------
<BANKED_CODE> 1 (was BANKED_CODE)
  Relative segment, address: CODE 00003E32 - 00003F2C (0xfb bytes), align: 0
  Segment part 39.            Intra module refs:   adpFSM::?relay
           ENTRY                   ADDRESS         REF BY
           =====                   =======         ======
           adpFSM                  00003E32 
               calls direct
               ISTACK = 00000000 ( 00000002 )
    -------------------------------------------------------------------------
CODE_C
  Relative segment, address: CODE 00000BA3 - 00000BB9 (0x17 bytes), align: 0
  Segment part 13.            Intra module refs:   adpFSM
           LOCAL                   ADDRESS         
           =====                   =======         
           adpFSM{1}{5}{9}{10}::xxxxromstr
                                   00000BA3 
    -------------------------------------------------------------------------
<BANKED_CODE> 1 (was BANKED_CODE)
  Relative segment, address: CODE 00003F2D - 00004096 (0x16a bytes), align: 0
  Segment part 41.            Intra module refs:   adpTxData::?relay
           ENTRY                   ADDRESS         REF BY
           =====                   =======         ======
           adpTxData               00003F2D 
               calls direct
               XSTACK = 00000000 ( 0000000A )
               ISTACK = 00000000 ( 00000001 )
    -------------------------------------------------------------------------
<BANKED_CODE> 1 (was BANKED_CODE)
  Relative segment, address: CODE 00004097 - 0000409B (0x5 bytes), align: 0
  Segment part 43.            Intra module refs:   adpCopyFwdPkt
                                                   adpTxData
           LOCAL                   ADDRESS         
           =====                   =======         
           ?Subroutine38           00004097 
    -------------------------------------------------------------------------
<BANKED_CODE> 1 (was BANKED_CODE)
  Relative segment, address: CODE 0000409C - 000040AC (0x11 bytes), align: 0
  Segment part 44.            Intra module refs:   adpFSM
                                                   adpTxData
           LOCAL                   ADDRESS         
           =====                   =======         
           ?Subroutine4            0000409C 
    -------------------------------------------------------------------------
<BANKED_CODE> 1 (was BANKED_CODE)
  Relative segment, address: CODE 000040AD - 000040B1 (0x5 bytes), align: 0
  Segment part 45.            Intra module refs:   adpTxData
           LOCAL                   ADDRESS         
           =====                   =======         
           ?Subroutine0            000040AD 
    -------------------------------------------------------------------------
<BANKED_CODE> 1 (was BANKED_CODE)
  Relative segment, address: CODE 000040B2 - 000040B6 (0x5 bytes), align: 0
  Segment part 46.            Intra module refs:   ?Subroutine0
                                                   adpTxCompData
    -------------------------------------------------------------------------
<BANKED_CODE> 1 (was BANKED_CODE)
  Relative segment, address: CODE 000040B7 - 000040C5 (0xf bytes), align: 0
  Segment part 47.            Intra module refs:   ?Subroutine1
                                                   Segment part 46
           LOCAL                   ADDRESS         
           =====                   =======         
           ?Subroutine28           000040B7 
    -------------------------------------------------------------------------
<BANKED_CODE> 1 (was BANKED_CODE)
  Relative segment, address: CODE 000040C6 - 000040CB (0x6 bytes), align: 0
  Segment part 48.            Intra module refs:   ?Subroutine28
                                                   Segment part 87
                                                   adpParseCompHdr
                                                   adpRxHandoff
                                                   adpTxCompData
                                                   adpTxData
           LOCAL                   ADDRESS         
           =====                   =======         
           ?Subroutine39           000040C6 
    -------------------------------------------------------------------------
CODE_C
  Relative segment, address: CODE 00000BBA - 00000BE4 (0x2b bytes), align: 0
  Segment part 14.            Intra module refs:   adpTxData
           LOCAL                   ADDRESS         
           =====                   =======         
           adpTxData{2}{3}::xxxxromstr
                                   00000BBA 
    -------------------------------------------------------------------------
CODE_C
  Relative segment, address: CODE 00000BE5 - 00000BF5 (0x11 bytes), align: 0
  Segment part 15.            Intra module refs:   adpTxData
           LOCAL                   ADDRESS         
           =====                   =======         
           adpTxData{5}{6}{7}::xxxxromstr
                                   00000BE5 
    -------------------------------------------------------------------------
CODE_C
  Relative segment, address: CODE 00000BF6 - 00000C00 (0xb bytes), align: 0
  Segment part 16.            Intra module refs:   adpTxData
           LOCAL                   ADDRESS         
           =====                   =======         
           adpTxData{5}{6}{8}{9}::xxxxromstr
                                   00000BF6 
    -------------------------------------------------------------------------
CODE_C
  Relative segment, address: CODE 00000C01 - 00000C17 (0x17 bytes), align: 0
  Segment part 17.            Intra module refs:   adpTxData
           LOCAL                   ADDRESS         
           =====                   =======         
           adpTxData{5}{6}{8}{10}{11}::xxxxromstr
                                   00000C01 
    -------------------------------------------------------------------------
CODE_C
  Relative segment, address: CODE 00000C18 - 00000C19 (0x2 bytes), align: 0
  Segment part 18.            Intra module refs:   adpTxData
           LOCAL                   ADDRESS         
           =====                   =======         
           adpTxData{5}{6}{8}{12}::xxxxromstr
                                   00000C18 
    -------------------------------------------------------------------------
<BANKED_CODE> 1 (was BANKED_CODE)
  Relative segment, address: CODE 000040CC - 00004274 (0x1a9 bytes), align: 0
  Segment part 49.            Intra module refs:   adpRxFSM::?relay
           LOCAL                   ADDRESS         
           =====                   =======         
           adpRxFSM                000040CC 
               calls direct
               ISTACK = 00000000 ( 00000003 )
    -------------------------------------------------------------------------
<BANKED_CODE> 1 (was BANKED_CODE)
  Relative segment, address: CODE 00004275 - 00004275 (0x1 bytes), align: 0
  Segment part 51.            Intra module refs:   adpInit
                                                   adpRxHandoff
           LOCAL                   ADDRESS         
           =====                   =======         
           ?Subroutine37           00004275 
    -------------------------------------------------------------------------
<BANKED_CODE> 1 (was BANKED_CODE)
  Relative segment, address: CODE 00004276 - 0000427C (0x7 bytes), align: 0
  Segment part 52.            Intra module refs:   ?Subroutine37
                                                   adpFSM
                                                   adpRxBusy
                                                   adpRxFSM
    -------------------------------------------------------------------------
<BANKED_CODE> 1 (was BANKED_CODE)
  Relative segment, address: CODE 0000427D - 00004286 (0xa bytes), align: 0
  Segment part 53.            Intra module refs:   adpRxFSM
           LOCAL                   ADDRESS         
           =====                   =======         
           ?Subroutine21           0000427D 
    -------------------------------------------------------------------------
CODE_C
  Relative segment, address: CODE 00000C1A - 00000C62 (0x49 bytes), align: 0
  Segment part 19.            Intra module refs:   adpRxFSM
           LOCAL                   ADDRESS         
           =====                   =======         
           adpRxFSM{1}{4}{5}::xxxxromstr
                                   00000C1A 
    -------------------------------------------------------------------------
CODE_C
  Relative segment, address: CODE 00000C63 - 00000C8D (0x2b bytes), align: 0
  Segment part 20.            Intra module refs:   adpRxFSM
           LOCAL                   ADDRESS         
           =====                   =======         
           adpRxFSM{1}{10}{11}::xxxxromstr
                                   00000C63 
    -------------------------------------------------------------------------
CODE_C
  Relative segment, address: CODE 00000C8E - 00000C9E (0x11 bytes), align: 0
  Segment part 21.            Intra module refs:   adpRxFSM
           LOCAL                   ADDRESS         
           =====                   =======         
           adpRxFSM{1}{10}{12}::xxxxromstr
                                   00000C8E 
    -------------------------------------------------------------------------
CODE_C
  Relative segment, address: CODE 00000C9F - 00000CBB (0x1d bytes), align: 0
  Segment part 22.            Intra module refs:   adpRxFSM
           LOCAL                   ADDRESS         
           =====                   =======         
           adpRxFSM{1}{13}::xxxxromstr
                                   00000C9F 
    -------------------------------------------------------------------------
CODE_C
  Relative segment, address: CODE 00000CBC - 00000CBD (0x2 bytes), align: 0
  Segment part 23.            Intra module refs:   adpRxFSM
           LOCAL                   ADDRESS         
           =====                   =======         
           adpRxFSM{1}{14}::xxxxromstr
                                   00000CBC 
    -------------------------------------------------------------------------
CODE_C
  Relative segment, address: CODE 00000CBE - 00000CE4 (0x27 bytes), align: 0
  Segment part 24.            Intra module refs:   adpRxFSM
           LOCAL                   ADDRESS         
           =====                   =======         
           adpRxFSM{1}{15}{16}::xxxxromstr
                                   00000CBE 
    -------------------------------------------------------------------------
CODE_C
  Relative segment, address: CODE 00000CE5 - 00000CF0 (0xc bytes), align: 0
  Segment part 25.            Intra module refs:   adpRxFSM
           LOCAL                   ADDRESS         
           =====                   =======         
           adpRxFSM{1}{15}{17}::xxxxromstr
                                   00000CE5 
    -------------------------------------------------------------------------
CODE_C
  Relative segment, address: CODE 00000CF1 - 00000CFC (0xc bytes), align: 0
  Segment part 26.            Intra module refs:   adpRxFSM
           LOCAL                   ADDRESS         
           =====                   =======         
           adpRxFSM{1}{15}{18}::xxxxromstr
                                   00000CF1 
    -------------------------------------------------------------------------
CODE_C
  Relative segment, address: CODE 00000CFD - 00000CFE (0x2 bytes), align: 0
  Segment part 27.            Intra module refs:   adpRxFSM
           LOCAL                   ADDRESS         
           =====                   =======         
           adpRxFSM{1}{15}{19}::xxxxromstr
                                   00000CFD 
    -------------------------------------------------------------------------
<BANKED_CODE> 1 (was BANKED_CODE)
  Relative segment, address: CODE 00004287 - 00004298 (0x12 bytes), align: 0
  Segment part 54.            Intra module refs:   adpRxBusy::?relay
           ENTRY                   ADDRESS         REF BY
           =====                   =======         ======
           adpRxBusy               00004287 
               ISTACK = 00000000 ( 00000002 )
    -------------------------------------------------------------------------
<BANKED_CODE> 1 (was BANKED_CODE)
  Relative segment, address: CODE 00004299 - 000042C8 (0x30 bytes), align: 0
  Segment part 56.            Intra module refs:   adpRxHandoff::?relay
           ENTRY                   ADDRESS         REF BY
           =====                   =======         ======
           adpRxHandoff            00004299 
               ISTACK = 00000000 ( 00000002 )
    -------------------------------------------------------------------------
<BANKED_CODE> 1 (was BANKED_CODE)
  Relative segment, address: CODE 000042C9 - 00004388 (0xc0 bytes), align: 0
  Segment part 58.            Intra module refs:   adpCopyFwdPkt::?relay
           ENTRY                   ADDRESS         REF BY
           =====                   =======         ======
           adpCopyFwdPkt           000042C9 
               calls direct
               XSTACK = 00000000 ( 0000000A )
               ISTACK = 00000000 ( 00000001 )
    -------------------------------------------------------------------------
<BANKED_CODE> 1 (was BANKED_CODE)
  Relative segment, address: CODE 00004389 - 0000438E (0x6 bytes), align: 0
  Segment part 60.            Intra module refs:   ?Subroutine20
                                                   ?Subroutine21
                                                   adpCopyFwdPkt
                                                   adpRxFSM
                                                   adpTxData
           LOCAL                   ADDRESS         
           =====                   =======         
           ?Subroutine29           00004389 
    -------------------------------------------------------------------------
<BANKED_CODE> 1 (was BANKED_CODE)
  Relative segment, address: CODE 0000438F - 00004395 (0x7 bytes), align: 0
  Segment part 61.            Intra module refs:   adpCopyFwdPkt
                                                   adpRxFSM
           LOCAL                   ADDRESS         
           =====                   =======         
           ?Subroutine20           0000438F 
    -------------------------------------------------------------------------
<BANKED_CODE> 1 (was BANKED_CODE)
  Relative segment, address: CODE 00004396 - 000043A5 (0x10 bytes), align: 0
  Segment part 62.            Intra module refs:   adpCopyFwdPkt
                                                   adpRxFSM
           LOCAL                   ADDRESS         
           =====                   =======         
           ?Subroutine19           00004396 
    -------------------------------------------------------------------------
<BANKED_CODE> 1 (was BANKED_CODE)
  Relative segment, address: CODE 000043A6 - 000043AA (0x5 bytes), align: 0
  Segment part 63.            Intra module refs:   adpCopyFwdPkt
                                                   adpParseCompHdr
                                                   adpRxHandoff
           LOCAL                   ADDRESS         
           =====                   =======         
           ?Subroutine18           000043A6 
    -------------------------------------------------------------------------
<BANKED_CODE> 1 (was BANKED_CODE)
  Relative segment, address: CODE 000043AB - 000043B3 (0x9 bytes), align: 0
  Segment part 64.            Intra module refs:   ?Subroutine18
                                                   adpRxHandoff
           LOCAL                   ADDRESS         
           =====                   =======         
           ?Subroutine33           000043AB 
    -------------------------------------------------------------------------
<BANKED_CODE> 1 (was BANKED_CODE)
  Relative segment, address: CODE 000043B4 - 000043BC (0x9 bytes), align: 0
  Segment part 65.            Intra module refs:   adpCopyFwdPkt
                                                   adpRxFSM
           LOCAL                   ADDRESS         
           =====                   =======         
           ?Subroutine15           000043B4 
    -------------------------------------------------------------------------
<BANKED_CODE> 1 (was BANKED_CODE)
  Relative segment, address: CODE 000043BD - 000043C7 (0xb bytes), align: 0
  Segment part 66.            Intra module refs:   adpCopyFwdPkt
                                                   adpRxFSM
           LOCAL                   ADDRESS         
           =====                   =======         
           ?Subroutine6            000043BD 
    -------------------------------------------------------------------------
<BANKED_CODE> 1 (was BANKED_CODE)
  Relative segment, address: CODE 000043C8 - 000043CA (0x3 bytes), align: 0
  Segment part 73.            Intra module refs:   adpTxCompData
           LOCAL                   ADDRESS         
           =====                   =======         
           ?Subroutine23           000043C8 
    -------------------------------------------------------------------------
<BANKED_CODE> 1 (was BANKED_CODE)
  Relative segment, address: CODE 000043CB - 000043D0 (0x6 bytes), align: 0
  Segment part 74.            Intra module refs:   ?Subroutine23
                                                   adpCopyFwdPkt
                                                   adpTxData
    -------------------------------------------------------------------------
<BANKED_CODE> 1 (was BANKED_CODE)
  Relative segment, address: CODE 000043D1 - 00004668 (0x298 bytes), align: 0
  Segment part 77.            Intra module refs:   adpParseCompHdr::?relay
           ENTRY                   ADDRESS         REF BY
           =====                   =======         ======
           adpParseCompHdr         000043D1 
               calls direct
               XSTACK = 00000000 ( 0000000F )
               ISTACK = 00000000 ( 00000001 )
    -------------------------------------------------------------------------
<BANKED_CODE> 1 (was BANKED_CODE)
  Relative segment, address: CODE 00004669 - 0000467C (0x14 bytes), align: 0
  Segment part 79.            Intra module refs:   adpParseCompHdr
                                                   adpRxFSM
           LOCAL                   ADDRESS         
           =====                   =======         
           ?Subroutine17           00004669 
    -------------------------------------------------------------------------
<BANKED_CODE> 1 (was BANKED_CODE)
  Relative segment, address: CODE 0000467D - 0000467F (0x3 bytes), align: 0
  Segment part 80.            Intra module refs:   adpFmtCompHeader
                                                   adpParseCompHdr
                                                   adpRxFSM
                                                   adpTxData
           LOCAL                   ADDRESS         
           =====                   =======         
           ?Subroutine16           0000467D 
    -------------------------------------------------------------------------
<BANKED_CODE> 1 (was BANKED_CODE)
  Relative segment, address: CODE 00004680 - 00004684 (0x5 bytes), align: 0
  Segment part 81.            Intra module refs:   ?Subroutine16
                                                   adpRxFSM
                                                   adpTxData
    -------------------------------------------------------------------------
<BANKED_CODE> 1 (was BANKED_CODE)
  Relative segment, address: CODE 00004685 - 00004688 (0x4 bytes), align: 0
  Segment part 82.            Intra module refs:   adpParseCompHdr
           LOCAL                   ADDRESS         
           =====                   =======         
           ?Subroutine12           00004685 
    -------------------------------------------------------------------------
<BANKED_CODE> 1 (was BANKED_CODE)
  Relative segment, address: CODE 00004689 - 0000468F (0x7 bytes), align: 0
  Segment part 83.            Intra module refs:   ?Subroutine11
                                                   ?Subroutine12
           LOCAL                   ADDRESS         
           =====                   =======         
           ?Subroutine26           00004689 
    -------------------------------------------------------------------------
<BANKED_CODE> 1 (was BANKED_CODE)
  Relative segment, address: CODE 00004690 - 00004694 (0x5 bytes), align: 0
  Segment part 84.            Intra module refs:   adpParseCompHdr
           LOCAL                   ADDRESS         
           =====                   =======         
           ?Subroutine11           00004690 
    -------------------------------------------------------------------------
<BANKED_CODE> 1 (was BANKED_CODE)
  Relative segment, address: CODE 00004695 - 0000469D (0x9 bytes), align: 0
  Segment part 85.            Intra module refs:   adpCopyFwdPkt
                                                   adpTxCompData
                                                   adpTxData
           LOCAL                   ADDRESS         
           =====                   =======         
           ?Subroutine7            00004695 
    -------------------------------------------------------------------------
<BANKED_CODE> 1 (was BANKED_CODE)
  Relative segment, address: CODE 0000469E - 0000469F (0x2 bytes), align: 0
  Segment part 86.            Intra module refs:   ?Subroutine7
                                                   adpTxCompData
    -------------------------------------------------------------------------
<BANKED_CODE> 1 (was BANKED_CODE)
  Relative segment, address: CODE 000046A0 - 000046A6 (0x7 bytes), align: 0
  Segment part 87.            Intra module refs:   Segment part 86
                                                   adpTxCompData
    -------------------------------------------------------------------------
<BANKED_CODE> 1 (was BANKED_CODE)
  Relative segment, address: CODE 000046A7 - 000046AD (0x7 bytes), align: 0
  Segment part 88.            Intra module refs:   adpParseCompHdr
           LOCAL                   ADDRESS         
           =====                   =======         
           ?Subroutine2            000046A7 
    -------------------------------------------------------------------------
<BANKED_CODE> 1 (was BANKED_CODE)
  Relative segment, address: CODE 000046AE - 000046B3 (0x6 bytes), align: 0
  Segment part 89.            Intra module refs:   ?Subroutine2
                                                   ?Subroutine9
           LOCAL                   ADDRESS         
           =====                   =======         
           ?Subroutine40           000046AE 
    -------------------------------------------------------------------------
CODE_C
  Relative segment, address: CODE 00000CFF - 00000D27 (0x29 bytes), align: 0
  Segment part 30.            Intra module refs:   adpParseCompHdr
           LOCAL                   ADDRESS         
           =====                   =======         
           adpParseCompHdr{1}{3}::xxxxromstr
                                   00000CFF 
    -------------------------------------------------------------------------
CODE_C
  Relative segment, address: CODE 00000D28 - 00000D47 (0x20 bytes), align: 0
  Segment part 31.            Intra module refs:   adpParseCompHdr
           LOCAL                   ADDRESS         
           =====                   =======         
           adpParseCompHdr{1}{5}::xxxxromstr
                                   00000D28 
    -------------------------------------------------------------------------
CODE_C
  Relative segment, address: CODE 00000D48 - 00000D60 (0x19 bytes), align: 0
  Segment part 32.            Intra module refs:   adpParseCompHdr
           LOCAL                   ADDRESS         
           =====                   =======         
           adpParseCompHdr{1}{27}{28}::xxxxromstr
                                   00000D48 
    -------------------------------------------------------------------------
CODE_C
  Relative segment, address: CODE 00000D61 - 00000D94 (0x34 bytes), align: 0
  Segment part 33.            Intra module refs:   adpParseCompHdr
           LOCAL                   ADDRESS         
           =====                   =======         
           adpParseCompHdr{1}{30}::xxxxromstr
                                   00000D61 
    -------------------------------------------------------------------------
<BANKED_CODE> 1 (was BANKED_CODE)
  Relative segment, address: CODE 000046B4 - 00004772 (0xbf bytes), align: 0
  Segment part 90.            Intra module refs:   adpFmtCompHeader::?relay
           ENTRY                   ADDRESS         REF BY
           =====                   =======         ======
           adpFmtCompHeader        000046B4 
               calls direct
               XSTACK = 00000000 ( 0000000C )
               ISTACK = 00000000 ( 00000002 )
    -------------------------------------------------------------------------
<BANKED_CODE> 1 (was BANKED_CODE)
  Relative segment, address: CODE 00004773 - 00004777 (0x5 bytes), align: 0
  Segment part 92.            Intra module refs:   adpFmtCompHeader
                                                   adpTxCompData
           LOCAL                   ADDRESS         
           =====                   =======         
           ?Subroutine43           00004773 
    -------------------------------------------------------------------------
CODE_C
  Relative segment, address: CODE 00000D95 - 00000DAD (0x19 bytes), align: 0
  Segment part 34.            Intra module refs:   adpFmtCompHeader
           LOCAL                   ADDRESS         
           =====                   =======         
           adpFmtCompHeader{1}::xxxxromstr
                                   00000D95 
    -------------------------------------------------------------------------
<BANKED_CODE> 1 (was BANKED_CODE)
  Relative segment, address: CODE 00004778 - 000048B5 (0x13e bytes), align: 0
  Segment part 93.            Intra module refs:   adpTxCompData::?relay
           ENTRY                   ADDRESS         REF BY
           =====                   =======         ======
           adpTxCompData           00004778 
               XSTACK = 00000000 ( 0000000C )
               ISTACK = 00000000 ( 00000001 )
    -------------------------------------------------------------------------
<BANKED_CODE> 1 (was BANKED_CODE)
  Relative segment, address: CODE 000048B6 - 000048BD (0x8 bytes), align: 0
  Segment part 95.            Intra module refs:   adpTxCompData
           LOCAL                   ADDRESS         
           =====                   =======         
           ?Subroutine9            000048B6 
    -------------------------------------------------------------------------
<BANKED_CODE> 1 (was BANKED_CODE)
  Relative segment, address: CODE 000048BE - 000048C4 (0x7 bytes), align: 0
  Segment part 96.            Intra module refs:   ?Subroutine31
                                                   ?Subroutine9
                                                   adpCopyFwdPkt
           LOCAL                   ADDRESS         
           =====                   =======         
           ?Subroutine36           000048BE 
    -------------------------------------------------------------------------
<BANKED_CODE> 1 (was BANKED_CODE)
  Relative segment, address: CODE 000048C5 - 000048C9 (0x5 bytes), align: 0
  Segment part 97.            Intra module refs:   adpTxCompData
           LOCAL                   ADDRESS         
           =====                   =======         
           ?Subroutine8            000048C5 
    -------------------------------------------------------------------------
<BANKED_CODE> 1 (was BANKED_CODE)
  Relative segment, address: CODE 000048CA - 000048D1 (0x8 bytes), align: 0
  Segment part 98.            Intra module refs:   ?Subroutine8
                                                   adpTxCompData
           LOCAL                   ADDRESS         
           =====                   =======         
           ?Subroutine31           000048CA 
    -------------------------------------------------------------------------
<BANKED_CODE> 1 (was BANKED_CODE)
  Relative segment, address: CODE 000048D2 - 000048E4 (0x13 bytes), align: 0
  Segment part 99.            Intra module refs:   adpTxCompData
           LOCAL                   ADDRESS         
           =====                   =======         
           ?Subroutine3            000048D2 
    -------------------------------------------------------------------------
<BANKED_CODE> 1 (was BANKED_CODE)
  Relative segment, address: CODE 000048E5 - 000048F4 (0x10 bytes), align: 0
  Segment part 100.           Intra module refs:   ?Subroutine3
                                                   adpTxCompData
           LOCAL                   ADDRESS         
           =====                   =======         
           ?Subroutine30           000048E5 
    -------------------------------------------------------------------------
<BANKED_CODE> 1 (was BANKED_CODE)
  Relative segment, address: CODE 000048F5 - 00004903 (0xf bytes), align: 0
  Segment part 101.           Intra module refs:   adpTxCompData
           LOCAL                   ADDRESS         
           =====                   =======         
           ?Subroutine1            000048F5 
    -------------------------------------------------------------------------
<BANKED_CODE> 1 (was BANKED_CODE)
  Relative segment, address: CODE 00004904 - 00004911 (0xe bytes), align: 0
  Segment part 104.           Intra module refs:   adpFSM
           LOCAL                   ADDRESS         
           =====                   =======         
           ?Subroutine5            00004904 
    -------------------------------------------------------------------------
<BANKED_CODE> 1 (was BANKED_CODE)
  Relative segment, address: CODE 00004912 - 00004917 (0x6 bytes), align: 0
  Segment part 107.           Intra module refs:   adpParseCompHdr
           LOCAL                   ADDRESS         
           =====                   =======         
           ?Subroutine42           00004912 
    -------------------------------------------------------------------------
<BANKED_CODE> 1 (was BANKED_CODE)
  Relative segment, address: CODE 00004918 - 0000491A (0x3 bytes), align: 0
  Segment part 108.           Intra module refs:   ?Subroutine5
           LOCAL                   ADDRESS         
           =====                   =======         
           ?Subroutine32           00004918 
    -------------------------------------------------------------------------
<BANKED_CODE> 1 (was BANKED_CODE)
  Relative segment, address: CODE 0000491B - 00004921 (0x7 bytes), align: 0
  Segment part 109.           Intra module refs:   ?Subroutine32
                                                   ?Subroutine5
    -------------------------------------------------------------------------
<BANKED_CODE> 1 (was BANKED_CODE)
  Relative segment, address: CODE 00004922 - 0000492E (0xd bytes), align: 0
  Segment part 111.           Intra module refs:   adpFSM
           LOCAL                   ADDRESS         
           =====                   =======         
           ?Subroutine34           00004922 
    -------------------------------------------------------------------------
<BANKED_CODE> 1 (was BANKED_CODE)
  Relative segment, address: CODE 0000492F - 00004932 (0x4 bytes), align: 0
  Segment part 112.           Intra module refs:   adpParseCompHdr
           LOCAL                   ADDRESS         
           =====                   =======         
           ?Subroutine14           0000492F 
    -------------------------------------------------------------------------
<BANKED_CODE> 1 (was BANKED_CODE)
  Relative segment, address: CODE 00004933 - 00004939 (0x7 bytes), align: 0
  Segment part 113.           Intra module refs:   ?Subroutine14
                                                   ?Subroutine2
                                                   ?Subroutine26
           LOCAL                   ADDRESS         
           =====                   =======         
           ?Subroutine35           00004933 
    -------------------------------------------------------------------------
XDATA_I
  Relative segment, address: XDATA 00001188 - 0000118B (0x4 bytes), align: 0
  Segment part 35.            Intra module refs:   ?Subroutine6 (nd)
                                                   adpFmtCompHeader
                                                   adpParseCompHdr
                                                   apsTxData (aps)
                                                   doIEEE_backoff (halStack)
                                                   ds6Init (ds)
                                                   ds6LocalIPFrom16 (ds)
                                                   halWait (halStack)
                                                   icmpCommonFmt (icmpv6)
                                                   lowsn_ds6_uaddr_add (ds)
                                                   macInit (mac)
                                                   main (test_demo)
           ENTRY                   ADDRESS         REF BY
           =====                   =======         ======
           __Constant_0            00001188 
    -------------------------------------------------------------------------
XDATA_ID
  Relative segment, address: CODE 0000013F - 00000142 (0x4 bytes), align: 0
  Segment part 36.            Intra module refs:   __Constant_0
    -------------------------------------------------------------------------
BANK_RELAYS
  Relative segment, address: CODE 00000187 - 0000018C (0x6 bytes), align: 0
  Segment part 38.
           ENTRY                   ADDRESS         REF BY
           =====                   =======         ======
           adpInit::?relay         00000187        apsInit (aps)
    -------------------------------------------------------------------------
BANK_RELAYS
  Relative segment, address: CODE 0000018D - 00000192 (0x6 bytes), align: 0
  Segment part 40.
           ENTRY                   ADDRESS         REF BY
           =====                   =======         ======
           adpFSM::?relay          0000018D        ?Subroutine17 (nwk)
                                                   nwkFSM (nwk)
    -------------------------------------------------------------------------
BANK_RELAYS
  Relative segment, address: CODE 00000193 - 00000198 (0x6 bytes), align: 0
  Segment part 42.            Intra module refs:   adpFSM
           ENTRY                   ADDRESS         REF BY
           =====                   =======         ======
           adpTxData::?relay       00000193 
    -------------------------------------------------------------------------
BANK_RELAYS
  Relative segment, address: CODE 00000199 - 0000019E (0x6 bytes), align: 0
  Segment part 50.            Intra module refs:   adpFSM
           LOCAL                   ADDRESS         
           =====                   =======         
           adpRxFSM::?relay        00000199 
    -------------------------------------------------------------------------
BANK_RELAYS
  Relative segment, address: CODE 0000019F - 000001A4 (0x6 bytes), align: 0
  Segment part 55.
           ENTRY                   ADDRESS         REF BY
           =====                   =======         ======
           adpRxBusy::?relay       0000019F        macRxFSM (mac)
    -------------------------------------------------------------------------
BANK_RELAYS
  Relative segment, address: CODE 000001A5 - 000001AA (0x6 bytes), align: 0
  Segment part 57.
           ENTRY                   ADDRESS         REF BY
           =====                   =======         ======
           adpRxHandoff::?relay    000001A5        macRxFSM (mac)
    -------------------------------------------------------------------------
BANK_RELAYS
  Relative segment, address: CODE 000001AB - 000001B0 (0x6 bytes), align: 0
  Segment part 59.            Intra module refs:   adpFSM
           ENTRY                   ADDRESS         REF BY
           =====                   =======         ======
           adpCopyFwdPkt::?relay   000001AB 
    -------------------------------------------------------------------------
BANK_RELAYS
  Relative segment, address: CODE 000001B1 - 000001B6 (0x6 bytes), align: 0
  Segment part 78.            Intra module refs:   adpRxFSM
           ENTRY                   ADDRESS         REF BY
           =====                   =======         ======
           adpParseCompHdr::?relay
                                   000001B1 
    -------------------------------------------------------------------------
BANK_RELAYS
  Relative segment, address: CODE 000001B7 - 000001BC (0x6 bytes), align: 0
  Segment part 91.            Intra module refs:   adpFSM
           ENTRY                   ADDRESS         REF BY
           =====                   =======         ======
           adpFmtCompHeader::?relay
                                   000001B7 
    -------------------------------------------------------------------------
BANK_RELAYS
  Relative segment, address: CODE 000001BD - 000001C2 (0x6 bytes), align: 0
  Segment part 94.            Intra module refs:   adpFSM
           ENTRY                   ADDRESS         REF BY
           =====                   =======         ======
           adpTxCompData::?relay   000001BD 

    *************************************************************************

  FILE NAME : F:\6LoWSN\6lowsn_stack\obj\compiletest\iar51_cc2530\coord\Obj\aps.r51
  PROGRAM MODULE, NAME : aps

  SEGMENTS IN THE MODULE
  ======================
SFR_AN
  Relative segment, address: DATA 000000A8 - 000000A8 (0x1 bytes), align: 0
  Segment part 1. ROOT.       Intra module refs:   MemAlloc (memalloc)
                                                   MemFree (memalloc)
                                                   halGetMACTimer (halStack)
                                                   halInitMACTimer (halStack)
                                                   halInitRadio (halStack)
                                                   halInitUart (halStack)
                                                   halSetRadioIEEEFrequency (halStack)
                                                   hal_Timer2_Isr (halStack)
                                                   hal_Uart0_RxIsr (halStack)
                                                   hal_rf_Isr (halStack)
                                                   hal_rferr_Isr (halStack)
                                                   main (test_demo)
           ENTRY                   ADDRESS         REF BY
           =====                   =======         ======
           _A_IEN0                 000000A8 
    -------------------------------------------------------------------------
XDATA_Z
  Relative segment, address: XDATA 0000028B - 00000345 (0xbb bytes), align: 0
  Segment part 7.             Intra module refs:   ?Subroutine15
                                                   ?Subroutine28
                                                   ?Subroutine42
                                                   apsFSM
                                                   apsInit
                                                   apsRxFSM
                                                   apsTxData
                                                   apsTxFSM
           ENTRY                   ADDRESS         REF BY
           =====                   =======         ======
           aps_pib                 0000028B        ?Subroutine1 (mp)
                                                   mpCommonFmt (mp)
    -------------------------------------------------------------------------
XDATA_Z
  Relative segment, address: XDATA 00000346 - 00000359 (0x14 bytes), align: 0
  Segment part 8.             Intra module refs:   apsFSM
           ENTRY                   ADDRESS         REF BY
           =====                   =======         ======
           a_aps_service           00000346        main (test_demo)
    -------------------------------------------------------------------------
XDATA_Z
  Relative segment, address: XDATA 0000035A - 0000035A (0x1 bytes), align: 0
  Segment part 9.             Intra module refs:   apsFSM
                                                   apsInit
           ENTRY                   ADDRESS         REF BY
           =====                   =======         ======
           apsState                0000035A        main (test_demo)
    -------------------------------------------------------------------------
XDATA_Z
  Relative segment, address: XDATA 0000035B - 00000398 (0x3e bytes), align: 0
  Segment part 11.            Intra module refs:   ?Subroutine12
                                                   ?Subroutine35
                                                   Segment part 91
                                                   apsFSM
                                                   apsRxFSM
                                                   apsTxData
                                                   apsTxFSM
           ENTRY                   ADDRESS         REF BY
           =====                   =======         ======
           a_aps_tx_data           0000035B        ?Subroutine1 (mp)
                                                   ?Subroutine2 (mp)
                                                   ?Subroutine3 (mp)
                                                   mpCommonFmt (mp)
                                                   mpFmtReadResponse (mp)
    -------------------------------------------------------------------------
XDATA_Z
  Relative segment, address: XDATA 00000399 - 000003EA (0x52 bytes), align: 0
  Segment part 12.            Intra module refs:   ?Subroutine10
                                                   ?Subroutine16
                                                   apsFSM
                                                   apsParseHdr
                                                   apsRxFSM
                                                   apsRxHandoff
           ENTRY                   ADDRESS         REF BY
           =====                   =======         ======
           a_aps_rx_data           00000399        ?Subroutine8 (mp)
                                                   mpFmtReadResponse (mp)
                                                   mpHandleRxReport (mp)
                                                   usrRxPacketCallback (test_demo)
    -------------------------------------------------------------------------
XDATA_Z
  Relative segment, address: XDATA 000003EB - 000003EE (0x4 bytes), align: 0
  Segment part 14.            Intra module refs:   ?Subroutine31
           LOCAL                   ADDRESS         
           =====                   =======         
           aps_utility_timer       000003EB 
    -------------------------------------------------------------------------
XDATA_Z
  Relative segment, address: XDATA 000003EF - 000003EF (0x1 bytes), align: 0
  Segment part 15.            Intra module refs:   apsInit
                                                   apsRxBusy
                                                   apsRxFSM
                                                   apsRxHandoff
           LOCAL                   ADDRESS         
           =====                   =======         
           apsRxState              000003EF 
    -------------------------------------------------------------------------
XDATA_Z
  Relative segment, address: XDATA 000003F0 - 000003F0 (0x1 bytes), align: 0
  Segment part 16.            Intra module refs:   apsFSM
                                                   apsTxData
                                                   apsTxFSM
           LOCAL                   ADDRESS         
           =====                   =======         
           apsTxFSM_status         000003F0 
    -------------------------------------------------------------------------
<BANKED_CODE> 1 (was BANKED_CODE)
  Relative segment, address: CODE 0000493A - 00004992 (0x59 bytes), align: 0
  Segment part 53.            Intra module refs:   apsInit::?relay
           ENTRY                   ADDRESS         REF BY
           =====                   =======         ======
           apsInit                 0000493A 
               calls direct
               XSTACK = 00000000 ( 0000000C )
    -------------------------------------------------------------------------
<BANKED_CODE> 1 (was BANKED_CODE)
  Relative segment, address: CODE 00004993 - 00004996 (0x4 bytes), align: 0
  Segment part 69.            Intra module refs:   apsRxHandoff
                                                   apsTxData
           LOCAL                   ADDRESS         
           =====                   =======         
           ?Subroutine26           00004993 
    -------------------------------------------------------------------------
<BANKED_CODE> 1 (was BANKED_CODE)
  Relative segment, address: CODE 00004997 - 00004CF0 (0x35a bytes), align: 0
  Segment part 70.            Intra module refs:   apsFSM::?relay
           ENTRY                   ADDRESS         REF BY
           =====                   =======         ======
           apsFSM                  00004997 
               calls direct
               XSTACK = 00000013 ( 00000020 )
    -------------------------------------------------------------------------
<BANKED_CODE> 1 (was BANKED_CODE)
  Relative segment, address: CODE 00004CF1 - 00004CF7 (0x7 bytes), align: 0
  Segment part 72.            Intra module refs:   Segment part 76
                                                   apsFSM
           LOCAL                   ADDRESS         
           =====                   =======         
           ?Subroutine39           00004CF1 
    -------------------------------------------------------------------------
<BANKED_CODE> 1 (was BANKED_CODE)
  Relative segment, address: CODE 00004CF8 - 00004D00 (0x9 bytes), align: 0
  Segment part 73.            Intra module refs:   apsFSM
           LOCAL                   ADDRESS         
           =====                   =======         
           ?Subroutine31           00004CF8 
    -------------------------------------------------------------------------
<BANKED_CODE> 1 (was BANKED_CODE)
  Relative segment, address: CODE 00004D01 - 00004D05 (0x5 bytes), align: 0
  Segment part 74.            Intra module refs:   apsFSM
           LOCAL                   ADDRESS         
           =====                   =======         
           ?Subroutine21           00004D01 
    -------------------------------------------------------------------------
<BANKED_CODE> 1 (was BANKED_CODE)
  Relative segment, address: CODE 00004D06 - 00004D08 (0x3 bytes), align: 0
  Segment part 75.            Intra module refs:   apsFSM
           LOCAL                   ADDRESS         
           =====                   =======         
           ?Subroutine19           00004D06 
    -------------------------------------------------------------------------
<BANKED_CODE> 1 (was BANKED_CODE)
  Relative segment, address: CODE 00004D09 - 00004D0D (0x5 bytes), align: 0
  Segment part 76.            Intra module refs:   ?Subroutine19
    -------------------------------------------------------------------------
<BANKED_CODE> 1 (was BANKED_CODE)
  Relative segment, address: CODE 00004D0E - 00004D16 (0x9 bytes), align: 0
  Segment part 77.            Intra module refs:   apsFSM
           LOCAL                   ADDRESS         
           =====                   =======         
           ?Subroutine14           00004D0E 
    -------------------------------------------------------------------------
<BANKED_CODE> 1 (was BANKED_CODE)
  Relative segment, address: CODE 00004D17 - 00004D19 (0x3 bytes), align: 0
  Segment part 78.            Intra module refs:   ?Subroutine14
                                                   ?Subroutine21
                                                   ?Subroutine4
           LOCAL                   ADDRESS         
           =====                   =======         
           ?Subroutine36           00004D17 
    -------------------------------------------------------------------------
<BANKED_CODE> 1 (was BANKED_CODE)
  Relative segment, address: CODE 00004D1A - 00004D1E (0x5 bytes), align: 0
  Segment part 79.            Intra module refs:   ?Subroutine30
                                                   ?Subroutine36
                                                   Segment part 112
                                                   apsFSM
                                                   apsParseHdr
                                                   apsRxFSM
                                                   apsTxData
                                                   apsTxFSM
           LOCAL                   ADDRESS         
           =====                   =======         
           ?Subroutine51           00004D1A 
    -------------------------------------------------------------------------
<BANKED_CODE> 1 (was BANKED_CODE)
  Relative segment, address: CODE 00004D1F - 00004D27 (0x9 bytes), align: 0
  Segment part 80.            Intra module refs:   apsFSM
           LOCAL                   ADDRESS         
           =====                   =======         
           ?Subroutine12           00004D1F 
    -------------------------------------------------------------------------
<BANKED_CODE> 1 (was BANKED_CODE)
  Relative segment, address: CODE 00004D28 - 00004D2B (0x4 bytes), align: 0
  Segment part 81.            Intra module refs:   apsFSM
           LOCAL                   ADDRESS         
           =====                   =======         
           ?Subroutine11           00004D28 
    -------------------------------------------------------------------------
<BANKED_CODE> 1 (was BANKED_CODE)
  Relative segment, address: CODE 00004D2C - 00004D34 (0x9 bytes), align: 0
  Segment part 82.            Intra module refs:   ?Subroutine11
           LOCAL                   ADDRESS         
           =====                   =======         
           ?Subroutine35           00004D2C 
    -------------------------------------------------------------------------
<BANKED_CODE> 1 (was BANKED_CODE)
  Relative segment, address: CODE 00004D35 - 00004D35 (0x1 bytes), align: 0
  Segment part 83.            Intra module refs:   apsFSM
           LOCAL                   ADDRESS         
           =====                   =======         
           ?Subroutine6            00004D35 
    -------------------------------------------------------------------------
<BANKED_CODE> 1 (was BANKED_CODE)
  Relative segment, address: CODE 00004D36 - 00004D38 (0x3 bytes), align: 0
  Segment part 84.            Intra module refs:   ?Subroutine6
                                                   apsFSM
                                                   apsRxFSM
    -------------------------------------------------------------------------
<BANKED_CODE> 1 (was BANKED_CODE)
  Relative segment, address: CODE 00004D39 - 00004D3D (0x5 bytes), align: 0
  Segment part 85.            Intra module refs:   ?Subroutine4
                                                   ?Subroutine6
                                                   Segment part 84
                                                   apsRxFSM
           LOCAL                   ADDRESS         
           =====                   =======         
           ?Subroutine52           00004D39 
    -------------------------------------------------------------------------
<BANKED_CODE> 1 (was BANKED_CODE)
  Relative segment, address: CODE 00004D3E - 00004D45 (0x8 bytes), align: 0
  Segment part 86.            Intra module refs:   apsFSM
           LOCAL                   ADDRESS         
           =====                   =======         
           ?Subroutine4            00004D3E 
    -------------------------------------------------------------------------
CODE_C
  Relative segment, address: CODE 00000DAE - 00000DC9 (0x1c bytes), align: 0
  Segment part 17.            Intra module refs:   apsFSM
           LOCAL                   ADDRESS         
           =====                   =======         
           apsFSM{1}{4}{5}{7}{9}{10}::xxxxromstr
                                   00000DAE 
    -------------------------------------------------------------------------
CODE_C
  Relative segment, address: CODE 00000DCA - 00000DE6 (0x1d bytes), align: 0
  Segment part 18.            Intra module refs:   apsFSM
           LOCAL                   ADDRESS         
           =====                   =======         
           apsFSM{1}{4}{5}{11}{13}{14}::xxxxromstr
                                   00000DCA 
    -------------------------------------------------------------------------
CODE_C
  Relative segment, address: CODE 00000DE7 - 00000E05 (0x1f bytes), align: 0
  Segment part 19.            Intra module refs:   apsFSM
           LOCAL                   ADDRESS         
           =====                   =======         
           apsFSM{1}{4}{5}{15}{17}{18}::xxxxromstr
                                   00000DE7 
    -------------------------------------------------------------------------
CODE_C
  Relative segment, address: CODE 00000E06 - 00000E25 (0x20 bytes), align: 0
  Segment part 20.            Intra module refs:   apsFSM
           LOCAL                   ADDRESS         
           =====                   =======         
           apsFSM{1}{4}{5}{19}{20}::xxxxromstr
                                   00000E06 
    -------------------------------------------------------------------------
CODE_C
  Relative segment, address: CODE 00000E26 - 00000E3F (0x1a bytes), align: 0
  Segment part 21.            Intra module refs:   apsFSM
           LOCAL                   ADDRESS         
           =====                   =======         
           apsFSM{1}{45}::xxxxromstr
                                   00000E26 
    -------------------------------------------------------------------------
CODE_C
  Relative segment, address: CODE 00000E40 - 00000E5A (0x1b bytes), align: 0
  Segment part 22.            Intra module refs:   apsFSM
           LOCAL                   ADDRESS         
           =====                   =======         
           apsFSM{1}{47}::xxxxromstr
                                   00000E40 
    -------------------------------------------------------------------------
CODE_C
  Relative segment, address: CODE 00000E5B - 00000E77 (0x1d bytes), align: 0
  Segment part 23.            Intra module refs:   apsFSM
           LOCAL                   ADDRESS         
           =====                   =======         
           apsFSM{1}{49}::xxxxromstr
                                   00000E5B 
    -------------------------------------------------------------------------
CODE_C
  Relative segment, address: CODE 00000E78 - 00000EA1 (0x2a bytes), align: 0
  Segment part 24.            Intra module refs:   apsFSM
           LOCAL                   ADDRESS         
           =====                   =======         
           apsFSM{1}{54}{55}::xxxxromstr
                                   00000E78 
    -------------------------------------------------------------------------
<BANKED_CODE> 1 (was BANKED_CODE)
  Relative segment, address: CODE 00004D46 - 00004EC7 (0x182 bytes), align: 0
  Segment part 87.            Intra module refs:   apsTxData::?relay
           ENTRY                   ADDRESS         REF BY
           =====                   =======         ======
           apsTxData               00004D46 
               calls direct
               XSTACK = 00000010 ( 0000000C )
               ISTACK = 00000000 ( 00000001 )
    -------------------------------------------------------------------------
<BANKED_CODE> 1 (was BANKED_CODE)
  Relative segment, address: CODE 00004EC8 - 00004ECC (0x5 bytes), align: 0
  Segment part 89.            Intra module refs:   apsInit
                                                   apsTxData
                                                   apsTxFSM
           LOCAL                   ADDRESS         
           =====                   =======         
           ?Subroutine47           00004EC8 
    -------------------------------------------------------------------------
<BANKED_CODE> 1 (was BANKED_CODE)
  Relative segment, address: CODE 00004ECD - 00004ECF (0x3 bytes), align: 0
  Segment part 90.            Intra module refs:   apsFSM
           LOCAL                   ADDRESS         
           =====                   =======         
           ?Subroutine29           00004ECD 
    -------------------------------------------------------------------------
<BANKED_CODE> 1 (was BANKED_CODE)
  Relative segment, address: CODE 00004ED0 - 00004ED5 (0x6 bytes), align: 0
  Segment part 91.            Intra module refs:   ?Subroutine29
                                                   apsFSM
                                                   apsTxData
    -------------------------------------------------------------------------
<BANKED_CODE> 1 (was BANKED_CODE)
  Relative segment, address: CODE 00004ED6 - 00004EE5 (0x10 bytes), align: 0
  Segment part 92.            Intra module refs:   apsFSM
                                                   apsTxData
           LOCAL                   ADDRESS         
           =====                   =======         
           ?Subroutine25           00004ED6 
    -------------------------------------------------------------------------
<BANKED_CODE> 1 (was BANKED_CODE)
  Relative segment, address: CODE 00004EE6 - 00004EE9 (0x4 bytes), align: 0
  Segment part 93.            Intra module refs:   apsTxData
           LOCAL                   ADDRESS         
           =====                   =======         
           ?Subroutine7            00004EE6 
    -------------------------------------------------------------------------
<BANKED_CODE> 1 (was BANKED_CODE)
  Relative segment, address: CODE 00004EEA - 00004EEC (0x3 bytes), align: 0
  Segment part 94.            Intra module refs:   apsTxData
           LOCAL                   ADDRESS         
           =====                   =======         
           ?Subroutine5            00004EEA 
    -------------------------------------------------------------------------
<BANKED_CODE> 1 (was BANKED_CODE)
  Relative segment, address: CODE 00004EED - 00004EF1 (0x5 bytes), align: 0
  Segment part 95.            Intra module refs:   ?Subroutine5
                                                   Segment part 105
           LOCAL                   ADDRESS         
           =====                   =======         
           ?Subroutine53           00004EED 
    -------------------------------------------------------------------------
<BANKED_CODE> 1 (was BANKED_CODE)
  Relative segment, address: CODE 00004EF2 - 00004EFA (0x9 bytes), align: 0
  Segment part 96.            Intra module refs:   apsTxData
           LOCAL                   ADDRESS         
           =====                   =======         
           ?Subroutine3            00004EF2 
    -------------------------------------------------------------------------
<BANKED_CODE> 1 (was BANKED_CODE)
  Relative segment, address: CODE 00004EFB - 00004F03 (0x9 bytes), align: 0
  Segment part 97.            Intra module refs:   apsTxData
           LOCAL                   ADDRESS         
           =====                   =======         
           ?Subroutine1            00004EFB 
    -------------------------------------------------------------------------
<BANKED_CODE> 1 (was BANKED_CODE)
  Relative segment, address: CODE 00004F04 - 00004F04 (0x1 bytes), align: 0
  Segment part 98.            Intra module refs:   ?Subroutine0
                                                   ?Subroutine1
                                                   ?Subroutine3
                                                   ?Subroutine7
           LOCAL                   ADDRESS         
           =====                   =======         
           ?Subroutine34           00004F04 
    -------------------------------------------------------------------------
<BANKED_CODE> 1 (was BANKED_CODE)
  Relative segment, address: CODE 00004F05 - 00004F13 (0xf bytes), align: 0
  Segment part 99.            Intra module refs:   ?Subroutine34
                                                   ?Subroutine5
    -------------------------------------------------------------------------
<BANKED_CODE> 1 (was BANKED_CODE)
  Relative segment, address: CODE 00004F14 - 00004F14 (0x1 bytes), align: 0
  Segment part 100.           Intra module refs:   ?Subroutine12
                                                   ?Subroutine34
                                                   ?Subroutine35
                                                   Segment part 99
           LOCAL                   ADDRESS         
           =====                   =======         
           ?Subroutine50           00004F14 
    -------------------------------------------------------------------------
<BANKED_CODE> 1 (was BANKED_CODE)
  Relative segment, address: CODE 00004F15 - 00004F19 (0x5 bytes), align: 0
  Segment part 101.           Intra module refs:   ?Subroutine26
                                                   ?Subroutine50
                                                   apsFSM
                                                   apsParseHdr
    -------------------------------------------------------------------------
<BANKED_CODE> 1 (was BANKED_CODE)
  Relative segment, address: CODE 00004F1A - 00004F21 (0x8 bytes), align: 0
  Segment part 102.           Intra module refs:   apsTxData
           LOCAL                   ADDRESS         
           =====                   =======         
           ?Subroutine0            00004F1A 
    -------------------------------------------------------------------------
<BANKED_CODE> 1 (was BANKED_CODE)
  Relative segment, address: CODE 00004F22 - 00004F26 (0x5 bytes), align: 0
  Segment part 103.           Intra module refs:   ?Subroutine0
                                                   apsTxData
           LOCAL                   ADDRESS         
           =====                   =======         
           ?Subroutine38           00004F22 
    -------------------------------------------------------------------------
<BANKED_CODE> 1 (was BANKED_CODE)
  Relative segment, address: CODE 00004F27 - 00004F2A (0x4 bytes), align: 0
  Segment part 104.           Intra module refs:   ?Subroutine1
                                                   ?Subroutine38
           LOCAL                   ADDRESS         
           =====                   =======         
           ?Subroutine44           00004F27 
    -------------------------------------------------------------------------
<BANKED_CODE> 1 (was BANKED_CODE)
  Relative segment, address: CODE 00004F2B - 00004F2D (0x3 bytes), align: 0
  Segment part 105.           Intra module refs:   ?Subroutine44
                                                   apsTxData
    -------------------------------------------------------------------------
<BANKED_CODE> 1 (was BANKED_CODE)
  Relative segment, address: CODE 00004F2E - 000050B8 (0x18b bytes), align: 0
  Segment part 106.           Intra module refs:   apsRxFSM::?relay
           LOCAL                   ADDRESS         
           =====                   =======         
           apsRxFSM                00004F2E 
               calls direct
               XSTACK = 00000010 ( 00000009 )
    -------------------------------------------------------------------------
<BANKED_CODE> 1 (was BANKED_CODE)
  Relative segment, address: CODE 000050B9 - 000050BD (0x5 bytes), align: 0
  Segment part 108.           Intra module refs:   apsRxFSM
           LOCAL                   ADDRESS         
           =====                   =======         
           ?Subroutine54           000050B9 
    -------------------------------------------------------------------------
<BANKED_CODE> 1 (was BANKED_CODE)
  Relative segment, address: CODE 000050BE - 000050C0 (0x3 bytes), align: 0
  Segment part 109.           Intra module refs:   apsRxFSM
           LOCAL                   ADDRESS         
           =====                   =======         
           ?Subroutine10           000050BE 
    -------------------------------------------------------------------------
<BANKED_CODE> 1 (was BANKED_CODE)
  Relative segment, address: CODE 000050C1 - 000050C9 (0x9 bytes), align: 0
  Segment part 110.           Intra module refs:   ?Subroutine10
    -------------------------------------------------------------------------
<BANKED_CODE> 1 (was BANKED_CODE)
  Relative segment, address: CODE 000050CA - 000050CC (0x3 bytes), align: 0
  Segment part 111.           Intra module refs:   apsFSM
           LOCAL                   ADDRESS         
           =====                   =======         
           ?Subroutine8            000050CA 
    -------------------------------------------------------------------------
<BANKED_CODE> 1 (was BANKED_CODE)
  Relative segment, address: CODE 000050CD - 000050D2 (0x6 bytes), align: 0
  Segment part 112.           Intra module refs:   ?Subroutine8
                                                   apsFSM
                                                   apsRxFSM
    -------------------------------------------------------------------------
CODE_C
  Relative segment, address: CODE 00000EA2 - 00000ECC (0x2b bytes), align: 0
  Segment part 25.            Intra module refs:   apsRxFSM
           LOCAL                   ADDRESS         
           =====                   =======         
           apsRxFSM{1}{4}{5}{6}::xxxxromstr
                                   00000EA2 
    -------------------------------------------------------------------------
CODE_C
  Relative segment, address: CODE 00000ECD - 00000EE3 (0x17 bytes), align: 0
  Segment part 26.            Intra module refs:   apsRxFSM
           LOCAL                   ADDRESS         
           =====                   =======         
           apsRxFSM{1}{4}{7}{8}{9}::xxxxromstr
                                   00000ECD 
    -------------------------------------------------------------------------
CODE_C
  Relative segment, address: CODE 00000EE4 - 00000F0F (0x2c bytes), align: 0
  Segment part 27.            Intra module refs:   apsRxFSM
           LOCAL                   ADDRESS         
           =====                   =======         
           apsRxFSM{1}{4}{7}{10}{11}::xxxxromstr
                                   00000EE4 
    -------------------------------------------------------------------------
CODE_C
  Relative segment, address: CODE 00000F10 - 00000F36 (0x27 bytes), align: 0
  Segment part 28.            Intra module refs:   apsRxFSM
           LOCAL                   ADDRESS         
           =====                   =======         
           apsRxFSM{1}{12}{13}{14}{15}::xxxxromstr
                                   00000F10 
    -------------------------------------------------------------------------
CODE_C
  Relative segment, address: CODE 00000F37 - 00000F73 (0x3d bytes), align: 0
  Segment part 29.            Intra module refs:   apsRxFSM
           LOCAL                   ADDRESS         
           =====                   =======         
           apsRxFSM{1}{12}{13}{16}{17}::xxxxromstr
                                   00000F37 
    -------------------------------------------------------------------------
CODE_C
  Relative segment, address: CODE 00000F74 - 00000FB9 (0x46 bytes), align: 0
  Segment part 30.            Intra module refs:   apsRxFSM
           LOCAL                   ADDRESS         
           =====                   =======         
           apsRxFSM{1}{12}{18}{19}::xxxxromstr
                                   00000F74 
    -------------------------------------------------------------------------
CODE_C
  Relative segment, address: CODE 00000FBA - 00000FD2 (0x19 bytes), align: 0
  Segment part 31.            Intra module refs:   apsRxFSM
           LOCAL                   ADDRESS         
           =====                   =======         
           apsRxFSM{1}{20}{21}::xxxxromstr
                                   00000FBA 
    -------------------------------------------------------------------------
CODE_C
  Relative segment, address: CODE 00000FD3 - 00000FFB (0x29 bytes), align: 0
  Segment part 32.            Intra module refs:   apsRxFSM
           LOCAL                   ADDRESS         
           =====                   =======         
           apsRxFSM{1}{20}{23}{25}{26}::xxxxromstr
                                   00000FD3 
    -------------------------------------------------------------------------
CODE_C
  Relative segment, address: CODE 00000FFC - 00001014 (0x19 bytes), align: 0
  Segment part 33.            Intra module refs:   apsRxFSM
           LOCAL                   ADDRESS         
           =====                   =======         
           apsRxFSM{1}{20}{27}{28}::xxxxromstr
                                   00000FFC 
    -------------------------------------------------------------------------
<BANKED_CODE> 1 (was BANKED_CODE)
  Relative segment, address: CODE 000050D3 - 000050E5 (0x13 bytes), align: 0
  Segment part 113.           Intra module refs:   apsRxBusy::?relay
           ENTRY                   ADDRESS         REF BY
           =====                   =======         ======
           apsRxBusy               000050D3 
               ISTACK = 00000000 ( 00000002 )
    -------------------------------------------------------------------------
<BANKED_CODE> 1 (was BANKED_CODE)
  Relative segment, address: CODE 000050E6 - 00005150 (0x6b bytes), align: 0
  Segment part 115.           Intra module refs:   apsRxHandoff::?relay
           ENTRY                   ADDRESS         REF BY
           =====                   =======         ======
           apsRxHandoff            000050E6 
               ISTACK = 00000000 ( 00000002 )
    -------------------------------------------------------------------------
<BANKED_CODE> 1 (was BANKED_CODE)
  Relative segment, address: CODE 00005151 - 00005154 (0x4 bytes), align: 0
  Segment part 117.           Intra module refs:   apsRxHandoff
                                                   apsTxData
                                                   apsTxFSM
           LOCAL                   ADDRESS         
           =====                   =======         
           ?Subroutine20           00005151 
    -------------------------------------------------------------------------
<BANKED_CODE> 1 (was BANKED_CODE)
  Relative segment, address: CODE 00005155 - 0000515A (0x6 bytes), align: 0
  Segment part 118.           Intra module refs:   ?Subroutine12
                                                   ?Subroutine15
                                                   ?Subroutine20
                                                   ?Subroutine35
           LOCAL                   ADDRESS         
           =====                   =======         
           ?Subroutine43           00005155 
    -------------------------------------------------------------------------
<BANKED_CODE> 1 (was BANKED_CODE)
  Relative segment, address: CODE 0000515B - 0000516A (0x10 bytes), align: 0
  Segment part 119.           Intra module refs:   apsRxFSM
                                                   apsRxHandoff
           LOCAL                   ADDRESS         
           =====                   =======         
           ?Subroutine16           0000515B 
    -------------------------------------------------------------------------
<BANKED_CODE> 1 (was BANKED_CODE)
  Relative segment, address: CODE 0000516B - 000051FD (0x93 bytes), align: 0
  Segment part 120.           Intra module refs:   apsParseHdr::?relay
           LOCAL                   ADDRESS         
           =====                   =======         
           apsParseHdr             0000516B 
               XSTACK = 00000009 ( 00000000 )
               ISTACK = 00000000 ( 00000002 )
    -------------------------------------------------------------------------
<BANKED_CODE> 1 (was BANKED_CODE)
  Relative segment, address: CODE 000051FE - 00005203 (0x6 bytes), align: 0
  Segment part 122.           Intra module refs:   apsRxFSM
           LOCAL                   ADDRESS         
           =====                   =======         
           ?Subroutine30           000051FE 
    -------------------------------------------------------------------------
<BANKED_CODE> 1 (was BANKED_CODE)
  Relative segment, address: CODE 00005204 - 00005207 (0x4 bytes), align: 0
  Segment part 123.           Intra module refs:   apsParseHdr
           LOCAL                   ADDRESS         
           =====                   =======         
           ?Subroutine22           00005204 
    -------------------------------------------------------------------------
<BANKED_CODE> 1 (was BANKED_CODE)
  Relative segment, address: CODE 00005208 - 0000520B (0x4 bytes), align: 0
  Segment part 124.           Intra module refs:   ?Subroutine22
                                                   apsParseHdr
    -------------------------------------------------------------------------
<BANKED_CODE> 1 (was BANKED_CODE)
  Relative segment, address: CODE 0000520C - 00005210 (0x5 bytes), align: 0
  Segment part 125.           Intra module refs:   ?Subroutine13
                                                   Segment part 124
           LOCAL                   ADDRESS         
           =====                   =======         
           ?Subroutine41           0000520C 
    -------------------------------------------------------------------------
<BANKED_CODE> 1 (was BANKED_CODE)
  Relative segment, address: CODE 00005211 - 0000521A (0xa bytes), align: 0
  Segment part 126.           Intra module refs:   ?Subroutine41
                                                   apsParseHdr
           LOCAL                   ADDRESS         
           =====                   =======         
           ?Subroutine45           00005211 
    -------------------------------------------------------------------------
<BANKED_CODE> 1 (was BANKED_CODE)
  Relative segment, address: CODE 0000521B - 00005222 (0x8 bytes), align: 0
  Segment part 127.           Intra module refs:   apsParseHdr
           LOCAL                   ADDRESS         
           =====                   =======         
           ?Subroutine13           0000521B 
    -------------------------------------------------------------------------
CODE_C
  Relative segment, address: CODE 00001015 - 00001027 (0x13 bytes), align: 0
  Segment part 34.            Intra module refs:   apsFSM
           LOCAL                   ADDRESS         
           =====                   =======         
           apsFormatAck{1}::xxxxromstr
                                   00001015 
    -------------------------------------------------------------------------
<BANKED_CODE> 1 (was BANKED_CODE)
  Relative segment, address: CODE 00005223 - 000052FE (0xdc bytes), align: 0
  Segment part 128.           Intra module refs:   apsTxFSM::?relay
           LOCAL                   ADDRESS         
           =====                   =======         
           apsTxFSM                00005223 
               calls direct
               XSTACK = 00000010 ( 0000000C )
               ISTACK = 00000000 ( 00000002 )
    -------------------------------------------------------------------------
<BANKED_CODE> 1 (was BANKED_CODE)
  Relative segment, address: CODE 000052FF - 00005302 (0x4 bytes), align: 0
  Segment part 130.           Intra module refs:   apsTxFSM
           LOCAL                   ADDRESS         
           =====                   =======         
           ?Subroutine32           000052FF 
    -------------------------------------------------------------------------
<BANKED_CODE> 1 (was BANKED_CODE)
  Relative segment, address: CODE 00005303 - 00005309 (0x7 bytes), align: 0
  Segment part 131.           Intra module refs:   apsFSM
                                                   apsTxFSM
           LOCAL                   ADDRESS         
           =====                   =======         
           ?Subroutine27           00005303 
    -------------------------------------------------------------------------
<BANKED_CODE> 1 (was BANKED_CODE)
  Relative segment, address: CODE 0000530A - 0000530E (0x5 bytes), align: 0
  Segment part 132.           Intra module refs:   apsTxData
                                                   apsTxFSM
           LOCAL                   ADDRESS         
           =====                   =======         
           ?Subroutine23           0000530A 
    -------------------------------------------------------------------------
<BANKED_CODE> 1 (was BANKED_CODE)
  Relative segment, address: CODE 0000530F - 00005317 (0x9 bytes), align: 0
  Segment part 133.           Intra module refs:   ?Subroutine23
                                                   ?Subroutine32
           LOCAL                   ADDRESS         
           =====                   =======         
           ?Subroutine42           0000530F 
    -------------------------------------------------------------------------
<BANKED_CODE> 1 (was BANKED_CODE)
  Relative segment, address: CODE 00005318 - 00005323 (0xc bytes), align: 0
  Segment part 134.           Intra module refs:   ?Subroutine31
                                                   ?Subroutine42
           LOCAL                   ADDRESS         
           =====                   =======         
           ?Subroutine46           00005318 
    -------------------------------------------------------------------------
<BANKED_CODE> 1 (was BANKED_CODE)
  Relative segment, address: CODE 00005324 - 00005331 (0xe bytes), align: 0
  Segment part 135.           Intra module refs:   apsTxData
                                                   apsTxFSM
           LOCAL                   ADDRESS         
           =====                   =======         
           ?Subroutine15           00005324 
    -------------------------------------------------------------------------
<BANKED_CODE> 1 (was BANKED_CODE)
  Relative segment, address: CODE 00005332 - 00005344 (0x13 bytes), align: 0
  Segment part 136.           Intra module refs:   apsTxFSM
           LOCAL                   ADDRESS         
           =====                   =======         
           ?Subroutine9            00005332 
    -------------------------------------------------------------------------
CODE_C
  Relative segment, address: CODE 00001028 - 00001036 (0xf bytes), align: 0
  Segment part 35.            Intra module refs:   apsTxFSM
           LOCAL                   ADDRESS         
           =====                   =======         
           apsTxFSM{1}{2}{5}{7}{8}::xxxxromstr
                                   00001028 
    -------------------------------------------------------------------------
CODE_C
  Relative segment, address: CODE 00001037 - 0000104D (0x17 bytes), align: 0
  Segment part 36.            Intra module refs:   apsTxFSM
           LOCAL                   ADDRESS         
           =====                   =======         
           apsTxFSM{1}{2}{5}{7}{9}{10}::xxxxromstr
                                   00001037 
    -------------------------------------------------------------------------
<BANKED_CODE> 1 (was BANKED_CODE)
  Relative segment, address: CODE 00005345 - 00005345 (0x1 bytes), align: 0
  Segment part 142.           Intra module refs:   apsParseHdr
                                                   apsRxHandoff
    -------------------------------------------------------------------------
<BANKED_CODE> 1 (was BANKED_CODE)
  Relative segment, address: CODE 00005346 - 0000534C (0x7 bytes), align: 0
  Segment part 143.           Intra module refs:   Segment part 142
                                                   apsRxBusy
    -------------------------------------------------------------------------
<BANKED_CODE> 1 (was BANKED_CODE)
  Relative segment, address: CODE 0000534D - 00005359 (0xd bytes), align: 0
  Segment part 144.           Intra module refs:   apsInit
           LOCAL                   ADDRESS         
           =====                   =======         
           ?Subroutine28           0000534D 
    -------------------------------------------------------------------------
XDATA_I
  Relative segment, address: XDATA 0000118C - 0000118F (0x4 bytes), align: 0
  Segment part 39.            Intra module refs:   apsInit
           ENTRY                   ADDRESS         REF BY
           =====                   =======         ======
           __Constant_3070         0000118C 
    -------------------------------------------------------------------------
XDATA_ID
  Relative segment, address: CODE 00000143 - 00000146 (0x4 bytes), align: 0
  Segment part 40.            Intra module refs:   __Constant_3070
    -------------------------------------------------------------------------
XDATA_I
  Relative segment, address: XDATA 00001190 - 00001193 (0x4 bytes), align: 0
  Segment part 41.            Intra module refs:   apsFSM
                                                   apsTxFSM
                                                   doIEEE_backoff (halStack)
                                                   macFSM (mac)
                                                   macTxFSM (mac)
                                                   nwkFSM (nwk)
                                                   phyFSM (phy)
           ENTRY                   ADDRESS         REF BY
           =====                   =======         ======
           __Constant_ffffff       00001190 
    -------------------------------------------------------------------------
XDATA_ID
  Relative segment, address: CODE 00000147 - 0000014A (0x4 bytes), align: 0
  Segment part 42.            Intra module refs:   __Constant_ffffff
    -------------------------------------------------------------------------
XDATA_I
  Relative segment, address: XDATA 00001194 - 00001197 (0x4 bytes), align: 0
  Segment part 43.            Intra module refs:   apsFSM
           ENTRY                   ADDRESS         REF BY
           =====                   =======         ======
           __Constant_2d691        00001194 
    -------------------------------------------------------------------------
XDATA_ID
  Relative segment, address: CODE 0000014B - 0000014E (0x4 bytes), align: 0
  Segment part 44.            Intra module refs:   __Constant_2d691
    -------------------------------------------------------------------------
BANK_RELAYS
  Relative segment, address: CODE 000001C3 - 000001C8 (0x6 bytes), align: 0
  Segment part 54.
           ENTRY                   ADDRESS         REF BY
           =====                   =======         ======
           apsInit::?relay         000001C3        main (test_demo)
    -------------------------------------------------------------------------
BANK_RELAYS
  Relative segment, address: CODE 000001C9 - 000001CE (0x6 bytes), align: 0
  Segment part 71.
           ENTRY                   ADDRESS         REF BY
           =====                   =======         ======
           apsFSM::?relay          000001C9        main (test_demo)
    -------------------------------------------------------------------------
BANK_RELAYS
  Relative segment, address: CODE 000001CF - 000001D4 (0x6 bytes), align: 0
  Segment part 88.            Intra module refs:   ?Subroutine27
                                                   apsFSM
           ENTRY                   ADDRESS         REF BY
           =====                   =======         ======
           apsTxData::?relay       000001CF 
    -------------------------------------------------------------------------
BANK_RELAYS
  Relative segment, address: CODE 000001D5 - 000001DA (0x6 bytes), align: 0
  Segment part 107.           Intra module refs:   apsFSM
           LOCAL                   ADDRESS         
           =====                   =======         
           apsRxFSM::?relay        000001D5 
    -------------------------------------------------------------------------
BANK_RELAYS
  Relative segment, address: CODE 000001DB - 000001E0 (0x6 bytes), align: 0
  Segment part 114.
           ENTRY                   ADDRESS         REF BY
           =====                   =======         ======
           apsRxBusy::?relay       000001DB        nwkRxFSM (nwk)
    -------------------------------------------------------------------------
BANK_RELAYS
  Relative segment, address: CODE 000001E1 - 000001E6 (0x6 bytes), align: 0
  Segment part 116.
           ENTRY                   ADDRESS         REF BY
           =====                   =======         ======
           apsRxHandoff::?relay    000001E1        nwkRxFSM (nwk)
    -------------------------------------------------------------------------
BANK_RELAYS
  Relative segment, address: CODE 000001E7 - 000001EC (0x6 bytes), align: 0
  Segment part 121.           Intra module refs:   apsRxFSM
           LOCAL                   ADDRESS         
           =====                   =======         
           apsParseHdr::?relay     000001E7 
    -------------------------------------------------------------------------
BANK_RELAYS
  Relative segment, address: CODE 000001ED - 000001F2 (0x6 bytes), align: 0
  Segment part 129.           Intra module refs:   apsFSM
           LOCAL                   ADDRESS         
           =====                   =======         
           apsTxFSM::?relay        000001ED 

    *************************************************************************

  FILE NAME : F:\6LoWSN\6lowsn_stack\obj\compiletest\iar51_cc2530\coord\Obj\console.r51
  PROGRAM MODULE, NAME : console

  SEGMENTS IN THE MODULE
  ======================
<BANKED_CODE> 1 (was BANKED_CODE)
  Relative segment, address: CODE 00007382 - 000073AA (0x29 bytes), align: 0
  Segment part 25.            Intra module refs:   conPrintROMString_func::?relay
           ENTRY                   ADDRESS         REF BY
           =====                   =======         ======
           conPrintROMString_func
                                   00007382 
               calls direct
               XSTACK = 00000014 ( 00000009 )
    -------------------------------------------------------------------------
CODE_C
  Relative segment, address: CODE 0000104E - 0000104F (0x2 bytes), align: 0
  Segment part 6.             Intra module refs:   ?Subroutine2
                                                   conPCRLF
                                                   conPrintConfig
           LOCAL                   ADDRESS         
           =====                   =======         
           conPCRLF{1}::xxxxromstr
                                   0000104E 
    -------------------------------------------------------------------------
<BANKED_CODE> 1 (was BANKED_CODE)
  Relative segment, address: CODE 000073AB - 000073AF (0x5 bytes), align: 0
  Segment part 27.            Intra module refs:   conPrintUINT16
                                                   conPrintUINT8
           LOCAL                   ADDRESS         
           =====                   =======         
           ?Subroutine5            000073AB 
    -------------------------------------------------------------------------
<BANKED_CODE> 1 (was BANKED_CODE)
  Relative segment, address: CODE 000073B0 - 000073B4 (0x5 bytes), align: 0
  Segment part 28.            Intra module refs:   ?Subroutine5
                                                   conPrintROMString_func
                                                   conPrintUINT8_noleader
    -------------------------------------------------------------------------
<BANKED_CODE> 1 (was BANKED_CODE)
  Relative segment, address: CODE 000073B5 - 000073C2 (0xe bytes), align: 0
  Segment part 31.            Intra module refs:   conPrintROMString_func
           LOCAL                   ADDRESS         
           =====                   =======         
           ?Subroutine1            000073B5 
    -------------------------------------------------------------------------
<BANKED_CODE> 1 (was BANKED_CODE)
  Relative segment, address: CODE 000073C3 - 000073F3 (0x31 bytes), align: 0
  Segment part 32.            Intra module refs:   conPrintUINT8_noleader::?relay
           ENTRY                   ADDRESS         REF BY
           =====                   =======         ======
           conPrintUINT8_noleader
                                   000073C3 
               calls direct
               XSTACK = 00000010 ( 00000009 )
    -------------------------------------------------------------------------
<BANKED_CODE> 1 (was BANKED_CODE)
  Relative segment, address: CODE 000073F4 - 000073FE (0xb bytes), align: 0
  Segment part 34.            Intra module refs:   conPCRLF::?relay
           ENTRY                   ADDRESS         REF BY
           =====                   =======         ======
           conPCRLF                000073F4 
               calls direct
               ISTACK = 00000000 ( 00000002 )
    -------------------------------------------------------------------------
<BANKED_CODE> 1 (was BANKED_CODE)
  Relative segment, address: CODE 000073FF - 00007405 (0x7 bytes), align: 0
  Segment part 36.            Intra module refs:   conPCRLF
                                                   conPrintIP6ADDR
                                                   conPrintLADDR
           LOCAL                   ADDRESS         
           =====                   =======         
           ?Subroutine6            000073FF 
    -------------------------------------------------------------------------
<BANKED_CODE> 1 (was BANKED_CODE)
  Relative segment, address: CODE 00007406 - 00007416 (0x11 bytes), align: 0
  Segment part 37.            Intra module refs:   conPrintUINT8::?relay
           ENTRY                   ADDRESS         REF BY
           =====                   =======         ======
           conPrintUINT8           00007406 
               calls direct
               XSTACK = 00000014 ( 00000009 )
    -------------------------------------------------------------------------
CODE_C
  Relative segment, address: CODE 00001050 - 00001052 (0x3 bytes), align: 0
  Segment part 7.             Intra module refs:   conPrintUINT8
           LOCAL                   ADDRESS         
           =====                   =======         
           conPrintUINT8{1}::xxxxromstr
                                   00001050 
    -------------------------------------------------------------------------
<BANKED_CODE> 1 (was BANKED_CODE)
  Relative segment, address: CODE 00007417 - 0000742E (0x18 bytes), align: 0
  Segment part 39.            Intra module refs:   conPrintUINT16::?relay
           ENTRY                   ADDRESS         REF BY
           =====                   =======         ======
           conPrintUINT16          00007417 
               calls direct
               XSTACK = 00000000 ( 00000009 )
    -------------------------------------------------------------------------
CODE_C
  Relative segment, address: CODE 00001053 - 00001055 (0x3 bytes), align: 0
  Segment part 8.             Intra module refs:   conPrintUINT16
           LOCAL                   ADDRESS         
           =====                   =======         
           conPrintUINT16{1}::xxxxromstr
                                   00001053 
    -------------------------------------------------------------------------
<BANKED_CODE> 1 (was BANKED_CODE)
  Relative segment, address: CODE 0000742F - 00007487 (0x59 bytes), align: 0
  Segment part 41.            Intra module refs:   conPrintUINT32::?relay
           ENTRY                   ADDRESS         REF BY
           =====                   =======         ======
           conPrintUINT32          0000742F 
               calls direct
               XSTACK = 00000014 ( 00000010 )
    -------------------------------------------------------------------------
CODE_C
  Relative segment, address: CODE 00001056 - 00001058 (0x3 bytes), align: 0
  Segment part 9.             Intra module refs:   conPrintUINT32
           LOCAL                   ADDRESS         
           =====                   =======         
           conPrintUINT32{1}::xxxxromstr
                                   00001056 
    -------------------------------------------------------------------------
<BANKED_CODE> 1 (was BANKED_CODE)
  Relative segment, address: CODE 00007488 - 000074A1 (0x1a bytes), align: 0
  Segment part 43.            Intra module refs:   conPrintLADDR_bytes::?relay
           ENTRY                   ADDRESS         REF BY
           =====                   =======         ======
           conPrintLADDR_bytes     00007488 
               calls direct
               XSTACK = 00000014 ( 0000000C )
    -------------------------------------------------------------------------
<BANKED_CODE> 1 (was BANKED_CODE)
  Relative segment, address: CODE 000074A2 - 000074A6 (0x5 bytes), align: 0
  Segment part 45.            Intra module refs:   conPrintConfig
                                                   conPrintIP6ADDR_bytes
                                                   conPrintLADDR_bytes
           LOCAL                   ADDRESS         
           =====                   =======         
           ?Subroutine7            000074A2 
    -------------------------------------------------------------------------
CODE_C
  Relative segment, address: CODE 00001059 - 0000105C (0x4 bytes), align: 0
  Segment part 10.            Intra module refs:   conPrintLADDR_bytes
           LOCAL                   ADDRESS         
           =====                   =======         
           conPrintLADDR_bytes{1}{2}::xxxxromstr
                                   00001059 
    -------------------------------------------------------------------------
<BANKED_CODE> 1 (was BANKED_CODE)
  Relative segment, address: CODE 000074A7 - 000074B0 (0xa bytes), align: 0
  Segment part 46.            Intra module refs:   conPrintLADDR::?relay
           ENTRY                   ADDRESS         REF BY
           =====                   =======         ======
           conPrintLADDR           000074A7 
               calls direct
               ISTACK = 00000000 ( 00000002 )
    -------------------------------------------------------------------------
<BANKED_CODE> 1 (was BANKED_CODE)
  Relative segment, address: CODE 000074B1 - 000074CC (0x1c bytes), align: 0
  Segment part 48.            Intra module refs:   conPrintIP6ADDR_bytes::?relay
           ENTRY                   ADDRESS         REF BY
           =====                   =======         ======
           conPrintIP6ADDR_bytes   000074B1 
               calls direct
               XSTACK = 00000000 ( 0000000C )
    -------------------------------------------------------------------------
<BANKED_CODE> 1 (was BANKED_CODE)
  Relative segment, address: CODE 000074CD - 000074D5 (0x9 bytes), align: 0
  Segment part 50.            Intra module refs:   conPrintIP6ADDR_bytes
                                                   conPrintLADDR_bytes
           LOCAL                   ADDRESS         
           =====                   =======         
           ?Subroutine3            000074CD 
    -------------------------------------------------------------------------
<BANKED_CODE> 1 (was BANKED_CODE)
  Relative segment, address: CODE 000074D6 - 000074E4 (0xf bytes), align: 0
  Segment part 51.            Intra module refs:   conPrintIP6ADDR_bytes
                                                   conPrintLADDR_bytes
           LOCAL                   ADDRESS         
           =====                   =======         
           ?Subroutine0            000074D6 
    -------------------------------------------------------------------------
<BANKED_CODE> 1 (was BANKED_CODE)
  Relative segment, address: CODE 000074E5 - 000074E6 (0x2 bytes), align: 0
  Segment part 52.            Intra module refs:   ?Subroutine0
                                                   conPrintIP6ADDR_dbytes
           LOCAL                   ADDRESS         
           =====                   =======         
           ?Subroutine4            000074E5 
    -------------------------------------------------------------------------
<BANKED_CODE> 1 (was BANKED_CODE)
  Relative segment, address: CODE 000074E7 - 000074EC (0x6 bytes), align: 0
  Segment part 53.            Intra module refs:   ?Subroutine4
                                                   conPrintIP6ADDR_dbytes
    -------------------------------------------------------------------------
CODE_C
  Relative segment, address: CODE 0000105D - 00001060 (0x4 bytes), align: 0
  Segment part 11.            Intra module refs:   conPrintIP6ADDR_bytes
           LOCAL                   ADDRESS         
           =====                   =======         
           conPrintIP6ADDR_bytes{1}{2}::xxxxromstr
                                   0000105D 
    -------------------------------------------------------------------------
<BANKED_CODE> 1 (was BANKED_CODE)
  Relative segment, address: CODE 000074ED - 0000752C (0x40 bytes), align: 0
  Segment part 54.            Intra module refs:   conPrintIP6ADDR_dbytes::?relay
           ENTRY                   ADDRESS         REF BY
           =====                   =======         ======
           conPrintIP6ADDR_dbytes
                                   000074ED 
               calls direct
               XSTACK = 00000000 ( 0000000B )
    -------------------------------------------------------------------------
CODE_C
  Relative segment, address: CODE 00001061 - 00001064 (0x4 bytes), align: 0
  Segment part 12.            Intra module refs:   conPrintIP6ADDR_dbytes
           LOCAL                   ADDRESS         
           =====                   =======         
           conPrintIP6ADDR_dbytes{1}{2}::xxxxromstr
                                   00001061 
    -------------------------------------------------------------------------
<BANKED_CODE> 1 (was BANKED_CODE)
  Relative segment, address: CODE 0000752D - 0000753E (0x12 bytes), align: 0
  Segment part 56.            Intra module refs:   conPrintIP6ADDR::?relay
           ENTRY                   ADDRESS         REF BY
           =====                   =======         ======
           conPrintIP6ADDR         0000752D 
               calls direct
               ISTACK = 00000000 ( 00000002 )
    -------------------------------------------------------------------------
<BANKED_CODE> 1 (was BANKED_CODE)
  Relative segment, address: CODE 0000753F - 000075D0 (0x92 bytes), align: 0
  Segment part 58.            Intra module refs:   conPrintConfig::?relay
           ENTRY                   ADDRESS         REF BY
           =====                   =======         ======
           conPrintConfig          0000753F 
               calls direct
               XSTACK = 00000000 ( 00000014 )
    -------------------------------------------------------------------------
<BANKED_CODE> 1 (was BANKED_CODE)
  Relative segment, address: CODE 000075D1 - 000075DB (0xb bytes), align: 0
  Segment part 60.            Intra module refs:   conPrintConfig
           LOCAL                   ADDRESS         
           =====                   =======         
           ?Subroutine2            000075D1 
    -------------------------------------------------------------------------
CODE_C
  Relative segment, address: CODE 00001065 - 00001080 (0x1c bytes), align: 0
  Segment part 13.            Intra module refs:   conPrintConfig
           LOCAL                   ADDRESS         
           =====                   =======         
           conPrintConfig{1}::xxxxromstr
                                   00001065 
    -------------------------------------------------------------------------
CODE_C
  Relative segment, address: CODE 00001081 - 00001094 (0x14 bytes), align: 0
  Segment part 14.            Intra module refs:   conPrintConfig
           LOCAL                   ADDRESS         
           =====                   =======         
           conPrintConfig{2}::xxxxromstr
                                   00001081 
    -------------------------------------------------------------------------
CODE_C
  Relative segment, address: CODE 00001095 - 000010AA (0x16 bytes), align: 0
  Segment part 15.            Intra module refs:   conPrintConfig
           LOCAL                   ADDRESS         
           =====                   =======         
           conPrintConfig{3}::xxxxromstr
                                   00001095 
    -------------------------------------------------------------------------
CODE_C
  Relative segment, address: CODE 000010AB - 000010B9 (0xf bytes), align: 0
  Segment part 16.            Intra module refs:   conPrintConfig
           LOCAL                   ADDRESS         
           =====                   =======         
           conPrintConfig{4}::xxxxromstr
                                   000010AB 
    -------------------------------------------------------------------------
CODE_C
  Relative segment, address: CODE 000010BA - 000010BE (0x5 bytes), align: 0
  Segment part 17.            Intra module refs:   conPrintConfig
           LOCAL                   ADDRESS         
           =====                   =======         
           conPrintConfig{5}::xxxxromstr
                                   000010BA 
    -------------------------------------------------------------------------
CODE_C
  Relative segment, address: CODE 000010BF - 000010D9 (0x1b bytes), align: 0
  Segment part 18.            Intra module refs:   conPrintConfig
           LOCAL                   ADDRESS         
           =====                   =======         
           conPrintConfig{6}::xxxxromstr
                                   000010BF 
    -------------------------------------------------------------------------
CODE_C
  Relative segment, address: CODE 000010DA - 000010E7 (0xe bytes), align: 0
  Segment part 19.            Intra module refs:   conPrintConfig
           LOCAL                   ADDRESS         
           =====                   =======         
           conPrintConfig{7}::xxxxromstr
                                   000010DA 
    -------------------------------------------------------------------------
CODE_C
  Relative segment, address: CODE 000010E8 - 000010F1 (0xa bytes), align: 0
  Segment part 20.            Intra module refs:   conPrintConfig
           LOCAL                   ADDRESS         
           =====                   =======         
           conPrintConfig{8}::xxxxromstr
                                   000010E8 
    -------------------------------------------------------------------------
CODE_C
  Relative segment, address: CODE 000010F2 - 000010FF (0xe bytes), align: 0
  Segment part 21.            Intra module refs:   conPrintConfig
           LOCAL                   ADDRESS         
           =====                   =======         
           conPrintConfig{9}::xxxxromstr
                                   000010F2 
    -------------------------------------------------------------------------
CODE_C
  Relative segment, address: CODE 00001100 - 00001112 (0x13 bytes), align: 0
  Segment part 22.            Intra module refs:   conPrintConfig
           LOCAL                   ADDRESS         
           =====                   =======         
           conPrintConfig{10}::xxxxromstr
                                   00001100 
    -------------------------------------------------------------------------
XDATA_I
  Relative segment, address: XDATA 00001198 - 0000119B (0x4 bytes), align: 0
  Segment part 23.            Intra module refs:   conPrintConfig
           ENTRY                   ADDRESS         REF BY
           =====                   =======         ======
           __Constant_1347         00001198 
    -------------------------------------------------------------------------
XDATA_ID
  Relative segment, address: CODE 0000014F - 00000152 (0x4 bytes), align: 0
  Segment part 24.            Intra module refs:   __Constant_1347
    -------------------------------------------------------------------------
BANK_RELAYS
  Relative segment, address: CODE 000001F3 - 000001F8 (0x6 bytes), align: 0
  Segment part 26.            Intra module refs:   ?Subroutine2
                                                   ?Subroutine3
                                                   conPCRLF
                                                   conPrintConfig
                                                   conPrintIP6ADDR_dbytes
                                                   conPrintUINT16
                                                   conPrintUINT32
                                                   conPrintUINT8
           ENTRY                   ADDRESS         REF BY
           =====                   =======         ======
           conPrintROMString_func::?relay
                                   000001F3        ?Subroutine23 (debug)
                                                   ?Subroutine26 (debug)
                                                   ?Subroutine9 (debug)
                                                   adpFSM (adp)
                                                   adpFmtCompHeader (adp)
                                                   adpParseCompHdr (adp)
                                                   adpRxFSM (adp)
                                                   adpTxData (adp)
                                                   apsFSM (aps)
                                                   apsRxFSM (aps)
                                                   apsTxFSM (aps)
                                                   dbgPrintNeighborTable (debug)
                                                   ds6FindSrcIP (ds)
                                                   ds6Init (ds)
                                                   ds6LocalIPFrom16 (ds)
                                                   halSendPacket (halStack)
                                                   icmpParseEchoReply (icmpv6)
                                                   lowsn_ds6_prefix_add (ds)
                                                   lowsn_ds6_uaddr_add (ds)
                                                   macCheckDataRejection (mac)
                                                   macFSM (mac)
                                                   macFormatAssociationResponse (mac)
                                                   macParseBeacon (mac)
                                                   macRxFSM (mac)
                                                   macTxData (mac)
                                                   macTxFSM (mac)
                                                   main (test_demo)
                                                   mpExecuteCheck (mp)
                                                   mpFmtReadResponse (mp)
                                                   mpHandleRxReport (mp)
                                                   mpReadCheck (mp)
                                                   mpWriteCheck (mp)
                                                   ndFmtRA (nd)
                                                   ndFmtRS (nd)
                                                   nwkFSM (nwk)
                                                   nwkFindDstDLLAddr (nwk)
                                                   nwkRxFSM (nwk)
                                                   nwkTxData (nwk)
                                                   phyFSM (phy)
                                                   usrJoinNotifyCallback (test_demo)
                                                   usrRxPacketCallback (test_demo)
    -------------------------------------------------------------------------
BANK_RELAYS
  Relative segment, address: CODE 000001F9 - 000001FE (0x6 bytes), align: 0
  Segment part 33.            Intra module refs:   ?Subroutine5
                                                   Segment part 53
                                                   conPrintUINT16
                                                   conPrintUINT32
           ENTRY                   ADDRESS         REF BY
           =====                   =======         ======
           conPrintUINT8_noleader::?relay
                                   000001F9 
    -------------------------------------------------------------------------
BANK_RELAYS
  Relative segment, address: CODE 000001FF - 00000204 (0x6 bytes), align: 0
  Segment part 35.
           ENTRY                   ADDRESS         REF BY
           =====                   =======         ======
           conPCRLF::?relay        000001FF        Segment part 117 (debug)
                                                   dbgPrintNeighborTable (debug)
                                                   usrJoinNotifyCallback (test_demo)
                                                   usrRxPacketCallback (test_demo)
    -------------------------------------------------------------------------
BANK_RELAYS
  Relative segment, address: CODE 00000205 - 0000020A (0x6 bytes), align: 0
  Segment part 38.            Intra module refs:   conPrintConfig
           ENTRY                   ADDRESS         REF BY
           =====                   =======         ======
           conPrintUINT8::?relay   00000205        ?Subroutine36 (mac)
                                                   Segment part 117 (debug)
                                                   Segment part 133 (debug)
                                                   adpRxFSM (adp)
                                                   dbgPrintNeighborTable (debug)
                                                   halSendPacket (halStack)
                                                   macFormatAssociationResponse (mac)
                                                   macRxFSM (mac)
                                                   main (test_demo)
                                                   phyFSM (phy)
                                                   usrRxPacketCallback (test_demo)
    -------------------------------------------------------------------------
BANK_RELAYS
  Relative segment, address: CODE 0000020B - 00000210 (0x6 bytes), align: 0
  Segment part 40.
           ENTRY                   ADDRESS         REF BY
           =====                   =======         ======
           conPrintUINT16::?relay
                                   0000020B        ?Subroutine18 (ds)
                                                   ?Subroutine21 (adp)
                                                   ?Subroutine31 (mac)
                                                   adpTxData (adp)
                                                   dbgPrintNeighborTable (debug)
                                                   lowsn_ds6_prefix_add (ds)
                                                   nwkFindDstDLLAddr (nwk)
                                                   nwkRxFSM (nwk)
                                                   usrRxPacketCallback (test_demo)
    -------------------------------------------------------------------------
BANK_RELAYS
  Relative segment, address: CODE 00000211 - 00000216 (0x6 bytes), align: 0
  Segment part 42.            Intra module refs:   conPrintConfig
           ENTRY                   ADDRESS         REF BY
           =====                   =======         ======
           conPrintUINT32::?relay
                                   00000211 
    -------------------------------------------------------------------------
BANK_RELAYS
  Relative segment, address: CODE 00000217 - 0000021C (0x6 bytes), align: 0
  Segment part 44.            Intra module refs:   conPrintConfig
                                                   conPrintLADDR
           ENTRY                   ADDRESS         REF BY
           =====                   =======         ======
           conPrintLADDR_bytes::?relay
                                   00000217        dbgPrintNeighborTable (debug)
    -------------------------------------------------------------------------
BANK_RELAYS
  Relative segment, address: CODE 0000021D - 00000222 (0x6 bytes), align: 0
  Segment part 47.
           ENTRY                   ADDRESS         REF BY
           =====                   =======         ======
           conPrintLADDR::?relay   0000021D        nwkFindDstDLLAddr (nwk)
                                                   usrJoinNotifyCallback (test_demo)
    -------------------------------------------------------------------------
BANK_RELAYS
  Relative segment, address: CODE 00000223 - 00000228 (0x6 bytes), align: 0
  Segment part 49.            Intra module refs:   conPrintIP6ADDR
           ENTRY                   ADDRESS         REF BY
           =====                   =======         ======
           conPrintIP6ADDR_bytes::?relay
                                   00000223 
    -------------------------------------------------------------------------
BANK_RELAYS
  Relative segment, address: CODE 00000229 - 0000022E (0x6 bytes), align: 0
  Segment part 55.            Intra module refs:   conPrintIP6ADDR
           ENTRY                   ADDRESS         REF BY
           =====                   =======         ======
           conPrintIP6ADDR_dbytes::?relay
                                   00000229 
    -------------------------------------------------------------------------
BANK_RELAYS
  Relative segment, address: CODE 0000022F - 00000234 (0x6 bytes), align: 0
  Segment part 57.
           ENTRY                   ADDRESS         REF BY
           =====                   =======         ======
           conPrintIP6ADDR::?relay
                                   0000022F        ?Subroutine15 (ds)
                                                   main (test_demo)
                                                   nwkFindDstDLLAddr (nwk)
                                                   usrRxPacketCallback (test_demo)
    -------------------------------------------------------------------------
BANK_RELAYS
  Relative segment, address: CODE 00000235 - 0000023A (0x6 bytes), align: 0
  Segment part 59.
           ENTRY                   ADDRESS         REF BY
           =====                   =======         ======
           conPrintConfig::?relay
                                   00000235        main (test_demo)

    *************************************************************************

  FILE NAME : F:\6LoWSN\6lowsn_stack\obj\compiletest\iar51_cc2530\coord\Obj\debug.r51
  PROGRAM MODULE, NAME : debug

  SEGMENTS IN THE MODULE
  ======================
XDATA_Z
  Relative segment, address: XDATA 000003F1 - 000003F1 (0x1 bytes), align: 0
  Segment part 6.
           ENTRY                   ADDRESS         REF BY
           =====                   =======         ======
           debug_level             000003F1        ?Subroutine0 (halStack)
                                                   ?Subroutine16 (adp)
                                                   ?Subroutine19 (mac)
                                                   ?Subroutine22 (mac)
                                                   ?Subroutine24 (mac)
                                                   ?Subroutine4 (aps)
                                                   ?Subroutine5 (ds)
                                                   ?Subroutine7 (mp)
                                                   ?Subroutine8 (halStack)
                                                   MemAlloc (memalloc)
                                                   Segment part 84 (aps)
                                                   Segment part 94 (nwk)
                                                   adpFSM (adp)
                                                   adpRxFSM (adp)
                                                   adpTxData (adp)
                                                   apsRxFSM (aps)
                                                   apsTxFSM (aps)
                                                   halSendPacket (halStack)
                                                   icmpParseEchoReply (icmpv6)
                                                   macFSM (mac)
                                                   macRxFSM (mac)
                                                   macTxData (mac)
                                                   macTxFSM (mac)
                                                   main (test_demo)
                                                   mpHandleRxReport (mp)
                                                   ndFmtRA (nd)
                                                   ndFmtRS (nd)
                                                   nwkFSM (nwk)
                                                   nwkFindDstDLLAddr (nwk)
                                                   nwkRxFSM (nwk)
                                                   phyFSM (phy)
                                                   usrJoinNotifyCallback (test_demo)
    -------------------------------------------------------------------------
<BANKED_CODE> 1 (was BANKED_CODE)
  Relative segment, address: CODE 00007AAA - 00007AAA (0x1 bytes), align: 0
  Segment part 116.           Intra module refs:   dbgPrintNeighborTable
           LOCAL                   ADDRESS         
           =====                   =======         
           ?Subroutine21           00007AAA 
    -------------------------------------------------------------------------
<BANKED_CODE> 1 (was BANKED_CODE)
  Relative segment, address: CODE 00007AAB - 00007AB1 (0x7 bytes), align: 0
  Segment part 117.           Intra module refs:   ?Subroutine21
                                                   ?Subroutine9
    -------------------------------------------------------------------------
<BANKED_CODE> 1 (was BANKED_CODE)
  Relative segment, address: CODE 00007AB2 - 00007AB7 (0x6 bytes), align: 0
  Segment part 129.           Intra module refs:   ?Subroutine23
           LOCAL                   ADDRESS         
           =====                   =======         
           ?Subroutine28           00007AB2 
    -------------------------------------------------------------------------
<BANKED_CODE> 1 (was BANKED_CODE)
  Relative segment, address: CODE 00007AB8 - 00007ABD (0x6 bytes), align: 0
  Segment part 133.           Intra module refs:   dbgPrintNeighborTable
    -------------------------------------------------------------------------
<BANKED_CODE> 1 (was BANKED_CODE)
  Relative segment, address: CODE 00007ABE - 00007AC1 (0x4 bytes), align: 0
  Segment part 137.           Intra module refs:   dbgPrintNeighborTable
           LOCAL                   ADDRESS         
           =====                   =======         
           ?Subroutine7            00007ABE 
    -------------------------------------------------------------------------
<BANKED_CODE> 1 (was BANKED_CODE)
  Relative segment, address: CODE 00007AC2 - 00007AC5 (0x4 bytes), align: 0
  Segment part 138.           Intra module refs:   ?Subroutine6
                                                   ?Subroutine7
           LOCAL                   ADDRESS         
           =====                   =======         
           ?Subroutine19           00007AC2 
    -------------------------------------------------------------------------
<BANKED_CODE> 1 (was BANKED_CODE)
  Relative segment, address: CODE 00007AC6 - 00007ACE (0x9 bytes), align: 0
  Segment part 139.           Intra module refs:   ?Subroutine19
           LOCAL                   ADDRESS         
           =====                   =======         
           ?Subroutine26           00007AC6 
    -------------------------------------------------------------------------
<BANKED_CODE> 1 (was BANKED_CODE)
  Relative segment, address: CODE 00007ACF - 00007BEB (0x11d bytes), align: 0
  Segment part 148.           Intra module refs:   dbgPrintNeighborTable::?relay
           ENTRY                   ADDRESS         REF BY
           =====                   =======         ======
           dbgPrintNeighborTable   00007ACF 
               calls direct
               XSTACK = 00000000 ( 0000000C )
    -------------------------------------------------------------------------
<BANKED_CODE> 1 (was BANKED_CODE)
  Relative segment, address: CODE 00007BEC - 00007BF7 (0xc bytes), align: 0
  Segment part 150.           Intra module refs:   dbgPrintNeighborTable
           LOCAL                   ADDRESS         
           =====                   =======         
           ?Subroutine17           00007BEC 
    -------------------------------------------------------------------------
<BANKED_CODE> 1 (was BANKED_CODE)
  Relative segment, address: CODE 00007BF8 - 00007BFB (0x4 bytes), align: 0
  Segment part 151.           Intra module refs:   dbgPrintNeighborTable
           LOCAL                   ADDRESS         
           =====                   =======         
           ?Subroutine12           00007BF8 
    -------------------------------------------------------------------------
<BANKED_CODE> 1 (was BANKED_CODE)
  Relative segment, address: CODE 00007BFC - 00007C01 (0x6 bytes), align: 0
  Segment part 152.           Intra module refs:   ?Subroutine12
           LOCAL                   ADDRESS         
           =====                   =======         
           ?Subroutine23           00007BFC 
    -------------------------------------------------------------------------
<BANKED_CODE> 1 (was BANKED_CODE)
  Relative segment, address: CODE 00007C02 - 00007C0A (0x9 bytes), align: 0
  Segment part 153.           Intra module refs:   dbgPrintNeighborTable
           LOCAL                   ADDRESS         
           =====                   =======         
           ?Subroutine9            00007C02 
    -------------------------------------------------------------------------
<BANKED_CODE> 1 (was BANKED_CODE)
  Relative segment, address: CODE 00007C0B - 00007C12 (0x8 bytes), align: 0
  Segment part 154.           Intra module refs:   dbgPrintNeighborTable
           LOCAL                   ADDRESS         
           =====                   =======         
           ?Subroutine6            00007C0B 
    -------------------------------------------------------------------------
CODE_C
  Relative segment, address: CODE 00001113 - 00001128 (0x16 bytes), align: 0
  Segment part 100.           Intra module refs:   dbgPrintNeighborTable
           LOCAL                   ADDRESS         
           =====                   =======         
           dbgPrintNeighborTable{2}::xxxxromstr
                                   00001113 
    -------------------------------------------------------------------------
CODE_C
  Relative segment, address: CODE 00001129 - 00001131 (0x9 bytes), align: 0
  Segment part 101.           Intra module refs:   dbgPrintNeighborTable
           LOCAL                   ADDRESS         
           =====                   =======         
           dbgPrintNeighborTable{3}{4}{5}::xxxxromstr
                                   00001129 
    -------------------------------------------------------------------------
CODE_C
  Relative segment, address: CODE 00001132 - 0000113A (0x9 bytes), align: 0
  Segment part 102.           Intra module refs:   dbgPrintNeighborTable
           LOCAL                   ADDRESS         
           =====                   =======         
           dbgPrintNeighborTable{3}{4}{6}::xxxxromstr
                                   00001132 
    -------------------------------------------------------------------------
CODE_C
  Relative segment, address: CODE 0000113B - 00001145 (0xb bytes), align: 0
  Segment part 103.           Intra module refs:   dbgPrintNeighborTable
           LOCAL                   ADDRESS         
           =====                   =======         
           dbgPrintNeighborTable{3}{4}{7}::xxxxromstr
                                   0000113B 
    -------------------------------------------------------------------------
CODE_C
  Relative segment, address: CODE 00001146 - 0000114C (0x7 bytes), align: 0
  Segment part 104.           Intra module refs:   dbgPrintNeighborTable
           LOCAL                   ADDRESS         
           =====                   =======         
           dbgPrintNeighborTable{3}{4}{8}::xxxxromstr
                                   00001146 
    -------------------------------------------------------------------------
CODE_C
  Relative segment, address: CODE 0000114D - 0000116C (0x20 bytes), align: 0
  Segment part 105.           Intra module refs:   dbgPrintNeighborTable
           LOCAL                   ADDRESS         
           =====                   =======         
           dbgPrintNeighborTable{10}::xxxxromstr
                                   0000114D 
    -------------------------------------------------------------------------
CODE_C
  Relative segment, address: CODE 0000116D - 00001175 (0x9 bytes), align: 0
  Segment part 106.           Intra module refs:   dbgPrintNeighborTable
           LOCAL                   ADDRESS         
           =====                   =======         
           dbgPrintNeighborTable{11}{12}::xxxxromstr
                                   0000116D 
    -------------------------------------------------------------------------
CODE_C
  Relative segment, address: CODE 00001176 - 0000117E (0x9 bytes), align: 0
  Segment part 107.           Intra module refs:   dbgPrintNeighborTable
           LOCAL                   ADDRESS         
           =====                   =======         
           dbgPrintNeighborTable{11}{13}::xxxxromstr
                                   00001176 
    -------------------------------------------------------------------------
BANK_RELAYS
  Relative segment, address: CODE 0000023B - 00000240 (0x6 bytes), align: 0
  Segment part 149.
           ENTRY                   ADDRESS         REF BY
           =====                   =======         ======
           dbgPrintNeighborTable::?relay
                                   0000023B        usrJoinNotifyCallback (test_demo)

    *************************************************************************

  FILE NAME : F:\6LoWSN\6lowsn_stack\obj\compiletest\iar51_cc2530\coord\Obj\ds.r51
  PROGRAM MODULE, NAME : ds

  SEGMENTS IN THE MODULE
  ======================
XDATA_Z
  Relative segment, address: XDATA 000003F2 - 00000508 (0x117 bytes), align: 0
  Segment part 6.             Intra module refs:   ?Subroutine16
                                                   ds6FindLinkLocalIP
                                                   ds6FindSrcIP
                                                   ds6Init
                                                   lowsn_ds6_aaddr_lookup
                                                   lowsn_ds6_maddr_add
                                                   lowsn_ds6_maddr_lookup
                                                   lowsn_ds6_uaddr_add
                                                   lowsn_ds6_uaddr_lookup
           ENTRY                   ADDRESS         REF BY
           =====                   =======         ======
           lowsn_ds6_if            000003F2        apsTxData (aps)
                                                   icmpCommonFmt (icmpv6)
                                                   ndFmtRA (nd)
    -------------------------------------------------------------------------
XDATA_Z
  Relative segment, address: XDATA 00000509 - 00000568 (0x60 bytes), align: 0
  Segment part 7.             Intra module refs:   ?Subroutine25
                                                   ds6Init
                                                   ds6TestOnLink
           ENTRY                   ADDRESS         REF BY
           =====                   =======         ======
           lowsn_ds6_prefix_list   00000509        ndFmtRA (nd)
    -------------------------------------------------------------------------
XDATA_Z
  Relative segment, address: XDATA 00000569 - 00000578 (0x10 bytes), align: 0
  Segment part 9.             Intra module refs:   ?Subroutine19
                                                   ?Subroutine20
                                                   ?Subroutine21
                                                   ?Subroutine24
                                                   ?Subroutine26
                                                   ?Subroutine29
                                                   ?Subroutine36
                                                   ?Subroutine8
                                                   ds6Init
                                                   ds6LocalIPFrom16
           LOCAL                   ADDRESS         
           =====                   =======         
           loc_fipaddr             00000569 
    -------------------------------------------------------------------------
XDATA_Z
  Relative segment, address: XDATA 00000579 - 0000057A (0x2 bytes), align: 0
  Segment part 10.            Intra module refs:   ?Subroutine1
                                                   ?Subroutine10
                                                   ?Subroutine11
                                                   ?Subroutine12
                                                   ?Subroutine13
                                                   ?Subroutine16
                                                   ?Subroutine3
                                                   ?Subroutine6
                                                   ?Subroutine7
                                                   ?Subroutine9
                                                   ds6FindLinkLocalIP
                                                   ds6FindSrcIP
                                                   lowsn_ds6_uaddr_add
                                                   lowsn_ds6_uaddr_lookup
           LOCAL                   ADDRESS         
           =====                   =======         
           locuaddr                00000579 
    -------------------------------------------------------------------------
XDATA_Z
  Relative segment, address: XDATA 0000057B - 0000057C (0x2 bytes), align: 0
  Segment part 11.            Intra module refs:   lowsn_ds6_maddr_add
                                                   lowsn_ds6_maddr_lookup
           LOCAL                   ADDRESS         
           =====                   =======         
           locmaddr                0000057B 
    -------------------------------------------------------------------------
XDATA_Z
  Relative segment, address: XDATA 0000057D - 0000057E (0x2 bytes), align: 0
  Segment part 12.            Intra module refs:   lowsn_ds6_aaddr_lookup
           LOCAL                   ADDRESS         
           =====                   =======         
           locaaddr                0000057D 
    -------------------------------------------------------------------------
XDATA_Z
  Relative segment, address: XDATA 0000057F - 00000580 (0x2 bytes), align: 0
  Segment part 13.            Intra module refs:   ds6TestOnLink
                                                   lowsn_ds6_prefix_add
           LOCAL                   ADDRESS         
           =====                   =======         
           locprefix               0000057F 
    -------------------------------------------------------------------------
<BANKED_CODE> 1 (was BANKED_CODE)
  Relative segment, address: CODE 0000535A - 00005441 (0xe8 bytes), align: 0
  Segment part 36.            Intra module refs:   ds6Init::?relay
           ENTRY                   ADDRESS         REF BY
           =====                   =======         ======
           ds6Init                 0000535A 
               calls direct
               XSTACK = 00000000 ( 00000014 )
    -------------------------------------------------------------------------
<BANKED_CODE> 1 (was BANKED_CODE)
  Relative segment, address: CODE 00005442 - 0000544A (0x9 bytes), align: 0
  Segment part 38.            Intra module refs:   ds6Init
           LOCAL                   ADDRESS         
           =====                   =======         
           ?Subroutine24           00005442 
    -------------------------------------------------------------------------
<BANKED_CODE> 1 (was BANKED_CODE)
  Relative segment, address: CODE 0000544B - 00005464 (0x1a bytes), align: 0
  Segment part 39.            Intra module refs:   ds6Init
           LOCAL                   ADDRESS         
           =====                   =======         
           ?Subroutine20           0000544B 
    -------------------------------------------------------------------------
CODE_C
  Relative segment, address: CODE 0000117F - 0000118A (0xc bytes), align: 0
  Segment part 15.            Intra module refs:   ds6Init
           LOCAL                   ADDRESS         
           =====                   =======         
           ds6Init{1}::xxxxromstr
                                   0000117F 
    -------------------------------------------------------------------------
<BANKED_CODE> 1 (was BANKED_CODE)
  Relative segment, address: CODE 00005465 - 000054A8 (0x44 bytes), align: 0
  Segment part 40.            Intra module refs:   ds6LocalIPFrom16::?relay
           ENTRY                   ADDRESS         REF BY
           =====                   =======         ======
           ds6LocalIPFrom16        00005465 
               calls direct
               XSTACK = 00000000 ( 00000004 )
               ISTACK = 00000000 ( 00000002 )
    -------------------------------------------------------------------------
<BANKED_CODE> 1 (was BANKED_CODE)
  Relative segment, address: CODE 000054A9 - 000054B5 (0xd bytes), align: 0
  Segment part 42.            Intra module refs:   ds6Init
                                                   ds6LocalIPFrom16
           LOCAL                   ADDRESS         
           =====                   =======         
           ?Subroutine21           000054A9 
    -------------------------------------------------------------------------
<BANKED_CODE> 1 (was BANKED_CODE)
  Relative segment, address: CODE 000054B6 - 000054CA (0x15 bytes), align: 0
  Segment part 43.            Intra module refs:   ?Subroutine21
                                                   ?Subroutine29
           LOCAL                   ADDRESS         
           =====                   =======         
           ?Subroutine36           000054B6 
    -------------------------------------------------------------------------
CODE_C
  Relative segment, address: CODE 0000118B - 000011A8 (0x1e bytes), align: 0
  Segment part 16.            Intra module refs:   ds6LocalIPFrom16
           LOCAL                   ADDRESS         
           =====                   =======         
           ds6LocalIPFrom16{1}::xxxxromstr
                                   0000118B 
    -------------------------------------------------------------------------
<BANKED_CODE> 1 (was BANKED_CODE)
  Relative segment, address: CODE 000054CB - 000055A7 (0xdd bytes), align: 0
  Segment part 44.            Intra module refs:   lowsn_ds6_list_loop::?relay
           ENTRY                   ADDRESS         REF BY
           =====                   =======         ======
           lowsn_ds6_list_loop     000054CB 
               calls direct
               XSTACK = 00000017 ( 00000014 )
    -------------------------------------------------------------------------
<BANKED_CODE> 1 (was BANKED_CODE)
  Relative segment, address: CODE 000055A8 - 000056B4 (0x10d bytes), align: 0
  Segment part 46.            Intra module refs:   lowsn_ds6_prefix_add::?relay
           ENTRY                   ADDRESS         REF BY
           =====                   =======         ======
           lowsn_ds6_prefix_add    000055A8 
               calls direct
               XSTACK = 00000014 ( 00000017 )
               ISTACK = 00000000 ( 00000002 )
    -------------------------------------------------------------------------
<BANKED_CODE> 1 (was BANKED_CODE)
  Relative segment, address: CODE 000056B5 - 000056B8 (0x4 bytes), align: 0
  Segment part 48.            Intra module refs:   lowsn_ds6_prefix_add
           LOCAL                   ADDRESS         
           =====                   =======         
           ?Subroutine17           000056B5 
    -------------------------------------------------------------------------
<BANKED_CODE> 1 (was BANKED_CODE)
  Relative segment, address: CODE 000056B9 - 000056C1 (0x9 bytes), align: 0
  Segment part 49.            Intra module refs:   ?Subroutine0
                                                   ?Subroutine17
                                                   Segment part 118
           LOCAL                   ADDRESS         
           =====                   =======         
           ?Subroutine31           000056B9 
    -------------------------------------------------------------------------
CODE_C
  Relative segment, address: CODE 000011A9 - 000011B8 (0x10 bytes), align: 0
  Segment part 17.            Intra module refs:   lowsn_ds6_prefix_add
           LOCAL                   ADDRESS         
           =====                   =======         
           lowsn_ds6_prefix_add{1}{2}::xxxxromstr
                                   000011A9 
    -------------------------------------------------------------------------
CODE_C
  Relative segment, address: CODE 000011B9 - 000011C5 (0xd bytes), align: 0
  Segment part 18.            Intra module refs:   lowsn_ds6_prefix_add
           LOCAL                   ADDRESS         
           =====                   =======         
           lowsn_ds6_prefix_add{1}{3}::xxxxromstr
                                   000011B9 
    -------------------------------------------------------------------------
CODE_C
  Relative segment, address: CODE 000011C6 - 000011C7 (0x2 bytes), align: 0
  Segment part 19.            Intra module refs:   lowsn_ds6_prefix_add
           LOCAL                   ADDRESS         
           =====                   =======         
           lowsn_ds6_prefix_add{1}{4}::xxxxromstr
                                   000011C6 
    -------------------------------------------------------------------------
CODE_C
  Relative segment, address: CODE 000011C8 - 000011E5 (0x1e bytes), align: 0
  Segment part 20.            Intra module refs:   lowsn_ds6_prefix_add
           LOCAL                   ADDRESS         
           =====                   =======         
           lowsn_ds6_prefix_add{5}{6}::xxxxromstr
                                   000011C8 
    -------------------------------------------------------------------------
<BANKED_CODE> 1 (was BANKED_CODE)
  Relative segment, address: CODE 000056C2 - 000056C9 (0x8 bytes), align: 0
  Segment part 52.            Intra module refs:   ds6FindSrcIP
                                                   ds6Init
                                                   ds6LocalIPFrom16
                                                   lowsn_ds6_prefix_add
                                                   lowsn_ds6_uaddr_add
           LOCAL                   ADDRESS         
           =====                   =======         
           ?Subroutine5            000056C2 
    -------------------------------------------------------------------------
<BANKED_CODE> 1 (was BANKED_CODE)
  Relative segment, address: CODE 000056CA - 000057B9 (0xf0 bytes), align: 0
  Segment part 55.            Intra module refs:   lowsn_ds6_uaddr_add::?relay
           ENTRY                   ADDRESS         REF BY
           =====                   =======         ======
           lowsn_ds6_uaddr_add     000056CA 
               calls direct
               XSTACK = 00000010 ( 00000015 )
               ISTACK = 00000000 ( 00000002 )
    -------------------------------------------------------------------------
<BANKED_CODE> 1 (was BANKED_CODE)
  Relative segment, address: CODE 000057BA - 000057BE (0x5 bytes), align: 0
  Segment part 57.            Intra module refs:   lowsn_ds6_list_loop
                                                   lowsn_ds6_prefix_add
           LOCAL                   ADDRESS         
           =====                   =======         
           ?Subroutine40           000057BA 
    -------------------------------------------------------------------------
<BANKED_CODE> 1 (was BANKED_CODE)
  Relative segment, address: CODE 000057BF - 000057C3 (0x5 bytes), align: 0
  Segment part 58.            Intra module refs:   ?Subroutine40
                                                   lowsn_ds6_uaddr_add
    -------------------------------------------------------------------------
<BANKED_CODE> 1 (was BANKED_CODE)
  Relative segment, address: CODE 000057C4 - 000057CB (0x8 bytes), align: 0
  Segment part 59.            Intra module refs:   lowsn_ds6_uaddr_add
           LOCAL                   ADDRESS         
           =====                   =======         
           ?Subroutine18           000057C4 
    -------------------------------------------------------------------------
<BANKED_CODE> 1 (was BANKED_CODE)
  Relative segment, address: CODE 000057CC - 000057D2 (0x7 bytes), align: 0
  Segment part 60.            Intra module refs:   lowsn_ds6_prefix_add
                                                   lowsn_ds6_uaddr_add
           LOCAL                   ADDRESS         
           =====                   =======         
           ?Subroutine15           000057CC 
    -------------------------------------------------------------------------
<BANKED_CODE> 1 (was BANKED_CODE)
  Relative segment, address: CODE 000057D3 - 000057D5 (0x3 bytes), align: 0
  Segment part 61.            Intra module refs:   lowsn_ds6_prefix_add
                                                   lowsn_ds6_uaddr_add
           LOCAL                   ADDRESS         
           =====                   =======         
           ?Subroutine4            000057D3 
    -------------------------------------------------------------------------
<BANKED_CODE> 1 (was BANKED_CODE)
  Relative segment, address: CODE 000057D6 - 000057D9 (0x4 bytes), align: 0
  Segment part 62.            Intra module refs:   ?Subroutine4
                                                   lowsn_ds6_prefix_add
    -------------------------------------------------------------------------
<BANKED_CODE> 1 (was BANKED_CODE)
  Relative segment, address: CODE 000057DA - 000057DC (0x3 bytes), align: 0
  Segment part 63.            Intra module refs:   lowsn_ds6_uaddr_add
           LOCAL                   ADDRESS         
           =====                   =======         
           ?Subroutine3            000057DA 
    -------------------------------------------------------------------------
<BANKED_CODE> 1 (was BANKED_CODE)
  Relative segment, address: CODE 000057DD - 000057E3 (0x7 bytes), align: 0
  Segment part 64.            Intra module refs:   ?Subroutine3
                                                   lowsn_ds6_prefix_add
    -------------------------------------------------------------------------
<BANKED_CODE> 1 (was BANKED_CODE)
  Relative segment, address: CODE 000057E4 - 000057EE (0xb bytes), align: 0
  Segment part 65.            Intra module refs:   ?Subroutine2
                                                   Segment part 62
                                                   Segment part 64
           LOCAL                   ADDRESS         
           =====                   =======         
           ?Subroutine32           000057E4 
    -------------------------------------------------------------------------
CODE_C
  Relative segment, address: CODE 000011E6 - 000011F4 (0xf bytes), align: 0
  Segment part 24.            Intra module refs:   lowsn_ds6_uaddr_add
           LOCAL                   ADDRESS         
           =====                   =======         
           lowsn_ds6_uaddr_add{1}{4}::xxxxromstr
                                   000011E6 
    -------------------------------------------------------------------------
CODE_C
  Relative segment, address: CODE 000011F5 - 000011FB (0x7 bytes), align: 0
  Segment part 25.            Intra module refs:   lowsn_ds6_uaddr_add
           LOCAL                   ADDRESS         
           =====                   =======         
           lowsn_ds6_uaddr_add{1}{5}::xxxxromstr
                                   000011F5 
    -------------------------------------------------------------------------
CODE_C
  Relative segment, address: CODE 000011FC - 000011FD (0x2 bytes), align: 0
  Segment part 26.            Intra module refs:   lowsn_ds6_uaddr_add
           LOCAL                   ADDRESS         
           =====                   =======         
           lowsn_ds6_uaddr_add{1}{6}::xxxxromstr
                                   000011FC 
    -------------------------------------------------------------------------
<BANKED_CODE> 1 (was BANKED_CODE)
  Relative segment, address: CODE 000057EF - 000057F6 (0x8 bytes), align: 0
  Segment part 68.            Intra module refs:   lowsn_ds6_uaddr_add
           LOCAL                   ADDRESS         
           =====                   =======         
           ?Subroutine26           000057EF 
    -------------------------------------------------------------------------
<BANKED_CODE> 1 (was BANKED_CODE)
  Relative segment, address: CODE 000057F7 - 00005811 (0x1b bytes), align: 0
  Segment part 69.            Intra module refs:   lowsn_ds6_uaddr_add
           LOCAL                   ADDRESS         
           =====                   =======         
           ?Subroutine19           000057F7 
    -------------------------------------------------------------------------
<BANKED_CODE> 1 (was BANKED_CODE)
  Relative segment, address: CODE 00005812 - 0000581F (0xe bytes), align: 0
  Segment part 70.            Intra module refs:   ?Subroutine19
                                                   ?Subroutine20
           LOCAL                   ADDRESS         
           =====                   =======         
           ?Subroutine29           00005812 
    -------------------------------------------------------------------------
<BANKED_CODE> 1 (was BANKED_CODE)
  Relative segment, address: CODE 00005820 - 00005833 (0x14 bytes), align: 0
  Segment part 71.            Intra module refs:   lowsn_ds6_uaddr_add
           LOCAL                   ADDRESS         
           =====                   =======         
           ?Subroutine8            00005820 
    -------------------------------------------------------------------------
<BANKED_CODE> 1 (was BANKED_CODE)
  Relative segment, address: CODE 00005834 - 00005839 (0x6 bytes), align: 0
  Segment part 72.            Intra module refs:   ?Subroutine26
                                                   ?Subroutine8
           LOCAL                   ADDRESS         
           =====                   =======         
           ?Subroutine35           00005834 
    -------------------------------------------------------------------------
<BANKED_CODE> 1 (was BANKED_CODE)
  Relative segment, address: CODE 0000583A - 00005879 (0x40 bytes), align: 0
  Segment part 73.            Intra module refs:   lowsn_ds6_uaddr_lookup::?relay
           ENTRY                   ADDRESS         REF BY
           =====                   =======         ======
           lowsn_ds6_uaddr_lookup
                                   0000583A 
               calls direct
               XSTACK = 00000000 ( 0000000F )
    -------------------------------------------------------------------------
<BANKED_CODE> 1 (was BANKED_CODE)
  Relative segment, address: CODE 0000587A - 000058E2 (0x69 bytes), align: 0
  Segment part 75.            Intra module refs:   lowsn_ds6_maddr_add::?relay
           ENTRY                   ADDRESS         REF BY
           =====                   =======         ======
           lowsn_ds6_maddr_add     0000587A 
               calls direct
               XSTACK = 00000010 ( 00000011 )
               ISTACK = 00000000 ( 00000002 )
    -------------------------------------------------------------------------
<BANKED_CODE> 1 (was BANKED_CODE)
  Relative segment, address: CODE 000058E3 - 000058E7 (0x5 bytes), align: 0
  Segment part 77.            Intra module refs:   ds6Init
                                                   ds6MatchNum
                                                   lowsn_ds6_maddr_add
           LOCAL                   ADDRESS         
           =====                   =======         
           ?Subroutine38           000058E3 
    -------------------------------------------------------------------------
<BANKED_CODE> 1 (was BANKED_CODE)
  Relative segment, address: CODE 000058E8 - 000058F4 (0xd bytes), align: 0
  Segment part 78.            Intra module refs:   lowsn_ds6_maddr_add
                                                   lowsn_ds6_uaddr_add
           LOCAL                   ADDRESS         
           =====                   =======         
           ?Subroutine0            000058E8 
    -------------------------------------------------------------------------
<BANKED_CODE> 1 (was BANKED_CODE)
  Relative segment, address: CODE 000058F5 - 000058F7 (0x3 bytes), align: 0
  Segment part 81.            Intra module refs:   ds6GenInterfaceID16
                                                   ds6GenInterfaceID64
           LOCAL                   ADDRESS         
           =====                   =======         
           ?Subroutine28           000058F5 
    -------------------------------------------------------------------------
<BANKED_CODE> 1 (was BANKED_CODE)
  Relative segment, address: CODE 000058F8 - 000058FC (0x5 bytes), align: 0
  Segment part 82.            Intra module refs:   ?Subroutine28
    -------------------------------------------------------------------------
<BANKED_CODE> 1 (was BANKED_CODE)
  Relative segment, address: CODE 000058FD - 0000593C (0x40 bytes), align: 0
  Segment part 83.            Intra module refs:   lowsn_ds6_maddr_lookup::?relay
           ENTRY                   ADDRESS         REF BY
           =====                   =======         ======
           lowsn_ds6_maddr_lookup
                                   000058FD 
               calls direct
               XSTACK = 0000000A ( 0000000F )
    -------------------------------------------------------------------------
<BANKED_CODE> 1 (was BANKED_CODE)
  Relative segment, address: CODE 0000593D - 00005941 (0x5 bytes), align: 0
  Segment part 85.            Intra module refs:   ds6GenInterfaceID16
                                                   ds6TestOnLink
                                                   lowsn_ds6_aaddr_lookup
                                                   lowsn_ds6_maddr_lookup
                                                   lowsn_ds6_uaddr_lookup
           LOCAL                   ADDRESS         
           =====                   =======         
           ?Subroutine41           0000593D 
    -------------------------------------------------------------------------
<BANKED_CODE> 1 (was BANKED_CODE)
  Relative segment, address: CODE 00005942 - 0000594B (0xa bytes), align: 0
  Segment part 88.            Intra module refs:   lowsn_ds6_prefix_add
           LOCAL                   ADDRESS         
           =====                   =======         
           ?Subroutine25           00005942 
    -------------------------------------------------------------------------
<BANKED_CODE> 1 (was BANKED_CODE)
  Relative segment, address: CODE 0000594C - 00005951 (0x6 bytes), align: 0
  Segment part 89.            Intra module refs:   ?Subroutine25
                                                   lowsn_ds6_aaddr_lookup
                                                   lowsn_ds6_maddr_add
                                                   lowsn_ds6_maddr_lookup
                                                   lowsn_ds6_uaddr_add
                                                   lowsn_ds6_uaddr_lookup
    -------------------------------------------------------------------------
<BANKED_CODE> 1 (was BANKED_CODE)
  Relative segment, address: CODE 00005952 - 00005954 (0x3 bytes), align: 0
  Segment part 90.            Intra module refs:   ds6FindSrcIP
                                                   lowsn_ds6_uaddr_add
           LOCAL                   ADDRESS         
           =====                   =======         
           ?Subroutine1            00005952 
    -------------------------------------------------------------------------
<BANKED_CODE> 1 (was BANKED_CODE)
  Relative segment, address: CODE 00005955 - 0000595E (0xa bytes), align: 0
  Segment part 91.            Intra module refs:   ?Subroutine1
                                                   lowsn_ds6_maddr_add
                                                   lowsn_ds6_prefix_add
    -------------------------------------------------------------------------
<BANKED_CODE> 1 (was BANKED_CODE)
  Relative segment, address: CODE 0000595F - 000059A1 (0x43 bytes), align: 0
  Segment part 94.            Intra module refs:   lowsn_ds6_aaddr_lookup::?relay
           ENTRY                   ADDRESS         REF BY
           =====                   =======         ======
           lowsn_ds6_aaddr_lookup
                                   0000595F 
               calls direct
               XSTACK = 00000000 ( 0000000F )
    -------------------------------------------------------------------------
<BANKED_CODE> 1 (was BANKED_CODE)
  Relative segment, address: CODE 000059A2 - 000059A4 (0x3 bytes), align: 0
  Segment part 96.            Intra module refs:   ds6FindLinkLocalIP
                                                   lowsn_ds6_uaddr_add
                                                   lowsn_ds6_uaddr_lookup
           LOCAL                   ADDRESS         
           =====                   =======         
           ?Subroutine7            000059A2 
    -------------------------------------------------------------------------
<BANKED_CODE> 1 (was BANKED_CODE)
  Relative segment, address: CODE 000059A5 - 000059AA (0x6 bytes), align: 0
  Segment part 97.            Intra module refs:   ?Subroutine7
                                                   lowsn_ds6_aaddr_lookup
                                                   lowsn_ds6_maddr_add
                                                   lowsn_ds6_maddr_lookup
                                                   lowsn_ds6_prefix_add
    -------------------------------------------------------------------------
<BANKED_CODE> 1 (was BANKED_CODE)
  Relative segment, address: CODE 000059AB - 00005A1D (0x73 bytes), align: 0
  Segment part 98.            Intra module refs:   ds6TestOnLink::?relay
           ENTRY                   ADDRESS         REF BY
           =====                   =======         ======
           ds6TestOnLink           000059AB 
               calls direct
               XSTACK = 00000000 ( 0000000C )
    -------------------------------------------------------------------------
<BANKED_CODE> 1 (was BANKED_CODE)
  Relative segment, address: CODE 00005A1E - 00005A27 (0xa bytes), align: 0
  Segment part 100.           Intra module refs:   ?Subroutine15
                                                   ds6TestOnLink
           LOCAL                   ADDRESS         
           =====                   =======         
           ?Subroutine34           00005A1E 
    -------------------------------------------------------------------------
<BANKED_CODE> 1 (was BANKED_CODE)
  Relative segment, address: CODE 00005A28 - 00005A2F (0x8 bytes), align: 0
  Segment part 101.           Intra module refs:   ds6FindSrcIP
                                                   ds6TestOnLink
                                                   lowsn_ds6_maddr_add
           LOCAL                   ADDRESS         
           =====                   =======         
           ?Subroutine2            00005A28 
    -------------------------------------------------------------------------
<BANKED_CODE> 1 (was BANKED_CODE)
  Relative segment, address: CODE 00005A30 - 00005B3E (0x10f bytes), align: 0
  Segment part 102.           Intra module refs:   ds6FindSrcIP::?relay
           ENTRY                   ADDRESS         REF BY
           =====                   =======         ======
           ds6FindSrcIP            00005A30 
               calls direct
               XSTACK = 00000000 ( 0000000E )
    -------------------------------------------------------------------------
<BANKED_CODE> 1 (was BANKED_CODE)
  Relative segment, address: CODE 00005B3F - 00005B43 (0x5 bytes), align: 0
  Segment part 104.           Intra module refs:   ds6FindSrcIP
           LOCAL                   ADDRESS         
           =====                   =======         
           ?Subroutine42           00005B3F 
    -------------------------------------------------------------------------
<BANKED_CODE> 1 (was BANKED_CODE)
  Relative segment, address: CODE 00005B44 - 00005B4F (0xc bytes), align: 0
  Segment part 105.           Intra module refs:   ds6FindSrcIP
           LOCAL                   ADDRESS         
           =====                   =======         
           ?Subroutine27           00005B44 
    -------------------------------------------------------------------------
<BANKED_CODE> 1 (was BANKED_CODE)
  Relative segment, address: CODE 00005B50 - 00005B53 (0x4 bytes), align: 0
  Segment part 106.           Intra module refs:   ds6FindSrcIP
           LOCAL                   ADDRESS         
           =====                   =======         
           ?Subroutine23           00005B50 
    -------------------------------------------------------------------------
<BANKED_CODE> 1 (was BANKED_CODE)
  Relative segment, address: CODE 00005B54 - 00005B59 (0x6 bytes), align: 0
  Segment part 107.           Intra module refs:   ?Subroutine22
                                                   ?Subroutine23
           LOCAL                   ADDRESS         
           =====                   =======         
           ?Subroutine30           00005B54 
    -------------------------------------------------------------------------
<BANKED_CODE> 1 (was BANKED_CODE)
  Relative segment, address: CODE 00005B5A - 00005B63 (0xa bytes), align: 0
  Segment part 108.           Intra module refs:   ?Subroutine30
                                                   ds6FindSrcIP
           LOCAL                   ADDRESS         
           =====                   =======         
           ?Subroutine37           00005B5A 
    -------------------------------------------------------------------------
<BANKED_CODE> 1 (was BANKED_CODE)
  Relative segment, address: CODE 00005B64 - 00005B6B (0x8 bytes), align: 0
  Segment part 109.           Intra module refs:   ds6FindSrcIP
           LOCAL                   ADDRESS         
           =====                   =======         
           ?Subroutine22           00005B64 
    -------------------------------------------------------------------------
CODE_C
  Relative segment, address: CODE 000011FE - 00001237 (0x3a bytes), align: 0
  Segment part 27.            Intra module refs:   ds6FindSrcIP
           LOCAL                   ADDRESS         
           =====                   =======         
           ds6FindSrcIP{8}{9}::xxxxromstr
                                   000011FE 
    -------------------------------------------------------------------------
<BANKED_CODE> 1 (was BANKED_CODE)
  Relative segment, address: CODE 00005B6C - 00005BA4 (0x39 bytes), align: 0
  Segment part 110.           Intra module refs:   ds6FindLinkLocalIP::?relay
           ENTRY                   ADDRESS         REF BY
           =====                   =======         ======
           ds6FindLinkLocalIP      00005B6C 
               XSTACK = 0000000E ( 00000000 )
               ISTACK = 00000000 ( 00000002 )
    -------------------------------------------------------------------------
<BANKED_CODE> 1 (was BANKED_CODE)
  Relative segment, address: CODE 00005BA5 - 00005BAB (0x7 bytes), align: 0
  Segment part 112.           Intra module refs:   ds6FindLinkLocalIP
                                                   ds6GenInterfaceID64
                                                   ds6LocalIPFrom16
           LOCAL                   ADDRESS         
           =====                   =======         
           ?Subroutine39           00005BA5 
    -------------------------------------------------------------------------
<BANKED_CODE> 1 (was BANKED_CODE)
  Relative segment, address: CODE 00005BAC - 00005BB8 (0xd bytes), align: 0
  Segment part 113.           Intra module refs:   ds6FindLinkLocalIP
                                                   ds6FindSrcIP
           LOCAL                   ADDRESS         
           =====                   =======         
           ?Subroutine16           00005BAC 
    -------------------------------------------------------------------------
<BANKED_CODE> 1 (was BANKED_CODE)
  Relative segment, address: CODE 00005BB9 - 00005BBB (0x3 bytes), align: 0
  Segment part 114.           Intra module refs:   ds6FindLinkLocalIP
           LOCAL                   ADDRESS         
           =====                   =======         
           ?Subroutine11           00005BB9 
    -------------------------------------------------------------------------
<BANKED_CODE> 1 (was BANKED_CODE)
  Relative segment, address: CODE 00005BBC - 00005BC5 (0xa bytes), align: 0
  Segment part 115.           Intra module refs:   ?Subroutine11
                                                   ds6FindSrcIP
    -------------------------------------------------------------------------
<BANKED_CODE> 1 (was BANKED_CODE)
  Relative segment, address: CODE 00005BC6 - 00005BD3 (0xe bytes), align: 0
  Segment part 116.           Intra module refs:   ds6FindLinkLocalIP
                                                   ds6FindSrcIP
           LOCAL                   ADDRESS         
           =====                   =======         
           ?Subroutine9            00005BC6 
    -------------------------------------------------------------------------
<BANKED_CODE> 1 (was BANKED_CODE)
  Relative segment, address: CODE 00005BD4 - 00005BD6 (0x3 bytes), align: 0
  Segment part 117.           Intra module refs:   ds6FindLinkLocalIP
                                                   ds6FindSrcIP
           LOCAL                   ADDRESS         
           =====                   =======         
           ?Subroutine6            00005BD4 
    -------------------------------------------------------------------------
<BANKED_CODE> 1 (was BANKED_CODE)
  Relative segment, address: CODE 00005BD7 - 00005BDB (0x5 bytes), align: 0
  Segment part 118.           Intra module refs:   ?Subroutine6
                                                   ds6TestOnLink
    -------------------------------------------------------------------------
<BANKED_CODE> 1 (was BANKED_CODE)
  Relative segment, address: CODE 00005BDC - 00005BE7 (0xc bytes), align: 0
  Segment part 121.           Intra module refs:   ds6FindLinkLocalIP
           LOCAL                   ADDRESS         
           =====                   =======         
           ?Subroutine13           00005BDC 
    -------------------------------------------------------------------------
<BANKED_CODE> 1 (was BANKED_CODE)
  Relative segment, address: CODE 00005BE8 - 00005BF3 (0xc bytes), align: 0
  Segment part 122.           Intra module refs:   ds6FindLinkLocalIP
           LOCAL                   ADDRESS         
           =====                   =======         
           ?Subroutine12           00005BE8 
    -------------------------------------------------------------------------
<BANKED_CODE> 1 (was BANKED_CODE)
  Relative segment, address: CODE 00005BF4 - 00005BFE (0xb bytes), align: 0
  Segment part 123.           Intra module refs:   ?Subroutine12
                                                   ?Subroutine13
           LOCAL                   ADDRESS         
           =====                   =======         
           ?Subroutine33           00005BF4 
    -------------------------------------------------------------------------
<BANKED_CODE> 1 (was BANKED_CODE)
  Relative segment, address: CODE 00005BFF - 00005C12 (0x14 bytes), align: 0
  Segment part 124.           Intra module refs:   ds6FindLinkLocalIP
           LOCAL                   ADDRESS         
           =====                   =======         
           ?Subroutine10           00005BFF 
    -------------------------------------------------------------------------
<BANKED_CODE> 1 (was BANKED_CODE)
  Relative segment, address: CODE 00005C13 - 00005C2A (0x18 bytes), align: 0
  Segment part 127.           Intra module refs:   ds6GenInterfaceID64::?relay
           ENTRY                   ADDRESS         REF BY
           =====                   =======         ======
           ds6GenInterfaceID64     00005C13 
               calls direct
               XSTACK = 0000000C ( 00000000 )
               ISTACK = 00000000 ( 00000002 )
    -------------------------------------------------------------------------
<BANKED_CODE> 1 (was BANKED_CODE)
  Relative segment, address: CODE 00005C2B - 00005C9F (0x75 bytes), align: 0
  Segment part 129.           Intra module refs:   ds6GenInterfaceID16::?relay
           ENTRY                   ADDRESS         REF BY
           =====                   =======         ======
           ds6GenInterfaceID16     00005C2B 
               XSTACK = 00000002 ( 0000000A )
               ISTACK = 00000000 ( 00000001 )
    -------------------------------------------------------------------------
<BANKED_CODE> 1 (was BANKED_CODE)
  Relative segment, address: CODE 00005CA0 - 00005CFF (0x60 bytes), align: 0
  Segment part 131.           Intra module refs:   ds6MatchNum::?relay
           ENTRY                   ADDRESS         REF BY
           =====                   =======         ======
           ds6MatchNum             00005CA0 
               XSTACK = 0000000E ( 0000000C )
               ISTACK = 00000000 ( 00000001 )
    -------------------------------------------------------------------------
XDATA_I
  Relative segment, address: XDATA 0000119C - 0000119F (0x4 bytes), align: 0
  Segment part 28.            Intra module refs:   ds6Init
           ENTRY                   ADDRESS         REF BY
           =====                   =======         ======
           __Constant_7f           0000119C 
    -------------------------------------------------------------------------
XDATA_ID
  Relative segment, address: CODE 00000153 - 00000156 (0x4 bytes), align: 0
  Segment part 29.            Intra module refs:   __Constant_7f
    -------------------------------------------------------------------------
XDATA_I
  Relative segment, address: XDATA 000011A0 - 000011A3 (0x4 bytes), align: 0
  Segment part 30.            Intra module refs:   ds6Init
           ENTRY                   ADDRESS         REF BY
           =====                   =======         ======
           __Constant_7530         000011A0 
    -------------------------------------------------------------------------
XDATA_ID
  Relative segment, address: CODE 00000157 - 0000015A (0x4 bytes), align: 0
  Segment part 31.            Intra module refs:   __Constant_7530
    -------------------------------------------------------------------------
XDATA_I
  Relative segment, address: XDATA 000011A4 - 000011A7 (0x4 bytes), align: 0
  Segment part 32.            Intra module refs:   ds6Init
           ENTRY                   ADDRESS         REF BY
           =====                   =======         ======
           __Constant_3e8          000011A4 
    -------------------------------------------------------------------------
XDATA_ID
  Relative segment, address: CODE 0000015B - 0000015E (0x4 bytes), align: 0
  Segment part 33.            Intra module refs:   __Constant_3e8
    -------------------------------------------------------------------------
BANK_RELAYS
  Relative segment, address: CODE 00000241 - 00000246 (0x6 bytes), align: 0
  Segment part 37.
           ENTRY                   ADDRESS         REF BY
           =====                   =======         ======
           ds6Init::?relay         00000241        nwkInit (nwk)
    -------------------------------------------------------------------------
BANK_RELAYS
  Relative segment, address: CODE 00000247 - 0000024C (0x6 bytes), align: 0
  Segment part 41.
           ENTRY                   ADDRESS         REF BY
           =====                   =======         ======
           ds6LocalIPFrom16::?relay
                                   00000247        adpFSM (adp)
    -------------------------------------------------------------------------
BANK_RELAYS
  Relative segment, address: CODE 0000024D - 00000252 (0x6 bytes), align: 0
  Segment part 45.            Intra module refs:   Segment part 89
           ENTRY                   ADDRESS         REF BY
           =====                   =======         ======
           lowsn_ds6_list_loop::?relay
                                   0000024D 
    -------------------------------------------------------------------------
BANK_RELAYS
  Relative segment, address: CODE 00000253 - 00000258 (0x6 bytes), align: 0
  Segment part 47.            Intra module refs:   ds6Init
           ENTRY                   ADDRESS         REF BY
           =====                   =======         ======
           lowsn_ds6_prefix_add::?relay
                                   00000253        main (test_demo)
    -------------------------------------------------------------------------
BANK_RELAYS
  Relative segment, address: CODE 00000259 - 0000025E (0x6 bytes), align: 0
  Segment part 56.            Intra module refs:   ds6Init
                                                   ds6LocalIPFrom16
           ENTRY                   ADDRESS         REF BY
           =====                   =======         ======
           lowsn_ds6_uaddr_add::?relay
                                   00000259 
    -------------------------------------------------------------------------
BANK_RELAYS
  Relative segment, address: CODE 0000025F - 00000264 (0x6 bytes), align: 0
  Segment part 74.
           ENTRY                   ADDRESS         REF BY
           =====                   =======         ======
           lowsn_ds6_uaddr_lookup::?relay
                                   0000025F        nwkRxFSM (nwk)
    -------------------------------------------------------------------------
BANK_RELAYS
  Relative segment, address: CODE 00000265 - 0000026A (0x6 bytes), align: 0
  Segment part 76.            Intra module refs:   ?Subroutine24
                                                   lowsn_ds6_uaddr_add
           ENTRY                   ADDRESS         REF BY
           =====                   =======         ======
           lowsn_ds6_maddr_add::?relay
                                   00000265 
    -------------------------------------------------------------------------
BANK_RELAYS
  Relative segment, address: CODE 0000026B - 00000270 (0x6 bytes), align: 0
  Segment part 84.
           ENTRY                   ADDRESS         REF BY
           =====                   =======         ======
           lowsn_ds6_maddr_lookup::?relay
                                   0000026B        nwkRxFSM (nwk)
    -------------------------------------------------------------------------
BANK_RELAYS
  Relative segment, address: CODE 00000271 - 00000276 (0x6 bytes), align: 0
  Segment part 95.
           ENTRY                   ADDRESS         REF BY
           =====                   =======         ======
           lowsn_ds6_aaddr_lookup::?relay
                                   00000271        nwkRxFSM (nwk)
    -------------------------------------------------------------------------
BANK_RELAYS
  Relative segment, address: CODE 00000277 - 0000027C (0x6 bytes), align: 0
  Segment part 99.
           ENTRY                   ADDRESS         REF BY
           =====                   =======         ======
           ds6TestOnLink::?relay   00000277        adpFmtCompHeader (adp)
                                                   nwkFindDstDLLAddr (nwk)
    -------------------------------------------------------------------------
BANK_RELAYS
  Relative segment, address: CODE 0000027D - 00000282 (0x6 bytes), align: 0
  Segment part 103.
           ENTRY                   ADDRESS         REF BY
           =====                   =======         ======
           ds6FindSrcIP::?relay    0000027D        apsTxData (aps)
                                                   icmpCommonFmt (icmpv6)
                                                   ndFmtRS (nd)
    -------------------------------------------------------------------------
BANK_RELAYS
  Relative segment, address: CODE 00000283 - 00000288 (0x6 bytes), align: 0
  Segment part 111.           Intra module refs:   ds6FindSrcIP
           ENTRY                   ADDRESS         REF BY
           =====                   =======         ======
           ds6FindLinkLocalIP::?relay
                                   00000283 
    -------------------------------------------------------------------------
BANK_RELAYS
  Relative segment, address: CODE 00000289 - 0000028E (0x6 bytes), align: 0
  Segment part 128.           Intra module refs:   ds6Init
           ENTRY                   ADDRESS         REF BY
           =====                   =======         ======
           ds6GenInterfaceID64::?relay
                                   00000289 
    -------------------------------------------------------------------------
BANK_RELAYS
  Relative segment, address: CODE 0000028F - 00000294 (0x6 bytes), align: 0
  Segment part 130.           Intra module refs:   ds6LocalIPFrom16
           ENTRY                   ADDRESS         REF BY
           =====                   =======         ======
           ds6GenInterfaceID16::?relay
                                   0000028F        adpParseCompHdr (adp)
                                                   mpInit (mp)
    -------------------------------------------------------------------------
BANK_RELAYS
  Relative segment, address: CODE 00000295 - 0000029A (0x6 bytes), align: 0
  Segment part 132.           Intra module refs:   ds6FindSrcIP
           ENTRY                   ADDRESS         REF BY
           =====                   =======         ======
           ds6MatchNum::?relay     00000295 

    *************************************************************************

  FILE NAME : F:\6LoWSN\6lowsn_stack\obj\compiletest\iar51_cc2530\coord\Obj\evboard.r51
  PROGRAM MODULE, NAME : evboard

  SEGMENTS IN THE MODULE
  ======================
SFR_AN
  Relative segment, address: DATA 00000090 - 00000090 (0x1 bytes), align: 0
  Segment part 1. ROOT.       Intra module refs:   evbInit
                                                   evbLedSet
           ENTRY                   ADDRESS         REF BY
           =====                   =======         ======
           _A_P1                   00000090 
    -------------------------------------------------------------------------
SFR_AN
  Relative segment, address: DATA 000000F4 - 000000F4 (0x1 bytes), align: 0
  Segment part 2. ROOT.       Intra module refs:   evbInit
                                                   halInit (halStack)
           ENTRY                   ADDRESS         REF BY
           =====                   =======         ======
           P1SEL                   000000F4 
    -------------------------------------------------------------------------
SFR_AN
  Relative segment, address: DATA 000000F5 - 000000F5 (0x1 bytes), align: 0
  Segment part 3. ROOT.       Intra module refs:   evbInit
           ENTRY                   ADDRESS         REF BY
           =====                   =======         ======
           P2SEL                   000000F5 
    -------------------------------------------------------------------------
SFR_AN
  Relative segment, address: DATA 000000FD - 000000FD (0x1 bytes), align: 0
  Segment part 4. ROOT.       Intra module refs:   evbInit
           ENTRY                   ADDRESS         REF BY
           =====                   =======         ======
           P0DIR                   000000FD 
    -------------------------------------------------------------------------
SFR_AN
  Relative segment, address: DATA 000000FE - 000000FE (0x1 bytes), align: 0
  Segment part 5. ROOT.       Intra module refs:   evbInit
           ENTRY                   ADDRESS         REF BY
           =====                   =======         ======
           P1DIR                   000000FE 
    -------------------------------------------------------------------------
XDATA_Z
  Relative segment, address: XDATA 00000581 - 00000582 (0x2 bytes), align: 0
  Segment part 11.            Intra module refs:   evbInit
                                                   evbIntCallback
           ENTRY                   ADDRESS         REF BY
           =====                   =======         ======
           sw_state                00000581 
    -------------------------------------------------------------------------
<BANKED_CODE> 1 (was BANKED_CODE)
  Relative segment, address: CODE 000077B0 - 00007823 (0x74 bytes), align: 0
  Segment part 13.            Intra module refs:   getJoystickDirection::?relay
           ENTRY                   ADDRESS         REF BY
           =====                   =======         ======
           getJoystickDirection    000077B0 
               calls direct
               XSTACK = 0000000A ( 0000000B )
               ISTACK = 00000000 ( 00000001 )
    -------------------------------------------------------------------------
<BANKED_CODE> 1 (was BANKED_CODE)
  Relative segment, address: CODE 00007824 - 00007834 (0x11 bytes), align: 0
  Segment part 15.            Intra module refs:   getJoystickDirection
           LOCAL                   ADDRESS         
           =====                   =======         
           ?Subroutine0            00007824 
    -------------------------------------------------------------------------
<BANKED_CODE> 1 (was BANKED_CODE)
  Relative segment, address: CODE 00007835 - 00007837 (0x3 bytes), align: 0
  Segment part 16.            Intra module refs:   evbPoll::?relay
           ENTRY                   ADDRESS         REF BY
           =====                   =======         ======
           evbPoll                 00007835 
    -------------------------------------------------------------------------
<BANKED_CODE> 1 (was BANKED_CODE)
  Relative segment, address: CODE 00007838 - 00007856 (0x1f bytes), align: 0
  Segment part 18.            Intra module refs:   evbInit::?relay
           ENTRY                   ADDRESS         REF BY
           =====                   =======         ======
           evbInit                 00007838 
               calls direct
               ISTACK = 00000000 ( 00000002 )
    -------------------------------------------------------------------------
<BANKED_CODE> 1 (was BANKED_CODE)
  Relative segment, address: CODE 00007857 - 0000785D (0x7 bytes), align: 0
  Segment part 20.            Intra module refs:   evbInit
                                                   evbLedSet
           LOCAL                   ADDRESS         
           =====                   =======         
           ?Subroutine1            00007857 
    -------------------------------------------------------------------------
<BANKED_CODE> 1 (was BANKED_CODE)
  Relative segment, address: CODE 0000785E - 00007883 (0x26 bytes), align: 0
  Segment part 21.            Intra module refs:   evbLedSet::?relay
           ENTRY                   ADDRESS         REF BY
           =====                   =======         ======
           evbLedSet               0000785E 
               ISTACK = 00000000 ( 00000002 )
    -------------------------------------------------------------------------
<BANKED_CODE> 1 (was BANKED_CODE)
  Relative segment, address: CODE 00007884 - 00007930 (0xad bytes), align: 0
  Segment part 25.            Intra module refs:   evbIntCallback::?relay
           ENTRY                   ADDRESS         REF BY
           =====                   =======         ======
           evbIntCallback          00007884 
               calls direct
               XSTACK = 00000000 ( 0000000A )
    -------------------------------------------------------------------------
BANK_RELAYS
  Relative segment, address: CODE 0000029B - 000002A0 (0x6 bytes), align: 0
  Segment part 14.            Intra module refs:   evbIntCallback
           ENTRY                   ADDRESS         REF BY
           =====                   =======         ======
           getJoystickDirection::?relay
                                   0000029B 
    -------------------------------------------------------------------------
BANK_RELAYS
  Relative segment, address: CODE 000002A1 - 000002A6 (0x6 bytes), align: 0
  Segment part 17.
           ENTRY                   ADDRESS         REF BY
           =====                   =======         ======
           evbPoll::?relay         000002A1        phyFSM (phy)
    -------------------------------------------------------------------------
BANK_RELAYS
  Relative segment, address: CODE 000002A7 - 000002AC (0x6 bytes), align: 0
  Segment part 19.
           ENTRY                   ADDRESS         REF BY
           =====                   =======         ======
           evbInit::?relay         000002A7        main (test_demo)
    -------------------------------------------------------------------------
BANK_RELAYS
  Relative segment, address: CODE 000002AD - 000002B2 (0x6 bytes), align: 0
  Segment part 22.
           ENTRY                   ADDRESS         REF BY
           =====                   =======         ======
           evbLedSet::?relay       000002AD        main (test_demo)
    -------------------------------------------------------------------------
BANK_RELAYS
  Relative segment, address: CODE 000002B3 - 000002B8 (0x6 bytes), align: 0
  Segment part 26.
           ENTRY                   ADDRESS         REF BY
           =====                   =======         ======
           evbIntCallback::?relay
                                   000002B3        hal_Timer2_Isr (halStack)

    *************************************************************************

  FILE NAME : F:\6LoWSN\6lowsn_stack\obj\compiletest\iar51_cc2530\coord\Obj\halNeighbor.r51
  PROGRAM MODULE, NAME : halNeighbor

  SEGMENTS IN THE MODULE
  ======================
XDATA_Z
  Relative segment, address: XDATA 00000583 - 000006D6 (0x154 bytes), align: 0
  Segment part 6.
           ENTRY                   ADDRESS         REF BY
           =====                   =======         ======
           mac_addr_tbl            00000583        ?Subroutine11 (neighbor)
                                                   ?Subroutine12 (neighbor)
                                                   ?Subroutine17 (debug)
                                                   ?Subroutine23 (adp)
                                                   ?Subroutine28 (mac)
                                                   adpRxFSM (adp)
                                                   dbgPrintNeighborTable (debug)
                                                   ds6LocalIPFrom16 (ds)
                                                   macFSM (mac)
                                                   macFormatCoordRealign (mac)
                                                   mpFmtDeviceInfo (mp)
                                                   mpFmtTreeNeighborInfo (mp)
                                                   ntAddNeighbor (neighbor)
                                                   ntFindByLADDR (neighbor)
                                                   ntFindNewDst (neighbor)
                                                   ntInitAddressAssignment (neighbor)
                                                   ntNewAddressMapEntry (neighbor)

    *************************************************************************

  FILE NAME : F:\6LoWSN\6lowsn_stack\obj\compiletest\iar51_cc2530\coord\Obj\halStack.r51
  PROGRAM MODULE, NAME : halStack

  SEGMENTS IN THE MODULE
  ======================
SFR_AN
  Relative segment, address: DATA 00000086 - 00000086 (0x1 bytes), align: 0
  Segment part 1. ROOT.       Intra module refs:   halInit
           ENTRY                   ADDRESS         REF BY
           =====                   =======         ======
           U0CSR                   00000086 
    -------------------------------------------------------------------------
SFR_AN
  Relative segment, address: DATA 00000087 - 00000087 (0x1 bytes), align: 0
  Segment part 2. ROOT.
           ENTRY                   ADDRESS         REF BY
           =====                   =======         ======
           PCON                    00000087 
    -------------------------------------------------------------------------
SFR_AN
  Relative segment, address: DATA 00000088 - 00000088 (0x1 bytes), align: 0
  Segment part 3. ROOT.       Intra module refs:   getVoltageValue
                                                   hal_rferr_Isr
           ENTRY                   ADDRESS         REF BY
           =====                   =======         ======
           _A_TCON                 00000088 
    -------------------------------------------------------------------------
SFR_AN
  Relative segment, address: DATA 00000091 - 00000091 (0x1 bytes), align: 0
  Segment part 4. ROOT.       Intra module refs:   halSendPacket
                                                   hal_rf_Isr
           ENTRY                   ADDRESS         REF BY
           =====                   =======         ======
           RFIRQF1                 00000091 
    -------------------------------------------------------------------------
SFR_AN
  Relative segment, address: DATA 00000094 - 00000094 (0x1 bytes), align: 0
  Segment part 5. ROOT.       Intra module refs:   halInitMACTimer
                                                   hal_Timer2_Isr
           ENTRY                   ADDRESS         REF BY
           =====                   =======         ======
           T2CTRL                  00000094 
    -------------------------------------------------------------------------
SFR_AN
  Relative segment, address: DATA 00000095 - 00000095 (0x1 bytes), align: 0
  Segment part 6. ROOT.
           ENTRY                   ADDRESS         REF BY
           =====                   =======         ======
           ST0                     00000095 
    -------------------------------------------------------------------------
SFR_AN
  Relative segment, address: DATA 00000096 - 00000096 (0x1 bytes), align: 0
  Segment part 7. ROOT.
           ENTRY                   ADDRESS         REF BY
           =====                   =======         ======
           ST1                     00000096 
    -------------------------------------------------------------------------
SFR_AN
  Relative segment, address: DATA 00000097 - 00000097 (0x1 bytes), align: 0
  Segment part 8. ROOT.
           ENTRY                   ADDRESS         REF BY
           =====                   =======         ======
           ST2                     00000097 
    -------------------------------------------------------------------------
SFR_AN
  Relative segment, address: DATA 0000009A - 0000009A (0x1 bytes), align: 0
  Segment part 9. ROOT.       Intra module refs:   halInitRadio
           ENTRY                   ADDRESS         REF BY
           =====                   =======         ======
           IEN2                    0000009A 
    -------------------------------------------------------------------------
SFR_AN
  Relative segment, address: DATA 0000009B - 0000009B (0x1 bytes), align: 0
  Segment part 10. ROOT.      Intra module refs:   halInitRadio
                                                   halSendPacket
                                                   halSetRadioIEEEFrequency
                                                   hal_rf_Isr
           ENTRY                   ADDRESS         REF BY
           =====                   =======         ======
           S1CON                   0000009B 
    -------------------------------------------------------------------------
SFR_AN
  Relative segment, address: DATA 0000009D - 0000009D (0x1 bytes), align: 0
  Segment part 11. ROOT.      Intra module refs:   halInit
           ENTRY                   ADDRESS         REF BY
           =====                   =======         ======
           SLEEPSTA                0000009D 
    -------------------------------------------------------------------------
SFR_AN
  Relative segment, address: DATA 0000009E - 0000009E (0x1 bytes), align: 0
  Segment part 12. ROOT.      Intra module refs:   halInit
           ENTRY                   ADDRESS         REF BY
           =====                   =======         ======
           CLKCONSTA               0000009E 
    -------------------------------------------------------------------------
SFR_AN
  Relative segment, address: DATA 000000A1 - 000000A1 (0x1 bytes), align: 0
  Segment part 13. ROOT.      Intra module refs:   hal_Timer2_Isr
           ENTRY                   ADDRESS         REF BY
           =====                   =======         ======
           T2IRQF                  000000A1 
    -------------------------------------------------------------------------
SFR_AN
  Relative segment, address: DATA 000000A2 - 000000A2 (0x1 bytes), align: 0
  Segment part 14. ROOT.      Intra module refs:   halInitMACTimer
           ENTRY                   ADDRESS         REF BY
           =====                   =======         ======
           T2M0                    000000A2 
    -------------------------------------------------------------------------
SFR_AN
  Relative segment, address: DATA 000000A3 - 000000A3 (0x1 bytes), align: 0
  Segment part 15. ROOT.      Intra module refs:   halInitMACTimer
           ENTRY                   ADDRESS         REF BY
           =====                   =======         ======
           T2M1                    000000A3 
    -------------------------------------------------------------------------
SFR_AN
  Relative segment, address: DATA 000000A4 - 000000A4 (0x1 bytes), align: 0
  Segment part 16. ROOT.      Intra module refs:   doIEEE_backoff
                                                   halGetMACTimer
                                                   halGetRandomByte
                                                   halInitMACTimer
                                                   hal_Timer2_Isr
           ENTRY                   ADDRESS         REF BY
           =====                   =======         ======
           T2MOVF0                 000000A4 
    -------------------------------------------------------------------------
SFR_AN
  Relative segment, address: DATA 000000A5 - 000000A5 (0x1 bytes), align: 0
  Segment part 17. ROOT.      Intra module refs:   halGetMACTimer
                                                   halInitMACTimer
                                                   hal_Timer2_Isr
           ENTRY                   ADDRESS         REF BY
           =====                   =======         ======
           T2MOVF1                 000000A5 
    -------------------------------------------------------------------------
SFR_AN
  Relative segment, address: DATA 000000A6 - 000000A6 (0x1 bytes), align: 0
  Segment part 18. ROOT.      Intra module refs:   halGetMACTimer
                                                   halInitMACTimer
                                                   hal_Timer2_Isr
           ENTRY                   ADDRESS         REF BY
           =====                   =======         ======
           T2MOVF2                 000000A6 
    -------------------------------------------------------------------------
SFR_AN
  Relative segment, address: DATA 000000A7 - 000000A7 (0x1 bytes), align: 0
  Segment part 19. ROOT.      Intra module refs:   halInitMACTimer
                                                   hal_Timer2_Isr
           ENTRY                   ADDRESS         REF BY
           =====                   =======         ======
           T2IRQM                  000000A7 
    -------------------------------------------------------------------------
SFR_AN
  Relative segment, address: DATA 000000B4 - 000000B4 (0x1 bytes), align: 0
  Segment part 21. ROOT.      Intra module refs:   halAdcSampleSingle
           ENTRY                   ADDRESS         REF BY
           =====                   =======         ======
           ADCCON1                 000000B4 
    -------------------------------------------------------------------------
SFR_AN
  Relative segment, address: DATA 000000B6 - 000000B6 (0x1 bytes), align: 0
  Segment part 22. ROOT.      Intra module refs:   getVoltageValue
                                                   halAdcSampleSingle
           ENTRY                   ADDRESS         REF BY
           =====                   =======         ======
           ADCCON3                 000000B6 
    -------------------------------------------------------------------------
SFR_AN
  Relative segment, address: DATA 000000B8 - 000000B8 (0x1 bytes), align: 0
  Segment part 23. ROOT.      Intra module refs:   halInitMACTimer
           ENTRY                   ADDRESS         REF BY
           =====                   =======         ======
           _A_IEN1                 000000B8 
    -------------------------------------------------------------------------
SFR_AN
  Relative segment, address: DATA 000000BA - 000000BA (0x1 bytes), align: 0
  Segment part 24. ROOT.      Intra module refs:   getVoltageValue
                                                   halAdcSampleSingle
           ENTRY                   ADDRESS         REF BY
           =====                   =======         ======
           ADCL                    000000BA 
    -------------------------------------------------------------------------
SFR_AN
  Relative segment, address: DATA 000000BB - 000000BB (0x1 bytes), align: 0
  Segment part 25. ROOT.      Intra module refs:   getVoltageValue
                                                   halAdcSampleSingle
           ENTRY                   ADDRESS         REF BY
           =====                   =======         ======
           ADCH                    000000BB 
    -------------------------------------------------------------------------
SFR_AN
  Relative segment, address: DATA 000000BE - 000000BE (0x1 bytes), align: 0
  Segment part 26. ROOT.      Intra module refs:   halInit
                                                   hal_St_Isr
           ENTRY                   ADDRESS         REF BY
           =====                   =======         ======
           SLEEPCMD                000000BE 
    -------------------------------------------------------------------------
SFR_AN
  Relative segment, address: DATA 000000C0 - 000000C0 (0x1 bytes), align: 0
  Segment part 27. ROOT.      Intra module refs:   halInitMACTimer
                                                   hal_St_Isr
                                                   hal_Timer2_Isr
           ENTRY                   ADDRESS         REF BY
           =====                   =======         ======
           _A_IRCON                000000C0 
    -------------------------------------------------------------------------
SFR_AN
  Relative segment, address: DATA 000000C1 - 000000C1 (0x1 bytes), align: 0
  Segment part 28. ROOT.      Intra module refs:   halPutch
                                                   hal_Uart0_RxIsr
           ENTRY                   ADDRESS         REF BY
           =====                   =======         ======
           U0DBUF                  000000C1 
    -------------------------------------------------------------------------
SFR_AN
  Relative segment, address: DATA 000000C2 - 000000C2 (0x1 bytes), align: 0
  Segment part 29. ROOT.      Intra module refs:   halInit
           ENTRY                   ADDRESS         REF BY
           =====                   =======         ======
           U0BAUD                  000000C2 
    -------------------------------------------------------------------------
SFR_AN
  Relative segment, address: DATA 000000C3 - 000000C3 (0x1 bytes), align: 0
  Segment part 30. ROOT.      Intra module refs:   halGetMACTimer
                                                   halInitMACTimer
                                                   hal_Timer2_Isr
           ENTRY                   ADDRESS         REF BY
           =====                   =======         ======
           T2MSEL                  000000C3 
    -------------------------------------------------------------------------
SFR_AN
  Relative segment, address: DATA 000000C4 - 000000C4 (0x1 bytes), align: 0
  Segment part 31. ROOT.      Intra module refs:   halInit
           ENTRY                   ADDRESS         REF BY
           =====                   =======         ======
           U0UCR                   000000C4 
    -------------------------------------------------------------------------
SFR_AN
  Relative segment, address: DATA 000000C5 - 000000C5 (0x1 bytes), align: 0
  Segment part 32. ROOT.      Intra module refs:   halInit
           ENTRY                   ADDRESS         REF BY
           =====                   =======         ======
           U0GCR                   000000C5 
    -------------------------------------------------------------------------
SFR_AN
  Relative segment, address: DATA 000000C6 - 000000C6 (0x1 bytes), align: 0
  Segment part 33. ROOT.      Intra module refs:   halInit
                                                   halWait
           ENTRY                   ADDRESS         REF BY
           =====                   =======         ======
           CLKCONCMD               000000C6 
    -------------------------------------------------------------------------
SFR_AN
  Relative segment, address: DATA 000000D9 - 000000D9 (0x1 bytes), align: 0
  Segment part 34. ROOT.      Intra module refs:   halSendPacket
                                                   hal_rf_Isr
           ENTRY                   ADDRESS         REF BY
           =====                   =======         ======
           RFD                     000000D9 
    -------------------------------------------------------------------------
SFR_AN
  Relative segment, address: DATA 000000E1 - 000000E1 (0x1 bytes), align: 0
  Segment part 35. ROOT.      Intra module refs:   halInitRadio
                                                   halSendPacket
                                                   halSetRadioIEEEFrequency
                                                   hal_rf_Isr
                                                   hal_rferr_Isr
           ENTRY                   ADDRESS         REF BY
           =====                   =======         ======
           RFST                    000000E1 
    -------------------------------------------------------------------------
SFR_AN
  Relative segment, address: DATA 000000E8 - 000000E8 (0x1 bytes), align: 0
  Segment part 36. ROOT.      Intra module refs:   halInitUart
                                                   halPutch
           ENTRY                   ADDRESS         REF BY
           =====                   =======         ======
           _A_IRCON2               000000E8 
    -------------------------------------------------------------------------
SFR_AN
  Relative segment, address: DATA 000000E9 - 000000E9 (0x1 bytes), align: 0
  Segment part 37. ROOT.      Intra module refs:   halInitRadio
                                                   halSetRadioIEEEFrequency
                                                   hal_rf_Isr
           ENTRY                   ADDRESS         REF BY
           =====                   =======         ======
           RFIRQF0                 000000E9 
    -------------------------------------------------------------------------
SFR_AN
  Relative segment, address: DATA 000000F1 - 000000F1 (0x1 bytes), align: 0
  Segment part 38. ROOT.      Intra module refs:   halInit
                                                   halInitUart
           ENTRY                   ADDRESS         REF BY
           =====                   =======         ======
           PERCFG                  000000F1 
    -------------------------------------------------------------------------
SFR_AN
  Relative segment, address: DATA 000000F2 - 000000F2 (0x1 bytes), align: 0
  Segment part 39. ROOT.      Intra module refs:   halAdcSampleSingle
           ENTRY                   ADDRESS         REF BY
           =====                   =======         ======
           ADCCFG                  000000F2 
    -------------------------------------------------------------------------
SFR_AN
  Relative segment, address: DATA 000000F3 - 000000F3 (0x1 bytes), align: 0
  Segment part 40. ROOT.      Intra module refs:   halInit
           ENTRY                   ADDRESS         REF BY
           =====                   =======         ======
           P0SEL                   000000F3 
    -------------------------------------------------------------------------
XDATA_Z
  Relative segment, address: XDATA 000006D7 - 000006D8 (0x2 bytes), align: 0
  Segment part 52.            Intra module refs:   halInit
                                                   halInitRadio
                                                   hal_rf_Isr
           ENTRY                   ADDRESS         REF BY
           =====                   =======         ======
           local_radio_flags       000006D7 
    -------------------------------------------------------------------------
XDATA_Z
  Relative segment, address: XDATA 000006D9 - 0000076E (0x96 bytes), align: 0
  Segment part 54.            Intra module refs:   hal_Uart0_RxIsr
           ENTRY                   ADDRESS         REF BY
           =====                   =======         ======
           serio_rxBuff            000006D9 
    -------------------------------------------------------------------------
XDATA_Z
  Relative segment, address: XDATA 0000076F - 0000076F (0x1 bytes), align: 0
  Segment part 55.            Intra module refs:   halInitUart
                                                   hal_Uart0_RxIsr
           ENTRY                   ADDRESS         REF BY
           =====                   =======         ======
           serio_rxHead            0000076F 
    -------------------------------------------------------------------------
XDATA_Z
  Relative segment, address: XDATA 00000770 - 00000770 (0x1 bytes), align: 0
  Segment part 56.            Intra module refs:   halInitUart
           ENTRY                   ADDRESS         REF BY
           =====                   =======         ======
           serio_rxTail            00000770 
    -------------------------------------------------------------------------
XDATA_Z
  Relative segment, address: XDATA 00000771 - 00000771 (0x1 bytes), align: 0
  Segment part 57.            Intra module refs:   hal_Uart0_RxIsr
           ENTRY                   ADDRESS         REF BY
           =====                   =======         ======
           ReceiveFlag             00000771 
    -------------------------------------------------------------------------
<BANKED_CODE> 1 (was BANKED_CODE)
  Relative segment, address: CODE 00005D00 - 00005D61 (0x62 bytes), align: 0
  Segment part 82.            Intra module refs:   halInit::?relay
           ENTRY                   ADDRESS         REF BY
           =====                   =======         ======
           halInit                 00005D00 
               calls direct
               ISTACK = 00000000 ( 00000002 )
    -------------------------------------------------------------------------
<BANKED_CODE> 1 (was BANKED_CODE)
  Relative segment, address: CODE 00005D62 - 00005D77 (0x16 bytes), align: 0
  Segment part 84.            Intra module refs:   halInitUart::?relay
           ENTRY                   ADDRESS         REF BY
           =====                   =======         ======
           halInitUart             00005D62 
               ISTACK = 00000000 ( 00000002 )
    -------------------------------------------------------------------------
<BANKED_CODE> 1 (was BANKED_CODE)
  Relative segment, address: CODE 00005D78 - 00005D7B (0x4 bytes), align: 0
  Segment part 86.            Intra module refs:   halPutch::?relay
           ENTRY                   ADDRESS         REF BY
           =====                   =======         ======
           halPutch                00005D78 
               XSTACK = 0000000A ( 00000000 )
    -------------------------------------------------------------------------
<BANKED_CODE> 1 (was BANKED_CODE)
  Relative segment, address: CODE 00005D7C - 00005D82 (0x7 bytes), align: 0
  Segment part 88.            Intra module refs:   halPutch
           LOCAL                   ADDRESS         
           =====                   =======         
           ?Subroutine10           00005D7C 
    -------------------------------------------------------------------------
NEAR_CODE
  Relative segment, address: CODE 00001DAA - 00001DCE (0x25 bytes), align: 0
  Segment part 150.
           ENTRY                   ADDRESS         REF BY
           =====                   =======         ======
           halGetProcessorIEEEAddress
                                   00001DAA        conPrintConfig (console)
                                                   ds6GenInterfaceID64 (ds)
                                                   mpFmtDeviceInfo (mp)
                                                   mpFmtTreeNeighborInfo (mp)
                                                   ntAddOurselvesToAddressTable (neighbor)
               ISTACK = 00000000 ( 00000003 )
    -------------------------------------------------------------------------
NEAR_CODE
  Relative segment, address: CODE 00001DCF - 00001DD6 (0x8 bytes), align: 0
  Segment part 151.           Intra module refs:   halGetProcessorIEEEAddress
                                                   halGetProcessorIEEEAddress_MAC
           LOCAL                   ADDRESS         
           =====                   =======         
           ?Subroutine13           00001DCF 
    -------------------------------------------------------------------------
NEAR_CODE
  Relative segment, address: CODE 00001DD7 - 00001DFD (0x27 bytes), align: 0
  Segment part 152.           Intra module refs:   halSetRadioIEEEAddress
           ENTRY                   ADDRESS         REF BY
           =====                   =======         ======
           halGetProcessorIEEEAddress_MAC
                                   00001DD7        macTxData (mac)
               XSTACK = 00000008 ( 00000000 )
               ISTACK = 00000000 ( 00000003 )
    -------------------------------------------------------------------------
NEAR_CODE
  Relative segment, address: CODE 00001DFE - 00001E06 (0x9 bytes), align: 0
  Segment part 153.           Intra module refs:   halGetProcessorIEEEAddress
                                                   halGetProcessorIEEEAddress_MAC
           LOCAL                   ADDRESS         
           =====                   =======         
           ?Subroutine7            00001DFE 
    -------------------------------------------------------------------------
NEAR_CODE
  Relative segment, address: CODE 00001E07 - 00001E11 (0xb bytes), align: 0
  Segment part 154.           Intra module refs:   halGetProcessorIEEEAddress
                                                   halGetProcessorIEEEAddress_MAC
           LOCAL                   ADDRESS         
           =====                   =======         
           ?Subroutine5            00001E07 
    -------------------------------------------------------------------------
NEAR_CODE
  Relative segment, address: CODE 00001E12 - 00001E1E (0xd bytes), align: 0
  Segment part 155.           Intra module refs:   halGetProcessorIEEEAddress
                                                   halGetProcessorIEEEAddress_MAC
           LOCAL                   ADDRESS         
           =====                   =======         
           ?Subroutine3            00001E12 
    -------------------------------------------------------------------------
NEAR_CODE
  Relative segment, address: CODE 00001E1F - 00001E37 (0x19 bytes), align: 0
  Segment part 156.           Intra module refs:   ?Subroutine13
           LOCAL                   ADDRESS         
           =====                   =======         
           ?Subroutine2            00001E1F 
    -------------------------------------------------------------------------
<BANKED_CODE> 1 (was BANKED_CODE)
  Relative segment, address: CODE 00005D83 - 00005D83 (0x1 bytes), align: 0
  Segment part 95.            Intra module refs:   halSetRadioPANID
                                                   halSetRadioShortAddr
           LOCAL                   ADDRESS         
           =====                   =======         
           ?Subroutine9            00005D83 
    -------------------------------------------------------------------------
<BANKED_CODE> 1 (was BANKED_CODE)
  Relative segment, address: CODE 00005D84 - 00005D8A (0x7 bytes), align: 0
  Segment part 96.            Intra module refs:   ?Subroutine9
                                                   halInit
                                                   halInitRadio
                                                   halInitUart
                                                   halSetChannel
                                                   halSetRadioIEEEAddress
                                                   halSetRadioIEEEFrequency
    -------------------------------------------------------------------------
<BANKED_CODE> 1 (was BANKED_CODE)
  Relative segment, address: CODE 00005D8B - 00005DB2 (0x28 bytes), align: 0
  Segment part 97.            Intra module refs:   halUtilMemCopy::?relay
           ENTRY                   ADDRESS         REF BY
           =====                   =======         ======
           halUtilMemCopy          00005D8B 
               XSTACK = 00000000 ( 00000009 )
               ISTACK = 00000000 ( 00000001 )
    -------------------------------------------------------------------------
<BANKED_CODE> 1 (was BANKED_CODE)
  Relative segment, address: CODE 00005DB3 - 00005DE8 (0x36 bytes), align: 0
  Segment part 99.            Intra module refs:   halInitMACTimer::?relay
           ENTRY                   ADDRESS         REF BY
           =====                   =======         ======
           halInitMACTimer         00005DB3 
    -------------------------------------------------------------------------
<BANKED_CODE> 1 (was BANKED_CODE)
  Relative segment, address: CODE 00005DE9 - 00005E3F (0x57 bytes), align: 0
  Segment part 101.           Intra module refs:   halGetMACTimer::?relay
           ENTRY                   ADDRESS         REF BY
           =====                   =======         ======
           halGetMACTimer          00005DE9 
               XSTACK = 00000014 ( 00000010 )
    -------------------------------------------------------------------------
<BANKED_CODE> 1 (was BANKED_CODE)
  Relative segment, address: CODE 00005E40 - 00005E42 (0x3 bytes), align: 0
  Segment part 105.           Intra module refs:   halAdcSampleSingle
           LOCAL                   ADDRESS         
           =====                   =======         
           ?Subroutine12           00005E40 
    -------------------------------------------------------------------------
<BANKED_CODE> 1 (was BANKED_CODE)
  Relative segment, address: CODE 00005E43 - 00005E47 (0x5 bytes), align: 0
  Segment part 106.           Intra module refs:   ?Subroutine12
    -------------------------------------------------------------------------
<BANKED_CODE> 1 (was BANKED_CODE)
  Relative segment, address: CODE 00005E48 - 00005E4C (0x5 bytes), align: 0
  Segment part 111.           Intra module refs:   halGetRandomByte::?relay
           ENTRY                   ADDRESS         REF BY
           =====                   =======         ======
           halGetRandomByte        00005E48 
    -------------------------------------------------------------------------
<BANKED_CODE> 1 (was BANKED_CODE)
  Relative segment, address: CODE 00005E4D - 00005E9F (0x53 bytes), align: 0
  Segment part 113.           Intra module refs:   halSetRadioIEEEFrequency::?relay
           ENTRY                   ADDRESS         REF BY
           =====                   =======         ======
           halSetRadioIEEEFrequency
                                   00005E4D 
               ISTACK = 00000000 ( 00000002 )
    -------------------------------------------------------------------------
<BANKED_CODE> 1 (was BANKED_CODE)
  Relative segment, address: CODE 00005EA0 - 00005EAD (0xe bytes), align: 0
  Segment part 115.           Intra module refs:   halSetChannel::?relay
           ENTRY                   ADDRESS         REF BY
           =====                   =======         ======
           halSetChannel           00005EA0 
               calls direct
               ISTACK = 00000000 ( 00000002 )
    -------------------------------------------------------------------------
<BANKED_CODE> 1 (was BANKED_CODE)
  Relative segment, address: CODE 00005EAE - 00005F16 (0x69 bytes), align: 0
  Segment part 117.           Intra module refs:   halSetRadioIEEEAddress::?relay
           ENTRY                   ADDRESS         REF BY
           =====                   =======         ======
           halSetRadioIEEEAddress
                                   00005EAE 
               calls direct
               XSTACK = 00000000 ( 00000008 )
               ISTACK = 00000000 ( 00000002 )
    -------------------------------------------------------------------------
<BANKED_CODE> 1 (was BANKED_CODE)
  Relative segment, address: CODE 00005F17 - 00005F26 (0x10 bytes), align: 0
  Segment part 119.           Intra module refs:   halSetRadioPANID::?relay
           ENTRY                   ADDRESS         REF BY
           =====                   =======         ======
           halSetRadioPANID        00005F17 
               ISTACK = 00000000 ( 00000002 )
    -------------------------------------------------------------------------
<BANKED_CODE> 1 (was BANKED_CODE)
  Relative segment, address: CODE 00005F27 - 00005F36 (0x10 bytes), align: 0
  Segment part 121.           Intra module refs:   halSetRadioShortAddr::?relay
           ENTRY                   ADDRESS         REF BY
           =====                   =======         ======
           halSetRadioShortAddr    00005F27 
               ISTACK = 00000000 ( 00000002 )
    -------------------------------------------------------------------------
<BANKED_CODE> 1 (was BANKED_CODE)
  Relative segment, address: CODE 00005F37 - 00006022 (0xec bytes), align: 0
  Segment part 123.           Intra module refs:   halInitRadio::?relay
           ENTRY                   ADDRESS         REF BY
           =====                   =======         ======
           halInitRadio            00005F37 
               calls direct
               XSTACK = 00000002 ( 00000000 )
               ISTACK = 00000000 ( 00000002 )
    -------------------------------------------------------------------------
<BANKED_CODE> 1 (was BANKED_CODE)
  Relative segment, address: CODE 00006023 - 000060A2 (0x80 bytes), align: 0
  Segment part 125.           Intra module refs:   doIEEE_backoff::?relay
           ENTRY                   ADDRESS         REF BY
           =====                   =======         ======
           doIEEE_backoff          00006023 
               calls direct
               XSTACK = 0000000A ( 00000014 )
    -------------------------------------------------------------------------
<BANKED_CODE> 1 (was BANKED_CODE)
  Relative segment, address: CODE 000060A3 - 000060B6 (0x14 bytes), align: 0
  Segment part 127.           Intra module refs:   doIEEE_backoff
           LOCAL                   ADDRESS         
           =====                   =======         
           ?Subroutine1            000060A3 
    -------------------------------------------------------------------------
<BANKED_CODE> 1 (was BANKED_CODE)
  Relative segment, address: CODE 000060B7 - 00006191 (0xdb bytes), align: 0
  Segment part 128.           Intra module refs:   halSendPacket::?relay
           ENTRY                   ADDRESS         REF BY
           =====                   =======         ======
           halSendPacket           000060B7 
               calls direct
               XSTACK = 00000000 ( 0000000A )
    -------------------------------------------------------------------------
<BANKED_CODE> 1 (was BANKED_CODE)
  Relative segment, address: CODE 00006192 - 0000619A (0x9 bytes), align: 0
  Segment part 130.           Intra module refs:   halSendPacket
           LOCAL                   ADDRESS         
           =====                   =======         
           ?Subroutine0            00006192 
    -------------------------------------------------------------------------
CODE_C
  Relative segment, address: CODE 00001238 - 00001245 (0xe bytes), align: 0
  Segment part 58.            Intra module refs:   halSendPacket
           LOCAL                   ADDRESS         
           =====                   =======         
           halSendPacket{1}::xxxxromstr
                                   00001238 
    -------------------------------------------------------------------------
CODE_C
  Relative segment, address: CODE 00001246 - 00001247 (0x2 bytes), align: 0
  Segment part 59.            Intra module refs:   halSendPacket
           LOCAL                   ADDRESS         
           =====                   =======         
           halSendPacket{2}::xxxxromstr
                                   00001246 
    -------------------------------------------------------------------------
NEAR_CODE
  Relative segment, address: CODE 00001E38 - 00001E81 (0x4a bytes), align: 0
  Segment part 157.           Intra module refs:   hal_Uart0_RxIsr::??INTVEC 19
           ENTRY                   ADDRESS         REF BY
           =====                   =======         ======
           hal_Uart0_RxIsr         00001E38 
               interrupt function
               ISTACK = 00000000 ( 00000008 )
    -------------------------------------------------------------------------
NEAR_CODE
  Relative segment, address: CODE 00001E82 - 00001F0E (0x8d bytes), align: 0
  Segment part 158.           Intra module refs:   hal_Timer2_Isr::??INTVEC 83
           ENTRY                   ADDRESS         REF BY
           =====                   =======         ======
           hal_Timer2_Isr          00001E82 
               interrupt function
               calls direct
               XSTACK = 00000000 ( 00000016 )
    -------------------------------------------------------------------------
NEAR_CODE
  Relative segment, address: CODE 00001F0F - 00001F52 (0x44 bytes), align: 0
  Segment part 159.           Intra module refs:   hal_rferr_Isr::??INTVEC 3
           ENTRY                   ADDRESS         REF BY
           =====                   =======         ======
           hal_rferr_Isr           00001F0F 
               interrupt function
               calls direct
               ISTACK = 00000000 ( 0000000F )
    -------------------------------------------------------------------------
NEAR_CODE
  Relative segment, address: CODE 00001F53 - 00002114 (0x1c2 bytes), align: 0
  Segment part 160.           Intra module refs:   hal_rf_Isr::??INTVEC 131
           ENTRY                   ADDRESS         REF BY
           =====                   =======         ======
           hal_rf_Isr              00001F53 
               interrupt function
               calls direct
               XSTACK = 00000000 ( 00000005 )
               ISTACK = 00000000 ( 00000015 )
    -------------------------------------------------------------------------
NEAR_CODE
  Relative segment, address: CODE 00002115 - 0000211C (0x8 bytes), align: 0
  Segment part 161.           Intra module refs:   hal_rf_Isr
                                                   hal_rferr_Isr
           LOCAL                   ADDRESS         
           =====                   =======         
           ?Subroutine8            00002115 
    -------------------------------------------------------------------------
NEAR_CODE
  Relative segment, address: CODE 0000211D - 0000212C (0x10 bytes), align: 0
  Segment part 162.           Intra module refs:   hal_rf_Isr
           LOCAL                   ADDRESS         
           =====                   =======         
           ?Subroutine6            0000211D 
    -------------------------------------------------------------------------
NEAR_CODE
  Relative segment, address: CODE 0000212D - 00002137 (0xb bytes), align: 0
  Segment part 163.           Intra module refs:   hal_rf_Isr
           LOCAL                   ADDRESS         
           =====                   =======         
           ?Subroutine4            0000212D 
    -------------------------------------------------------------------------
<BANKED_CODE> 1 (was BANKED_CODE)
  Relative segment, address: CODE 0000619B - 000061F9 (0x5f bytes), align: 0
  Segment part 131.           Intra module refs:   halWait::?relay
           ENTRY                   ADDRESS         REF BY
           =====                   =======         ======
           halWait                 0000619B 
               XSTACK = 00000010 ( 00000010 )
    -------------------------------------------------------------------------
<BANKED_CODE> 1 (was BANKED_CODE)
  Relative segment, address: CODE 000061FA - 000061FE (0x5 bytes), align: 0
  Segment part 133.           Intra module refs:   doIEEE_backoff
                                                   getVoltageValue
                                                   halGetMACTimer
                                                   halWait
           LOCAL                   ADDRESS         
           =====                   =======         
           ?Subroutine11           000061FA 
    -------------------------------------------------------------------------
<BANKED_CODE> 1 (was BANKED_CODE)
  Relative segment, address: CODE 000061FF - 00006248 (0x4a bytes), align: 0
  Segment part 138.           Intra module refs:   getVoltageValue::?relay
           ENTRY                   ADDRESS         REF BY
           =====                   =======         ======
           getVoltageValue         000061FF 
               XSTACK = 00000000 ( 00000010 )
    -------------------------------------------------------------------------
NEAR_CODE
  Relative segment, address: CODE 00002138 - 00002143 (0xc bytes), align: 0
  Segment part 165.           Intra module refs:   hal_St_Isr::??INTVEC 43
           ENTRY                   ADDRESS         REF BY
           =====                   =======         ======
           hal_St_Isr              00002138 
               interrupt function
               ISTACK = 00000000 ( 00000002 )
    -------------------------------------------------------------------------
<BANKED_CODE> 1 (was BANKED_CODE)
  Relative segment, address: CODE 00006249 - 000062A8 (0x60 bytes), align: 0
  Segment part 140.           Intra module refs:   halAdcSampleSingle::?relay
           ENTRY                   ADDRESS         REF BY
           =====                   =======         ======
           halAdcSampleSingle      00006249 
               XSTACK = 00000000 ( 0000000D )
               ISTACK = 00000000 ( 00000001 )
    -------------------------------------------------------------------------
INTVEC
  Common segment, address: CODE 00000000 - 00000005 (0x6 bytes), align: 0
  Segment part 42. ROOT.
           ENTRY                   ADDRESS         REF BY
           =====                   =======         ======
           hal_rferr_Isr::??INTVEC 3
                                   00000003 
    -------------------------------------------------------------------------
INTVEC
  Common segment, address: CODE 00000000 - 00000015 (0x16 bytes), align: 0
  Segment part 43. ROOT.
           ENTRY                   ADDRESS         REF BY
           =====                   =======         ======
           hal_Uart0_RxIsr::??INTVEC 19
                                   00000013 
    -------------------------------------------------------------------------
INTVEC
  Common segment, address: CODE 00000000 - 0000002D (0x2e bytes), align: 0
  Segment part 44. ROOT.
           ENTRY                   ADDRESS         REF BY
           =====                   =======         ======
           hal_St_Isr::??INTVEC 43
                                   0000002B 
    -------------------------------------------------------------------------
INTVEC
  Common segment, address: CODE 00000000 - 00000055 (0x56 bytes), align: 0
  Segment part 45. ROOT.
           ENTRY                   ADDRESS         REF BY
           =====                   =======         ======
           hal_Timer2_Isr::??INTVEC 83
                                   00000053 
    -------------------------------------------------------------------------
INTVEC
  Common segment, address: CODE 00000000 - 00000085 (0x86 bytes), align: 0
  Segment part 46. ROOT.
           ENTRY                   ADDRESS         REF BY
           =====                   =======         ======
           hal_rf_Isr::??INTVEC 131
                                   00000083 
    -------------------------------------------------------------------------
XDATA_I
  Relative segment, address: XDATA 000011A8 - 000011AB (0x4 bytes), align: 0
  Segment part 60.            Intra module refs:   doIEEE_backoff
           ENTRY                   ADDRESS         REF BY
           =====                   =======         ======
           __Constant_1            000011A8 
    -------------------------------------------------------------------------
XDATA_ID
  Relative segment, address: CODE 0000015F - 00000162 (0x4 bytes), align: 0
  Segment part 61.            Intra module refs:   __Constant_1
    -------------------------------------------------------------------------
XDATA_I
  Relative segment, address: XDATA 000011AC - 000011AF (0x4 bytes), align: 0
  Segment part 64.            Intra module refs:   doIEEE_backoff
           ENTRY                   ADDRESS         REF BY
           =====                   =======         ======
           __Constant_14           000011AC 
    -------------------------------------------------------------------------
XDATA_ID
  Relative segment, address: CODE 00000163 - 00000166 (0x4 bytes), align: 0
  Segment part 65.            Intra module refs:   __Constant_14
    -------------------------------------------------------------------------
XDATA_I
  Relative segment, address: XDATA 000011B0 - 000011B3 (0x4 bytes), align: 0
  Segment part 68.            Intra module refs:   hal_Timer2_Isr
           ENTRY                   ADDRESS         REF BY
           =====                   =======         ======
           __Constant_f424         000011B0 
    -------------------------------------------------------------------------
XDATA_ID
  Relative segment, address: CODE 00000167 - 0000016A (0x4 bytes), align: 0
  Segment part 69.            Intra module refs:   __Constant_f424
    -------------------------------------------------------------------------
XDATA_I
  Relative segment, address: XDATA 000011B4 - 000011B7 (0x4 bytes), align: 0
  Segment part 70.            Intra module refs:   halWait
                                                   main (test_demo)
           ENTRY                   ADDRESS         REF BY
           =====                   =======         ======
           __Constant_ffffffff     000011B4 
    -------------------------------------------------------------------------
XDATA_ID
  Relative segment, address: CODE 0000016B - 0000016E (0x4 bytes), align: 0
  Segment part 71.            Intra module refs:   __Constant_ffffffff
    -------------------------------------------------------------------------
XDATA_I
  Relative segment, address: XDATA 000011B8 - 000011BB (0x4 bytes), align: 0
  Segment part 80.            Intra module refs:   getVoltageValue
           ENTRY                   ADDRESS         REF BY
           =====                   =======         ======
           __Constant_42160000     000011B8 
    -------------------------------------------------------------------------
XDATA_ID
  Relative segment, address: CODE 0000016F - 00000172 (0x4 bytes), align: 0
  Segment part 81.            Intra module refs:   __Constant_42160000
    -------------------------------------------------------------------------
BANK_RELAYS
  Relative segment, address: CODE 000002B9 - 000002BE (0x6 bytes), align: 0
  Segment part 83.
           ENTRY                   ADDRESS         REF BY
           =====                   =======         ======
           halInit::?relay         000002B9        evbInit (evboard)
                                                   main (test_demo)
    -------------------------------------------------------------------------
BANK_RELAYS
  Relative segment, address: CODE 000002BF - 000002C4 (0x6 bytes), align: 0
  Segment part 85.            Intra module refs:   halInit
           ENTRY                   ADDRESS         REF BY
           =====                   =======         ======
           halInitUart::?relay     000002BF 
    -------------------------------------------------------------------------
BANK_RELAYS
  Relative segment, address: CODE 000002C5 - 000002CA (0x6 bytes), align: 0
  Segment part 87.            Intra module refs:   halSendPacket
                                                   hal_rf_Isr
                                                   hal_rferr_Isr
           ENTRY                   ADDRESS         REF BY
           =====                   =======         ======
           halPutch::?relay        000002C5        ?Subroutine1 (console)
                                                   MemAlloc (memalloc)
                                                   conPrintROMString_func (console)
                                                   conPrintUINT8_noleader (console)
                                                   macRxCallback (mac)
    -------------------------------------------------------------------------
BANK_RELAYS
  Relative segment, address: CODE 000002CB - 000002D0 (0x6 bytes), align: 0
  Segment part 98.
           ENTRY                   ADDRESS         REF BY
           =====                   =======         ======
           halUtilMemCopy::?relay
                                   000002CB        adpTxData (adp)
                                                   ntNewAddressMapEntry (neighbor)
    -------------------------------------------------------------------------
BANK_RELAYS
  Relative segment, address: CODE 000002D1 - 000002D6 (0x6 bytes), align: 0
  Segment part 100.           Intra module refs:   halInit
           ENTRY                   ADDRESS         REF BY
           =====                   =======         ======
           halInitMACTimer::?relay
                                   000002D1 
    -------------------------------------------------------------------------
BANK_RELAYS
  Relative segment, address: CODE 000002D7 - 000002DC (0x6 bytes), align: 0
  Segment part 102.           Intra module refs:   ?Subroutine1
           ENTRY                   ADDRESS         REF BY
           =====                   =======         ======
           halGetMACTimer::?relay
                                   000002D7        ?Subroutine0 (phy)
                                                   ?Subroutine19 (nwk)
                                                   ?Subroutine46 (aps)
                                                   ?Subroutine52 (mac)
    -------------------------------------------------------------------------
BANK_RELAYS
  Relative segment, address: CODE 000002DD - 000002E2 (0x6 bytes), align: 0
  Segment part 112.
           ENTRY                   ADDRESS         REF BY
           =====                   =======         ======
           halGetRandomByte::?relay
                                   000002DD        icmpFmtEchoRequest (icmpv6)
                                                   macTxData (mac)
    -------------------------------------------------------------------------
BANK_RELAYS
  Relative segment, address: CODE 000002E3 - 000002E8 (0x6 bytes), align: 0
  Segment part 114.           Intra module refs:   halInitRadio
                                                   halSetChannel
           ENTRY                   ADDRESS         REF BY
           =====                   =======         ======
           halSetRadioIEEEFrequency::?relay
                                   000002E3 
    -------------------------------------------------------------------------
BANK_RELAYS
  Relative segment, address: CODE 000002E9 - 000002EE (0x6 bytes), align: 0
  Segment part 116.
           ENTRY                   ADDRESS         REF BY
           =====                   =======         ======
           halSetChannel::?relay   000002E9        ?Subroutine18 (mac)
                                                   macSetChannel (mac)
    -------------------------------------------------------------------------
BANK_RELAYS
  Relative segment, address: CODE 000002EF - 000002F4 (0x6 bytes), align: 0
  Segment part 118.           Intra module refs:   halInitRadio
           ENTRY                   ADDRESS         REF BY
           =====                   =======         ======
           halSetRadioIEEEAddress::?relay
                                   000002EF 
    -------------------------------------------------------------------------
BANK_RELAYS
  Relative segment, address: CODE 000002F5 - 000002FA (0x6 bytes), align: 0
  Segment part 120.
           ENTRY                   ADDRESS         REF BY
           =====                   =======         ======
           halSetRadioPANID::?relay
                                   000002F5        macSetPANID (mac)
    -------------------------------------------------------------------------
BANK_RELAYS
  Relative segment, address: CODE 000002FB - 00000300 (0x6 bytes), align: 0
  Segment part 122.
           ENTRY                   ADDRESS         REF BY
           =====                   =======         ======
           halSetRadioShortAddr::?relay
                                   000002FB        ?Subroutine40 (mac)
                                                   macSetShortAddr (mac)
    -------------------------------------------------------------------------
BANK_RELAYS
  Relative segment, address: CODE 00000301 - 00000306 (0x6 bytes), align: 0
  Segment part 124.
           ENTRY                   ADDRESS         REF BY
           =====                   =======         ======
           halInitRadio::?relay    00000301        phyFSM (phy)
    -------------------------------------------------------------------------
BANK_RELAYS
  Relative segment, address: CODE 00000307 - 0000030C (0x6 bytes), align: 0
  Segment part 126.           Intra module refs:   halSendPacket
           ENTRY                   ADDRESS         REF BY
           =====                   =======         ======
           doIEEE_backoff::?relay
                                   00000307 
    -------------------------------------------------------------------------
BANK_RELAYS
  Relative segment, address: CODE 0000030D - 00000312 (0x6 bytes), align: 0
  Segment part 129.
           ENTRY                   ADDRESS         REF BY
           =====                   =======         ======
           halSendPacket::?relay   0000030D        phyFSM (phy)
    -------------------------------------------------------------------------
BANK_RELAYS
  Relative segment, address: CODE 00000313 - 00000318 (0x6 bytes), align: 0
  Segment part 132.           Intra module refs:   halSendPacket
           ENTRY                   ADDRESS         REF BY
           =====                   =======         ======
           halWait::?relay         00000313 
    -------------------------------------------------------------------------
BANK_RELAYS
  Relative segment, address: CODE 00000319 - 0000031E (0x6 bytes), align: 0
  Segment part 139.
           ENTRY                   ADDRESS         REF BY
           =====                   =======         ======
           getVoltageValue::?relay
                                   00000319        mpFmtCurrentVoltageResponsePayload (mp)
    -------------------------------------------------------------------------
BANK_RELAYS
  Relative segment, address: CODE 0000031F - 00000324 (0x6 bytes), align: 0
  Segment part 141.
           ENTRY                   ADDRESS         REF BY
           =====                   =======         ======
           halAdcSampleSingle::?relay
                                   0000031F        getJoystickDirection (evboard)

    *************************************************************************

  FILE NAME : F:\6LoWSN\6lowsn_stack\obj\compiletest\iar51_cc2530\coord\Obj\hal_dma.r51
  PROGRAM MODULE, NAME : hal_dma

  SEGMENTS IN THE MODULE
  ======================
SFR_AN
  Relative segment, address: DATA 000000D2 - 000000D2 (0x1 bytes), align: 0
  Segment part 1. ROOT.
           ENTRY                   ADDRESS         REF BY
           =====                   =======         ======
           DMA1CFGL                000000D2 
    -------------------------------------------------------------------------
SFR_AN
  Relative segment, address: DATA 000000D3 - 000000D3 (0x1 bytes), align: 0
  Segment part 2. ROOT.
           ENTRY                   ADDRESS         REF BY
           =====                   =======         ======
           DMA1CFGH                000000D3 
    -------------------------------------------------------------------------
SFR_AN
  Relative segment, address: DATA 000000D4 - 000000D4 (0x1 bytes), align: 0
  Segment part 3. ROOT.
           ENTRY                   ADDRESS         REF BY
           =====                   =======         ======
           DMA0CFGL                000000D4 
    -------------------------------------------------------------------------
SFR_AN
  Relative segment, address: DATA 000000D5 - 000000D5 (0x1 bytes), align: 0
  Segment part 4. ROOT.
           ENTRY                   ADDRESS         REF BY
           =====                   =======         ======
           DMA0CFGH                000000D5 

    *************************************************************************

  FILE NAME : F:\6LoWSN\6lowsn_stack\obj\compiletest\iar51_cc2530\coord\Obj\icmpv6.r51
  PROGRAM MODULE, NAME : icmpv6

  SEGMENTS IN THE MODULE
  ======================
<BANKED_CODE> 1 (was BANKED_CODE)
  Relative segment, address: CODE 00006E22 - 00006E85 (0x64 bytes), align: 0
  Segment part 11.            Intra module refs:   icmpCommonFmt::?relay
           ENTRY                   ADDRESS         REF BY
           =====                   =======         ======
           icmpCommonFmt           00006E22 
               calls direct
               XSTACK = 00000000 ( 0000000E )
    -------------------------------------------------------------------------
<BANKED_CODE> 1 (was BANKED_CODE)
  Relative segment, address: CODE 00006E86 - 00006F3F (0xba bytes), align: 0
  Segment part 13.            Intra module refs:   icmpFmtEchoRequest::?relay
           ENTRY                   ADDRESS         REF BY
           =====                   =======         ======
           icmpFmtEchoRequest      00006E86 
               calls direct
               XSTACK = 00000000 ( 00000009 )
               ISTACK = 00000000 ( 00000001 )
    -------------------------------------------------------------------------
<BANKED_CODE> 1 (was BANKED_CODE)
  Relative segment, address: CODE 00006F40 - 00006F4E (0xf bytes), align: 0
  Segment part 15.            Intra module refs:   icmpFmtEchoRequest
           LOCAL                   ADDRESS         
           =====                   =======         
           ?Subroutine1            00006F40 
    -------------------------------------------------------------------------
<BANKED_CODE> 1 (was BANKED_CODE)
  Relative segment, address: CODE 00006F4F - 00006F51 (0x3 bytes), align: 0
  Segment part 16.            Intra module refs:   ?Subroutine1
                                                   icmpFmtEchoRequest
           LOCAL                   ADDRESS         
           =====                   =======         
           ?Subroutine7            00006F4F 
    -------------------------------------------------------------------------
<BANKED_CODE> 1 (was BANKED_CODE)
  Relative segment, address: CODE 00006F52 - 00006F54 (0x3 bytes), align: 0
  Segment part 17.            Intra module refs:   ?Subroutine7
                                                   icmpFmtEchoRequest
    -------------------------------------------------------------------------
<BANKED_CODE> 1 (was BANKED_CODE)
  Relative segment, address: CODE 00006F55 - 00006F5A (0x6 bytes), align: 0
  Segment part 18.            Intra module refs:   ?Subroutine7
                                                   ?Subroutine8
                                                   Segment part 17
                                                   icmpFmtEchoReply
                                                   icmpFmtEchoRequest
           LOCAL                   ADDRESS         
           =====                   =======         
           ?Subroutine10           00006F55 
    -------------------------------------------------------------------------
<BANKED_CODE> 1 (was BANKED_CODE)
  Relative segment, address: CODE 00006F5B - 00006FCE (0x74 bytes), align: 0
  Segment part 19.            Intra module refs:   icmpParseEchoReply::?relay
           ENTRY                   ADDRESS         REF BY
           =====                   =======         ======
           icmpParseEchoReply      00006F5B 
               calls direct
               ISTACK = 00000000 ( 00000002 )
    -------------------------------------------------------------------------
CODE_C
  Relative segment, address: CODE 00001248 - 0000126E (0x27 bytes), align: 0
  Segment part 6.             Intra module refs:   icmpParseEchoReply
           LOCAL                   ADDRESS         
           =====                   =======         
           icmpParseEchoReply{1}{2}::xxxxromstr
                                   00001248 
    -------------------------------------------------------------------------
CODE_C
  Relative segment, address: CODE 0000126F - 0000129A (0x2c bytes), align: 0
  Segment part 7.             Intra module refs:   icmpParseEchoReply
           LOCAL                   ADDRESS         
           =====                   =======         
           icmpParseEchoReply{3}{4}::xxxxromstr
                                   0000126F 
    -------------------------------------------------------------------------
CODE_C
  Relative segment, address: CODE 0000129B - 000012BA (0x20 bytes), align: 0
  Segment part 8.             Intra module refs:   icmpParseEchoReply
           LOCAL                   ADDRESS         
           =====                   =======         
           icmpParseEchoReply{5}::xxxxromstr
                                   0000129B 
    -------------------------------------------------------------------------
<BANKED_CODE> 1 (was BANKED_CODE)
  Relative segment, address: CODE 00006FCF - 000070BC (0xee bytes), align: 0
  Segment part 21.            Intra module refs:   icmpFmtEchoReply::?relay
           ENTRY                   ADDRESS         REF BY
           =====                   =======         ======
           icmpFmtEchoReply        00006FCF 
               XSTACK = 00000000 ( 00000010 )
               ISTACK = 00000000 ( 00000001 )
    -------------------------------------------------------------------------
<BANKED_CODE> 1 (was BANKED_CODE)
  Relative segment, address: CODE 000070BD - 000070C4 (0x8 bytes), align: 0
  Segment part 23.            Intra module refs:   ?Subroutine1
                                                   ?Subroutine2
                                                   icmpFmtEchoReply
           LOCAL                   ADDRESS         
           =====                   =======         
           ?Subroutine6            000070BD 
    -------------------------------------------------------------------------
<BANKED_CODE> 1 (was BANKED_CODE)
  Relative segment, address: CODE 000070C5 - 000070CE (0xa bytes), align: 0
  Segment part 24.            Intra module refs:   icmpFmtEchoReply
           LOCAL                   ADDRESS         
           =====                   =======         
           ?Subroutine4            000070C5 
    -------------------------------------------------------------------------
<BANKED_CODE> 1 (was BANKED_CODE)
  Relative segment, address: CODE 000070CF - 000070E6 (0x18 bytes), align: 0
  Segment part 25.            Intra module refs:   icmpFmtEchoReply
                                                   icmpParseEchoReply
           LOCAL                   ADDRESS         
           =====                   =======         
           ?Subroutine3            000070CF 
    -------------------------------------------------------------------------
<BANKED_CODE> 1 (was BANKED_CODE)
  Relative segment, address: CODE 000070E7 - 000070F8 (0x12 bytes), align: 0
  Segment part 26.            Intra module refs:   icmpFmtEchoReply
           LOCAL                   ADDRESS         
           =====                   =======         
           ?Subroutine2            000070E7 
    -------------------------------------------------------------------------
<BANKED_CODE> 1 (was BANKED_CODE)
  Relative segment, address: CODE 000070F9 - 00007104 (0xc bytes), align: 0
  Segment part 27.            Intra module refs:   icmpFmtEchoReply
                                                   icmpFmtEchoRequest
           LOCAL                   ADDRESS         
           =====                   =======         
           ?Subroutine0            000070F9 
    -------------------------------------------------------------------------
<BANKED_CODE> 1 (was BANKED_CODE)
  Relative segment, address: CODE 00007105 - 00007110 (0xc bytes), align: 0
  Segment part 28.            Intra module refs:   ?Subroutine0
           LOCAL                   ADDRESS         
           =====                   =======         
           ?Subroutine5            00007105 
    -------------------------------------------------------------------------
<BANKED_CODE> 1 (was BANKED_CODE)
  Relative segment, address: CODE 00007111 - 0000711A (0xa bytes), align: 0
  Segment part 29.            Intra module refs:   ?Subroutine5
           LOCAL                   ADDRESS         
           =====                   =======         
           ?Subroutine8            00007111 
    -------------------------------------------------------------------------
<BANKED_CODE> 1 (was BANKED_CODE)
  Relative segment, address: CODE 0000711B - 00007127 (0xd bytes), align: 0
  Segment part 30.            Intra module refs:   ?Subroutine8
                                                   icmpFmtEchoRequest
           LOCAL                   ADDRESS         
           =====                   =======         
           ?Subroutine9            0000711B 
    -------------------------------------------------------------------------
BANK_RELAYS
  Relative segment, address: CODE 00000325 - 0000032A (0x6 bytes), align: 0
  Segment part 12.
           ENTRY                   ADDRESS         REF BY
           =====                   =======         ======
           icmpCommonFmt::?relay   00000325        nwkFSM (nwk)
    -------------------------------------------------------------------------
BANK_RELAYS
  Relative segment, address: CODE 0000032B - 00000330 (0x6 bytes), align: 0
  Segment part 14.
           ENTRY                   ADDRESS         REF BY
           =====                   =======         ======
           icmpFmtEchoRequest::?relay
                                   0000032B        nwkFSM (nwk)
    -------------------------------------------------------------------------
BANK_RELAYS
  Relative segment, address: CODE 00000331 - 00000336 (0x6 bytes), align: 0
  Segment part 20.
           ENTRY                   ADDRESS         REF BY
           =====                   =======         ======
           icmpParseEchoReply::?relay
                                   00000331        nwkRxFSM (nwk)
    -------------------------------------------------------------------------
BANK_RELAYS
  Relative segment, address: CODE 00000337 - 0000033C (0x6 bytes), align: 0
  Segment part 22.
           ENTRY                   ADDRESS         REF BY
           =====                   =======         ======
           icmpFmtEchoReply::?relay
                                   00000337        nwkFSM (nwk)

    *************************************************************************

  FILE NAME : F:\6LoWSN\6lowsn_stack\obj\compiletest\iar51_cc2530\coord\Obj\mac.r51
  PROGRAM MODULE, NAME : mac

  SEGMENTS IN THE MODULE
  ======================
XDATA_Z
  Relative segment, address: XDATA 00000772 - 00000772 (0x1 bytes), align: 0
  Segment part 6.             Intra module refs:   macInit
                                                   macRxFSM
           LOCAL                   ADDRESS         
           =====                   =======         
           macRxState              00000772 
    -------------------------------------------------------------------------
XDATA_Z
  Relative segment, address: XDATA 00000773 - 000007B2 (0x40 bytes), align: 0
  Segment part 7.             Intra module refs:   ?Subroutine19
                                                   ?Subroutine3
                                                   ?Subroutine30
                                                   ?Subroutine32
                                                   ?Subroutine43
                                                   macCheckDataRejection
                                                   macFSM
                                                   macFormatAssociationResponse
                                                   macFormatBeacon
                                                   macFormatCoordRealign
                                                   macFreeRxPacket
                                                   macGetRxPacket
                                                   macInit
                                                   macInitRadio
                                                   macParseBeacon
                                                   macRxBuffEmpty
                                                   macRxBuffFull
                                                   macRxCallback
                                                   macRxFSM
                                                   macSetPANID
                                                   macTxCallback
                                                   macTxData
                                                   macTxFSM
           ENTRY                   ADDRESS         REF BY
           =====                   =======         ======
           mac_pib                 00000773        ?Subroutine32 (adp)
                                                   adpParseCompHdr (adp)
                                                   adpTxData (adp)
                                                   ds6LocalIPFrom16 (ds)
                                                   main (test_demo)
                                                   mpFmtDeviceInfo (mp)
                                                   mpFmtTreeNeighborInfo (mp)
                                                   mpInit (mp)
                                                   ntAddNeighbor (neighbor)
                                                   ntFindNewDst (neighbor)
                                                   ntInitAddressAssignment (neighbor)
    -------------------------------------------------------------------------
XDATA_Z
  Relative segment, address: XDATA 000007B3 - 000007B6 (0x4 bytes), align: 0
  Segment part 8.             Intra module refs:   ?Subroutine18
                                                   ?Subroutine22
                                                   macFSM
           ENTRY                   ADDRESS         REF BY
           =====                   =======         ======
           a_mac_service           000007B3        ?Subroutine4 (adp)
                                                   adpFSM (adp)
                                                   adpTxData (adp)
    -------------------------------------------------------------------------
XDATA_Z
  Relative segment, address: XDATA 000007B7 - 000007B7 (0x1 bytes), align: 0
  Segment part 9.             Intra module refs:   ?Subroutine3
                                                   macFSM
                                                   macInit
           ENTRY                   ADDRESS         REF BY
           =====                   =======         ======
           macState                000007B7        ?Subroutine4 (adp)
                                                   adpFSM (adp)
                                                   adpRxFSM (adp)
    -------------------------------------------------------------------------
XDATA_Z
  Relative segment, address: XDATA 000007B8 - 000007C9 (0x12 bytes), align: 0
  Segment part 10.            Intra module refs:   ?Subroutine12
                                                   ?Subroutine37
                                                   macFSM
                                                   macTxData
           ENTRY                   ADDRESS         REF BY
           =====                   =======         ======
           a_mac_tx_data           000007B8        adpTxData (adp)
    -------------------------------------------------------------------------
XDATA_Z
  Relative segment, address: XDATA 000007CA - 000007E2 (0x19 bytes), align: 0
  Segment part 11.            Intra module refs:   ?Subroutine25
                                                   ?Subroutine26
                                                   ?Subroutine27
                                                   ?Subroutine35
                                                   ?Subroutine44
                                                   macCheckDataRejection
                                                   macFSM
                                                   macFormatAssociationResponse
                                                   macParseBeacon
                                                   macParseHdr
                                                   macRxFSM
           ENTRY                   ADDRESS         REF BY
           =====                   =======         ======
           a_mac_rx_data           000007CA        adpRxHandoff (adp)
    -------------------------------------------------------------------------
XDATA_Z
  Relative segment, address: XDATA 000007E3 - 000007E3 (0x1 bytes), align: 0
  Segment part 12.            Intra module refs:   ?Subroutine20
                                                   macFSM
                                                   macTxData
                                                   macTxFSM
           ENTRY                   ADDRESS         REF BY
           =====                   =======         ======
           macTxFSM_status         000007E3 
    -------------------------------------------------------------------------
XDATA_Z
  Relative segment, address: XDATA 000007E4 - 000007E7 (0x4 bytes), align: 0
  Segment part 13.            Intra module refs:   ?Subroutine42
           LOCAL                   ADDRESS         
           =====                   =======         
           mac_utility_timer       000007E4 
    -------------------------------------------------------------------------
<BANKED_CODE> 1 (was BANKED_CODE)
  Relative segment, address: CODE 00002144 - 00002197 (0x54 bytes), align: 0
  Segment part 61.            Intra module refs:   macInit::?relay
           ENTRY                   ADDRESS         REF BY
           =====                   =======         ======
           macInit                 00002144 
               calls direct
               XSTACK = 00000000 ( 0000000C )
    -------------------------------------------------------------------------
<BANKED_CODE> 1 (was BANKED_CODE)
  Relative segment, address: CODE 00002198 - 000021CC (0x35 bytes), align: 0
  Segment part 65.            Intra module refs:   macInitRadio::?relay
           ENTRY                   ADDRESS         REF BY
           =====                   =======         ======
           macInitRadio            00002198 
               calls direct
               XSTACK = 00000000 ( 0000000C )
    -------------------------------------------------------------------------
<BANKED_CODE> 1 (was BANKED_CODE)
  Relative segment, address: CODE 000021CD - 000021D5 (0x9 bytes), align: 0
  Segment part 67.            Intra module refs:   macInitRadio
           LOCAL                   ADDRESS         
           =====                   =======         
           ?Subroutine40           000021CD 
    -------------------------------------------------------------------------
<BANKED_CODE> 1 (was BANKED_CODE)
  Relative segment, address: CODE 000021D6 - 000021F5 (0x20 bytes), align: 0
  Segment part 68.            Intra module refs:   macInitRadio
           LOCAL                   ADDRESS         
           =====                   =======         
           ?Subroutine1            000021D6 
    -------------------------------------------------------------------------
<BANKED_CODE> 1 (was BANKED_CODE)
  Relative segment, address: CODE 000021F6 - 00002206 (0x11 bytes), align: 0
  Segment part 69.            Intra module refs:   macSetPANID::?relay
           ENTRY                   ADDRESS         REF BY
           =====                   =======         ======
           macSetPANID             000021F6 
               calls direct
               XSTACK = 0000000C ( 00000000 )
               ISTACK = 00000000 ( 00000002 )
    -------------------------------------------------------------------------
<BANKED_CODE> 1 (was BANKED_CODE)
  Relative segment, address: CODE 00002207 - 00002214 (0xe bytes), align: 0
  Segment part 73.            Intra module refs:   macSetChannel::?relay
           ENTRY                   ADDRESS         REF BY
           =====                   =======         ======
           macSetChannel           00002207 
               calls direct
               ISTACK = 00000000 ( 00000002 )
    -------------------------------------------------------------------------
CODE_C
  Relative segment, address: CODE 000012BB - 000012E3 (0x29 bytes), align: 0
  Segment part 14.            Intra module refs:   macFSM
           LOCAL                   ADDRESS         
           =====                   =======         
           macFSM{3}{5}{6}{8}::xxxxromstr
                                   000012BB 
    -------------------------------------------------------------------------
CODE_C
  Relative segment, address: CODE 000012E4 - 00001329 (0x46 bytes), align: 0
  Segment part 15.            Intra module refs:   macFSM
           LOCAL                   ADDRESS         
           =====                   =======         
           macFSM{3}{5}{6}{19}::xxxxromstr
                                   000012E4 
    -------------------------------------------------------------------------
CODE_C
  Relative segment, address: CODE 0000132A - 00001343 (0x1a bytes), align: 0
  Segment part 16.            Intra module refs:   macFSM
           LOCAL                   ADDRESS         
           =====                   =======         
           macFSM{3}{33}{34}::xxxxromstr
                                   0000132A 
    -------------------------------------------------------------------------
CODE_C
  Relative segment, address: CODE 00001344 - 0000135C (0x19 bytes), align: 0
  Segment part 17.            Intra module refs:   macFSM
           LOCAL                   ADDRESS         
           =====                   =======         
           macFSM{3}{36}{37}::xxxxromstr
                                   00001344 
    -------------------------------------------------------------------------
CODE_C
  Relative segment, address: CODE 0000135D - 00001371 (0x15 bytes), align: 0
  Segment part 18.            Intra module refs:   macFSM
           LOCAL                   ADDRESS         
           =====                   =======         
           macFSM{3}{40}{41}::xxxxromstr
                                   0000135D 
    -------------------------------------------------------------------------
CODE_C
  Relative segment, address: CODE 00001372 - 000013AC (0x3b bytes), align: 0
  Segment part 19.            Intra module refs:   macFSM
           LOCAL                   ADDRESS         
           =====                   =======         
           macFSM{3}{45}{46}::xxxxromstr
                                   00001372 
    -------------------------------------------------------------------------
CODE_C
  Relative segment, address: CODE 000013AD - 000013D5 (0x29 bytes), align: 0
  Segment part 20.            Intra module refs:   macFSM
           LOCAL                   ADDRESS         
           =====                   =======         
           macFSM{3}{47}::xxxxromstr
                                   000013AD 
    -------------------------------------------------------------------------
CODE_C
  Relative segment, address: CODE 000013D6 - 000013F3 (0x1e bytes), align: 0
  Segment part 21.            Intra module refs:   macFSM
           LOCAL                   ADDRESS         
           =====                   =======         
           macFSM{3}{49}::xxxxromstr
                                   000013D6 
    -------------------------------------------------------------------------
CODE_C
  Relative segment, address: CODE 000013F4 - 000013F5 (0x2 bytes), align: 0
  Segment part 22.            Intra module refs:   macFSM
           LOCAL                   ADDRESS         
           =====                   =======         
           macFSM{3}{50}::xxxxromstr
                                   000013F4 
    -------------------------------------------------------------------------
CODE_C
  Relative segment, address: CODE 000013F6 - 00001413 (0x1e bytes), align: 0
  Segment part 23.            Intra module refs:   macFSM
           LOCAL                   ADDRESS         
           =====                   =======         
           macFSM{3}{52}::xxxxromstr
                                   000013F6 
    -------------------------------------------------------------------------
CODE_C
  Relative segment, address: CODE 00001414 - 00001422 (0xf bytes), align: 0
  Segment part 24.            Intra module refs:   macTxFSM
           LOCAL                   ADDRESS         
           =====                   =======         
           macTxFSM{1}{2}{7}{8}::xxxxromstr
                                   00001414 
    -------------------------------------------------------------------------
CODE_C
  Relative segment, address: CODE 00001423 - 00001439 (0x17 bytes), align: 0
  Segment part 25.            Intra module refs:   macTxFSM
           LOCAL                   ADDRESS         
           =====                   =======         
           macTxFSM{1}{2}{7}{9}{10}::xxxxromstr
                                   00001423 
    -------------------------------------------------------------------------
CODE_C
  Relative segment, address: CODE 0000143A - 00001447 (0xe bytes), align: 0
  Segment part 26.            Intra module refs:   macTxFSM
           LOCAL                   ADDRESS         
           =====                   =======         
           macTxFSM{1}{2}{7}{11}{12}::xxxxromstr
                                   0000143A 
    -------------------------------------------------------------------------
CODE_C
  Relative segment, address: CODE 00001448 - 00001450 (0x9 bytes), align: 0
  Segment part 27.            Intra module refs:   macTxData
           LOCAL                   ADDRESS         
           =====                   =======         
           macTxData{1}{16}::xxxxromstr
                                   00001448 
    -------------------------------------------------------------------------
CODE_C
  Relative segment, address: CODE 00001451 - 00001452 (0x2 bytes), align: 0
  Segment part 28.            Intra module refs:   macTxData
           LOCAL                   ADDRESS         
           =====                   =======         
           macTxData{1}{17}::xxxxromstr
                                   00001451 
    -------------------------------------------------------------------------
CODE_C
  Relative segment, address: CODE 00001453 - 00001476 (0x24 bytes), align: 0
  Segment part 29.            Intra module refs:   macRxFSM
           LOCAL                   ADDRESS         
           =====                   =======         
           macRxFSM{1}{3}{4}::xxxxromstr
                                   00001453 
    -------------------------------------------------------------------------
CODE_C
  Relative segment, address: CODE 00001477 - 000014C9 (0x53 bytes), align: 0
  Segment part 30.            Intra module refs:   macRxFSM
           LOCAL                   ADDRESS         
           =====                   =======         
           macRxFSM{1}{5}{6}::xxxxromstr
                                   00001477 
    -------------------------------------------------------------------------
CODE_C
  Relative segment, address: CODE 000014CA - 000014E0 (0x17 bytes), align: 0
  Segment part 31.            Intra module refs:   macRxFSM
           LOCAL                   ADDRESS         
           =====                   =======         
           macRxFSM{1}{7}{8}::xxxxromstr
                                   000014CA 
    -------------------------------------------------------------------------
CODE_C
  Relative segment, address: CODE 000014E1 - 0000151F (0x3f bytes), align: 0
  Segment part 32.            Intra module refs:   macRxFSM
           LOCAL                   ADDRESS         
           =====                   =======         
           macRxFSM{1}{9}{10}{11}::xxxxromstr
                                   000014E1 
    -------------------------------------------------------------------------
CODE_C
  Relative segment, address: CODE 00001520 - 00001539 (0x1a bytes), align: 0
  Segment part 33.            Intra module refs:   macRxFSM
           LOCAL                   ADDRESS         
           =====                   =======         
           macRxFSM{1}{9}{12}::xxxxromstr
                                   00001520 
    -------------------------------------------------------------------------
CODE_C
  Relative segment, address: CODE 0000153A - 0000153D (0x4 bytes), align: 0
  Segment part 34.            Intra module refs:   macRxFSM
           LOCAL                   ADDRESS         
           =====                   =======         
           macRxFSM{1}{9}{13}{14}::xxxxromstr
                                   0000153A 
    -------------------------------------------------------------------------
CODE_C
  Relative segment, address: CODE 0000153E - 00001557 (0x1a bytes), align: 0
  Segment part 35.            Intra module refs:   macRxFSM
           LOCAL                   ADDRESS         
           =====                   =======         
           macRxFSM{1}{9}{15}::xxxxromstr
                                   0000153E 
    -------------------------------------------------------------------------
CODE_C
  Relative segment, address: CODE 00001558 - 00001582 (0x2b bytes), align: 0
  Segment part 36.            Intra module refs:   macRxFSM
           LOCAL                   ADDRESS         
           =====                   =======         
           macRxFSM{1}{16}::xxxxromstr
                                   00001558 
    -------------------------------------------------------------------------
CODE_C
  Relative segment, address: CODE 00001583 - 000015DA (0x58 bytes), align: 0
  Segment part 37.            Intra module refs:   macRxFSM
           LOCAL                   ADDRESS         
           =====                   =======         
           macRxFSM{1}{17}{22}::xxxxromstr
                                   00001583 
    -------------------------------------------------------------------------
CODE_C
  Relative segment, address: CODE 000015DB - 000015E3 (0x9 bytes), align: 0
  Segment part 38.            Intra module refs:   macRxFSM
           LOCAL                   ADDRESS         
           =====                   =======         
           macRxFSM{1}{17}{23}::xxxxromstr
                                   000015DB 
    -------------------------------------------------------------------------
CODE_C
  Relative segment, address: CODE 000015E4 - 000015E5 (0x2 bytes), align: 0
  Segment part 39.            Intra module refs:   macRxFSM
           LOCAL                   ADDRESS         
           =====                   =======         
           macRxFSM{1}{17}{24}::xxxxromstr
                                   000015E4 
    -------------------------------------------------------------------------
<BANKED_CODE> 1 (was BANKED_CODE)
  Relative segment, address: CODE 00002215 - 00002218 (0x4 bytes), align: 0
  Segment part 75.            Intra module refs:   macFormatBeacon
                                                   macFormatCoordRealign
           LOCAL                   ADDRESS         
           =====                   =======         
           ?Subroutine57           00002215 
    -------------------------------------------------------------------------
<BANKED_CODE> 1 (was BANKED_CODE)
  Relative segment, address: CODE 00002219 - 0000221F (0x7 bytes), align: 0
  Segment part 76.            Intra module refs:   ?Subroutine57
                                                   macFreeRxPacket
                                                   macGetRxPacket
                                                   macParseBeacon
                                                   macRxBuffEmpty
                                                   macRxBuffFull
                                                   macSetChannel
                                                   macSetPANID
    -------------------------------------------------------------------------
<BANKED_CODE> 1 (was BANKED_CODE)
  Relative segment, address: CODE 00002220 - 00002232 (0x13 bytes), align: 0
  Segment part 77.            Intra module refs:   macSetShortAddr::?relay
           ENTRY                   ADDRESS         REF BY
           =====                   =======         ======
           macSetShortAddr         00002220 
               calls direct
               XSTACK = 00000000 ( 00000009 )
    -------------------------------------------------------------------------
<BANKED_CODE> 1 (was BANKED_CODE)
  Relative segment, address: CODE 00002233 - 00002237 (0x5 bytes), align: 0
  Segment part 79.            Intra module refs:   macRxCallback
                                                   macSetShortAddr
                                                   macTxData
           LOCAL                   ADDRESS         
           =====                   =======         
           ?Subroutine60           00002233 
    -------------------------------------------------------------------------
<BANKED_CODE> 1 (was BANKED_CODE)
  Relative segment, address: CODE 00002238 - 00002663 (0x42c bytes), align: 0
  Segment part 80.            Intra module refs:   macFSM::?relay
           ENTRY                   ADDRESS         REF BY
           =====                   =======         ======
           macFSM                  00002238 
               calls direct
               XSTACK = 00000000 ( 00000010 )
               ISTACK = 00000000 ( 00000001 )
    -------------------------------------------------------------------------
<BANKED_CODE> 1 (was BANKED_CODE)
  Relative segment, address: CODE 00002664 - 0000266C (0x9 bytes), align: 0
  Segment part 82.            Intra module refs:   macFSM
           LOCAL                   ADDRESS         
           =====                   =======         
           ?Subroutine42           00002664 
    -------------------------------------------------------------------------
<BANKED_CODE> 1 (was BANKED_CODE)
  Relative segment, address: CODE 0000266D - 00002675 (0x9 bytes), align: 0
  Segment part 83.            Intra module refs:   macFSM
           LOCAL                   ADDRESS         
           =====                   =======         
           ?Subroutine37           0000266D 
    -------------------------------------------------------------------------
<BANKED_CODE> 1 (was BANKED_CODE)
  Relative segment, address: CODE 00002676 - 0000267C (0x7 bytes), align: 0
  Segment part 84.            Intra module refs:   macFSM
           LOCAL                   ADDRESS         
           =====                   =======         
           ?Subroutine22           00002676 
    -------------------------------------------------------------------------
<BANKED_CODE> 1 (was BANKED_CODE)
  Relative segment, address: CODE 0000267D - 00002681 (0x5 bytes), align: 0
  Segment part 85.            Intra module refs:   ?Subroutine22
                                                   ?Subroutine24
                                                   macFSM
           LOCAL                   ADDRESS         
           =====                   =======         
           ?Subroutine59           0000267D 
    -------------------------------------------------------------------------
<BANKED_CODE> 1 (was BANKED_CODE)
  Relative segment, address: CODE 00002682 - 00002690 (0xf bytes), align: 0
  Segment part 86.            Intra module refs:   macFSM
           LOCAL                   ADDRESS         
           =====                   =======         
           ?Subroutine20           00002682 
    -------------------------------------------------------------------------
<BANKED_CODE> 1 (was BANKED_CODE)
  Relative segment, address: CODE 00002691 - 0000269A (0xa bytes), align: 0
  Segment part 87.            Intra module refs:   macFSM
           LOCAL                   ADDRESS         
           =====                   =======         
           ?Subroutine18           00002691 
    -------------------------------------------------------------------------
<BANKED_CODE> 1 (was BANKED_CODE)
  Relative segment, address: CODE 0000269B - 000026AA (0x10 bytes), align: 0
  Segment part 88.            Intra module refs:   macFSM
           LOCAL                   ADDRESS         
           =====                   =======         
           ?Subroutine12           0000269B 
    -------------------------------------------------------------------------
<BANKED_CODE> 1 (was BANKED_CODE)
  Relative segment, address: CODE 000026AB - 000026B9 (0xf bytes), align: 0
  Segment part 89.            Intra module refs:   macFSM
           LOCAL                   ADDRESS         
           =====                   =======         
           ?Subroutine3            000026AB 
    -------------------------------------------------------------------------
<BANKED_CODE> 1 (was BANKED_CODE)
  Relative segment, address: CODE 000026BA - 000026D7 (0x1e bytes), align: 0
  Segment part 90.            Intra module refs:   macTxCallback::?relay
           ENTRY                   ADDRESS         REF BY
           =====                   =======         ======
           macTxCallback           000026BA 
               calls direct
               XSTACK = 00000000 ( 0000000C )
    -------------------------------------------------------------------------
<BANKED_CODE> 1 (was BANKED_CODE)
  Relative segment, address: CODE 000026D8 - 000026DC (0x5 bytes), align: 0
  Segment part 92.            Intra module refs:   macInit
                                                   macInitRadio
                                                   macRxFSM
                                                   macTxCallback
                                                   macTxFSM
           LOCAL                   ADDRESS         
           =====                   =======         
           ?Subroutine56           000026D8 
    -------------------------------------------------------------------------
<BANKED_CODE> 1 (was BANKED_CODE)
  Relative segment, address: CODE 000026DD - 0000273B (0x5f bytes), align: 0
  Segment part 93.            Intra module refs:   macRxCallback::?relay
           ENTRY                   ADDRESS         REF BY
           =====                   =======         ======
           macRxCallback           000026DD 
               calls direct
               XSTACK = 00000000 ( 00000009 )
               ISTACK = 00000000 ( 00000001 )
    -------------------------------------------------------------------------
<BANKED_CODE> 1 (was BANKED_CODE)
  Relative segment, address: CODE 0000273C - 0000275C (0x21 bytes), align: 0
  Segment part 95.            Intra module refs:   macRxBuffFull::?relay
           ENTRY                   ADDRESS         REF BY
           =====                   =======         ======
           macRxBuffFull           0000273C 
               ISTACK = 00000000 ( 00000002 )
    -------------------------------------------------------------------------
<BANKED_CODE> 1 (was BANKED_CODE)
  Relative segment, address: CODE 0000275D - 00002775 (0x19 bytes), align: 0
  Segment part 97.            Intra module refs:   macRxBuffEmpty::?relay
           ENTRY                   ADDRESS         REF BY
           =====                   =======         ======
           macRxBuffEmpty          0000275D 
               XSTACK = 0000000C ( 00000000 )
               ISTACK = 00000000 ( 00000002 )
    -------------------------------------------------------------------------
<BANKED_CODE> 1 (was BANKED_CODE)
  Relative segment, address: CODE 00002776 - 000027A3 (0x2e bytes), align: 0
  Segment part 99.            Intra module refs:   macGetRxPacket::?relay
           ENTRY                   ADDRESS         REF BY
           =====                   =======         ======
           macGetRxPacket          00002776 
               XSTACK = 0000000C ( 00000000 )
               ISTACK = 00000000 ( 00000002 )
    -------------------------------------------------------------------------
<BANKED_CODE> 1 (was BANKED_CODE)
  Relative segment, address: CODE 000027A4 - 000027C2 (0x1f bytes), align: 0
  Segment part 101.           Intra module refs:   macFreeRxPacket::?relay
           ENTRY                   ADDRESS         REF BY
           =====                   =======         ======
           macFreeRxPacket         000027A4 
               calls direct
               XSTACK = 0000000C ( 00000000 )
               ISTACK = 00000000 ( 00000002 )
    -------------------------------------------------------------------------
<BANKED_CODE> 1 (was BANKED_CODE)
  Relative segment, address: CODE 000027C3 - 000027D2 (0x10 bytes), align: 0
  Segment part 103.           Intra module refs:   macFreeRxPacket
                                                   macRxCallback
           LOCAL                   ADDRESS         
           =====                   =======         
           ?Subroutine30           000027C3 
    -------------------------------------------------------------------------
<BANKED_CODE> 1 (was BANKED_CODE)
  Relative segment, address: CODE 000027D3 - 00002882 (0xb0 bytes), align: 0
  Segment part 104.           Intra module refs:   macTxFSM::?relay
           LOCAL                   ADDRESS         
           =====                   =======         
           macTxFSM                000027D3 
               calls direct
               XSTACK = 00000010 ( 0000000C )
               ISTACK = 00000000 ( 00000002 )
    -------------------------------------------------------------------------
<BANKED_CODE> 1 (was BANKED_CODE)
  Relative segment, address: CODE 00002883 - 0000288B (0x9 bytes), align: 0
  Segment part 106.           Intra module refs:   macTxCallback
                                                   macTxFSM
           LOCAL                   ADDRESS         
           =====                   =======         
           ?Subroutine43           00002883 
    -------------------------------------------------------------------------
<BANKED_CODE> 1 (was BANKED_CODE)
  Relative segment, address: CODE 0000288C - 00002897 (0xc bytes), align: 0
  Segment part 107.           Intra module refs:   ?Subroutine42
                                                   ?Subroutine43
                                                   macRxFSM
           LOCAL                   ADDRESS         
           =====                   =======         
           ?Subroutine52           0000288C 
    -------------------------------------------------------------------------
<BANKED_CODE> 1 (was BANKED_CODE)
  Relative segment, address: CODE 00002898 - 0000289A (0x3 bytes), align: 0
  Segment part 108.           Intra module refs:   macFSM
           LOCAL                   ADDRESS         
           =====                   =======         
           ?Subroutine21           00002898 
    -------------------------------------------------------------------------
<BANKED_CODE> 1 (was BANKED_CODE)
  Relative segment, address: CODE 0000289B - 0000289F (0x5 bytes), align: 0
  Segment part 109.           Intra module refs:   ?Subroutine21
                                                   macFSM
                                                   macTxCallback
                                                   macTxData
                                                   macTxFSM
    -------------------------------------------------------------------------
<BANKED_CODE> 1 (was BANKED_CODE)
  Relative segment, address: CODE 000028A0 - 000029FE (0x15f bytes), align: 0
  Segment part 110.           Intra module refs:   macTxData::?relay
           LOCAL                   ADDRESS         
           =====                   =======         
           macTxData               000028A0 
               calls direct
               XSTACK = 00000010 ( 00000009 )
               ISTACK = 00000000 ( 00000001 )
    -------------------------------------------------------------------------
<BANKED_CODE> 1 (was BANKED_CODE)
  Relative segment, address: CODE 000029FF - 00002A02 (0x4 bytes), align: 0
  Segment part 112.           Intra module refs:   macTxData
           LOCAL                   ADDRESS         
           =====                   =======         
           ?Subroutine33           000029FF 
    -------------------------------------------------------------------------
<BANKED_CODE> 1 (was BANKED_CODE)
  Relative segment, address: CODE 00002A03 - 00002A08 (0x6 bytes), align: 0
  Segment part 113.           Intra module refs:   ?Subroutine23
                                                   ?Subroutine33
           LOCAL                   ADDRESS         
           =====                   =======         
           ?Subroutine49           00002A03 
    -------------------------------------------------------------------------
<BANKED_CODE> 1 (was BANKED_CODE)
  Relative segment, address: CODE 00002A09 - 00002A13 (0xb bytes), align: 0
  Segment part 114.           Intra module refs:   ?Subroutine49
                                                   macTxData
           LOCAL                   ADDRESS         
           =====                   =======         
           ?Subroutine55           00002A09 
    -------------------------------------------------------------------------
<BANKED_CODE> 1 (was BANKED_CODE)
  Relative segment, address: CODE 00002A14 - 00002A18 (0x5 bytes), align: 0
  Segment part 115.           Intra module refs:   macTxData
           LOCAL                   ADDRESS         
           =====                   =======         
           ?Subroutine23           00002A14 
    -------------------------------------------------------------------------
<BANKED_CODE> 1 (was BANKED_CODE)
  Relative segment, address: CODE 00002A19 - 00002A28 (0x10 bytes), align: 0
  Segment part 116.           Intra module refs:   macRxCallback
                                                   macTxData
           LOCAL                   ADDRESS         
           =====                   =======         
           ?Subroutine19           00002A19 
    -------------------------------------------------------------------------
<BANKED_CODE> 1 (was BANKED_CODE)
  Relative segment, address: CODE 00002A29 - 00002A32 (0xa bytes), align: 0
  Segment part 117.           Intra module refs:   macFSM
                                                   macTxData
           LOCAL                   ADDRESS         
           =====                   =======         
           ?Subroutine7            00002A29 
    -------------------------------------------------------------------------
<BANKED_CODE> 1 (was BANKED_CODE)
  Relative segment, address: CODE 00002A33 - 00002A40 (0xe bytes), align: 0
  Segment part 118.           Intra module refs:   ?Subroutine1
                                                   ?Subroutine7
           LOCAL                   ADDRESS         
           =====                   =======         
           ?Subroutine46           00002A33 
    -------------------------------------------------------------------------
<BANKED_CODE> 1 (was BANKED_CODE)
  Relative segment, address: CODE 00002A41 - 00002A45 (0x5 bytes), align: 0
  Segment part 119.           Intra module refs:   macTxData
           LOCAL                   ADDRESS         
           =====                   =======         
           ?Subroutine0            00002A41 
    -------------------------------------------------------------------------
<BANKED_CODE> 1 (was BANKED_CODE)
  Relative segment, address: CODE 00002A46 - 00002A4B (0x6 bytes), align: 0
  Segment part 120.           Intra module refs:   ?Subroutine0
                                                   macTxData
    -------------------------------------------------------------------------
<BANKED_CODE> 1 (was BANKED_CODE)
  Relative segment, address: CODE 00002A4C - 00002A51 (0x6 bytes), align: 0
  Segment part 121.           Intra module refs:   ?Subroutine0
                                                   ?Subroutine10
                                                   Segment part 120
                                                   macFSM
                                                   macParseBeacon
           LOCAL                   ADDRESS         
           =====                   =======         
           ?Subroutine58           00002A4C 
    -------------------------------------------------------------------------
<BANKED_CODE> 1 (was BANKED_CODE)
  Relative segment, address: CODE 00002A52 - 00002BF6 (0x1a5 bytes), align: 0
  Segment part 122.           Intra module refs:   macRxFSM::?relay
           LOCAL                   ADDRESS         
           =====                   =======         
           macRxFSM                00002A52 
               calls direct
               XSTACK = 00000010 ( 0000000C )
    -------------------------------------------------------------------------
<BANKED_CODE> 1 (was BANKED_CODE)
  Relative segment, address: CODE 00002BF7 - 00002BFC (0x6 bytes), align: 0
  Segment part 124.           Intra module refs:   macParseBeacon
                                                   macRxFSM
                                                   macTxData
           LOCAL                   ADDRESS         
           =====                   =======         
           ?Subroutine36           00002BF7 
    -------------------------------------------------------------------------
<BANKED_CODE> 1 (was BANKED_CODE)
  Relative segment, address: CODE 00002BFD - 00002C04 (0x8 bytes), align: 0
  Segment part 125.           Intra module refs:   macFSM
                                                   macParseBeacon
                                                   macRxFSM
           LOCAL                   ADDRESS         
           =====                   =======         
           ?Subroutine32           00002BFD 
    -------------------------------------------------------------------------
<BANKED_CODE> 1 (was BANKED_CODE)
  Relative segment, address: CODE 00002C05 - 00002C14 (0x10 bytes), align: 0
  Segment part 126.           Intra module refs:   macRxFSM
           LOCAL                   ADDRESS         
           =====                   =======         
           ?Subroutine29           00002C05 
    -------------------------------------------------------------------------
<BANKED_CODE> 1 (was BANKED_CODE)
  Relative segment, address: CODE 00002C15 - 00002CFF (0xeb bytes), align: 0
  Segment part 127.           Intra module refs:   macParseHdr::?relay
           LOCAL                   ADDRESS         
           =====                   =======         
           macParseHdr             00002C15 
               XSTACK = 0000000C ( 0000000A )
               ISTACK = 00000000 ( 00000001 )
    -------------------------------------------------------------------------
<BANKED_CODE> 1 (was BANKED_CODE)
  Relative segment, address: CODE 00002D00 - 00002D04 (0x5 bytes), align: 0
  Segment part 129.           Intra module refs:   macCheckDataRejection
                                                   macParseHdr
           LOCAL                   ADDRESS         
           =====                   =======         
           ?Subroutine61           00002D00 
    -------------------------------------------------------------------------
<BANKED_CODE> 1 (was BANKED_CODE)
  Relative segment, address: CODE 00002D05 - 00002D07 (0x3 bytes), align: 0
  Segment part 130.           Intra module refs:   macParseBeacon
                                                   macParseHdr
                                                   macRxFSM
           LOCAL                   ADDRESS         
           =====                   =======         
           ?Subroutine27           00002D05 
    -------------------------------------------------------------------------
<BANKED_CODE> 1 (was BANKED_CODE)
  Relative segment, address: CODE 00002D08 - 00002D0B (0x4 bytes), align: 0
  Segment part 131.           Intra module refs:   ?Subroutine27
                                                   macTxCallback
    -------------------------------------------------------------------------
<BANKED_CODE> 1 (was BANKED_CODE)
  Relative segment, address: CODE 00002D0C - 00002D0C (0x1 bytes), align: 0
  Segment part 132.           Intra module refs:   ?Subroutine26
                                                   Segment part 131
           LOCAL                   ADDRESS         
           =====                   =======         
           ?Subroutine51           00002D0C 
    -------------------------------------------------------------------------
<BANKED_CODE> 1 (was BANKED_CODE)
  Relative segment, address: CODE 00002D0D - 00002D15 (0x9 bytes), align: 0
  Segment part 133.           Intra module refs:   ?Subroutine26
                                                   ?Subroutine51
    -------------------------------------------------------------------------
<BANKED_CODE> 1 (was BANKED_CODE)
  Relative segment, address: CODE 00002D16 - 00002D1A (0x5 bytes), align: 0
  Segment part 134.           Intra module refs:   macParseHdr
           LOCAL                   ADDRESS         
           =====                   =======         
           ?Subroutine17           00002D16 
    -------------------------------------------------------------------------
<BANKED_CODE> 1 (was BANKED_CODE)
  Relative segment, address: CODE 00002D1B - 00002D23 (0x9 bytes), align: 0
  Segment part 135.           Intra module refs:   macParseHdr
           LOCAL                   ADDRESS         
           =====                   =======         
           ?Subroutine9            00002D1B 
    -------------------------------------------------------------------------
<BANKED_CODE> 1 (was BANKED_CODE)
  Relative segment, address: CODE 00002D24 - 00002D2A (0x7 bytes), align: 0
  Segment part 136.           Intra module refs:   ?Subroutine9
                                                   macParseHdr
           LOCAL                   ADDRESS         
           =====                   =======         
           ?Subroutine48           00002D24 
    -------------------------------------------------------------------------
<BANKED_CODE> 1 (was BANKED_CODE)
  Relative segment, address: CODE 00002D2B - 00002D31 (0x7 bytes), align: 0
  Segment part 137.           Intra module refs:   ?Subroutine47
                                                   ?Subroutine48
                                                   Segment part 141
                                                   macParseHdr
           LOCAL                   ADDRESS         
           =====                   =======         
           ?Subroutine54           00002D2B 
    -------------------------------------------------------------------------
<BANKED_CODE> 1 (was BANKED_CODE)
  Relative segment, address: CODE 00002D32 - 00002D3A (0x9 bytes), align: 0
  Segment part 138.           Intra module refs:   macParseHdr
           LOCAL                   ADDRESS         
           =====                   =======         
           ?Subroutine8            00002D32 
    -------------------------------------------------------------------------
<BANKED_CODE> 1 (was BANKED_CODE)
  Relative segment, address: CODE 00002D3B - 00002D42 (0x8 bytes), align: 0
  Segment part 139.           Intra module refs:   ?Subroutine17
                                                   ?Subroutine8
           LOCAL                   ADDRESS         
           =====                   =======         
           ?Subroutine47           00002D3B 
    -------------------------------------------------------------------------
<BANKED_CODE> 1 (was BANKED_CODE)
  Relative segment, address: CODE 00002D43 - 00002D46 (0x4 bytes), align: 0
  Segment part 140.           Intra module refs:   macParseHdr
           LOCAL                   ADDRESS         
           =====                   =======         
           ?Subroutine6            00002D43 
    -------------------------------------------------------------------------
<BANKED_CODE> 1 (was BANKED_CODE)
  Relative segment, address: CODE 00002D47 - 00002D4F (0x9 bytes), align: 0
  Segment part 141.           Intra module refs:   ?Subroutine6
                                                   macParseHdr
    -------------------------------------------------------------------------
<BANKED_CODE> 1 (was BANKED_CODE)
  Relative segment, address: CODE 00002D50 - 00002DFC (0xad bytes), align: 0
  Segment part 142.           Intra module refs:   macFormatBeacon::?relay
           LOCAL                   ADDRESS         
           =====                   =======         
           macFormatBeacon         00002D50 
               XSTACK = 00000010 ( 00000000 )
               ISTACK = 00000000 ( 00000003 )
    -------------------------------------------------------------------------
<BANKED_CODE> 1 (was BANKED_CODE)
  Relative segment, address: CODE 00002DFD - 00002F16 (0x11a bytes), align: 0
  Segment part 144.           Intra module refs:   macParseBeacon::?relay
           LOCAL                   ADDRESS         
           =====                   =======         
           macParseBeacon          00002DFD 
               calls direct
               XSTACK = 0000000C ( 00000000 )
               ISTACK = 00000000 ( 00000003 )
    -------------------------------------------------------------------------
<BANKED_CODE> 1 (was BANKED_CODE)
  Relative segment, address: CODE 00002F17 - 00002F1A (0x4 bytes), align: 0
  Segment part 146.           Intra module refs:   macParseBeacon
                                                   macParseHdr
           LOCAL                   ADDRESS         
           =====                   =======         
           ?Subroutine41           00002F17 
    -------------------------------------------------------------------------
<BANKED_CODE> 1 (was BANKED_CODE)
  Relative segment, address: CODE 00002F1B - 00002F23 (0x9 bytes), align: 0
  Segment part 147.           Intra module refs:   ?Subroutine29
                                                   ?Subroutine41
           LOCAL                   ADDRESS         
           =====                   =======         
           ?Subroutine53           00002F1B 
    -------------------------------------------------------------------------
<BANKED_CODE> 1 (was BANKED_CODE)
  Relative segment, address: CODE 00002F24 - 00002F29 (0x6 bytes), align: 0
  Segment part 148.           Intra module refs:   macFSM
                                                   macParseBeacon
           LOCAL                   ADDRESS         
           =====                   =======         
           ?Subroutine38           00002F24 
    -------------------------------------------------------------------------
<BANKED_CODE> 1 (was BANKED_CODE)
  Relative segment, address: CODE 00002F2A - 00002F38 (0xf bytes), align: 0
  Segment part 149.           Intra module refs:   macParseBeacon
           LOCAL                   ADDRESS         
           =====                   =======         
           ?Subroutine35           00002F2A 
    -------------------------------------------------------------------------
<BANKED_CODE> 1 (was BANKED_CODE)
  Relative segment, address: CODE 00002F39 - 00002F41 (0x9 bytes), align: 0
  Segment part 150.           Intra module refs:   macFSM
                                                   macParseBeacon
           LOCAL                   ADDRESS         
           =====                   =======         
           ?Subroutine31           00002F39 
    -------------------------------------------------------------------------
<BANKED_CODE> 1 (was BANKED_CODE)
  Relative segment, address: CODE 00002F42 - 00002F47 (0x6 bytes), align: 0
  Segment part 151.           Intra module refs:   macCheckDataRejection
                                                   macFSM
                                                   macFormatAssociationResponse
                                                   macParseBeacon
                                                   macRxFSM
           LOCAL                   ADDRESS         
           =====                   =======         
           ?Subroutine24           00002F42 
    -------------------------------------------------------------------------
<BANKED_CODE> 1 (was BANKED_CODE)
  Relative segment, address: CODE 00002F48 - 00002F50 (0x9 bytes), align: 0
  Segment part 152.           Intra module refs:   macTxData
           LOCAL                   ADDRESS         
           =====                   =======         
           ?Subroutine10           00002F48 
    -------------------------------------------------------------------------
<BANKED_CODE> 1 (was BANKED_CODE)
  Relative segment, address: CODE 00002F51 - 00002F5D (0xd bytes), align: 0
  Segment part 153.           Intra module refs:   ?Subroutine10
                                                   Segment part 120
           LOCAL                   ADDRESS         
           =====                   =======         
           ?Subroutine50           00002F51 
    -------------------------------------------------------------------------
CODE_C
  Relative segment, address: CODE 000015E6 - 000015FD (0x18 bytes), align: 0
  Segment part 40.            Intra module refs:   macParseBeacon
           LOCAL                   ADDRESS         
           =====                   =======         
           macParseBeacon{3}{4}::xxxxromstr
                                   000015E6 
    -------------------------------------------------------------------------
CODE_C
  Relative segment, address: CODE 000015FE - 00001607 (0xa bytes), align: 0
  Segment part 41.            Intra module refs:   macParseBeacon
           LOCAL                   ADDRESS         
           =====                   =======         
           macParseBeacon{3}{5}::xxxxromstr
                                   000015FE 
    -------------------------------------------------------------------------
CODE_C
  Relative segment, address: CODE 00001608 - 0000160F (0x8 bytes), align: 0
  Segment part 42.            Intra module refs:   macParseBeacon
           LOCAL                   ADDRESS         
           =====                   =======         
           macParseBeacon{3}{6}::xxxxromstr
                                   00001608 
    -------------------------------------------------------------------------
CODE_C
  Relative segment, address: CODE 00001610 - 00001618 (0x9 bytes), align: 0
  Segment part 43.            Intra module refs:   macParseBeacon
           LOCAL                   ADDRESS         
           =====                   =======         
           macParseBeacon{3}{7}::xxxxromstr
                                   00001610 
    -------------------------------------------------------------------------
CODE_C
  Relative segment, address: CODE 00001619 - 0000161A (0x2 bytes), align: 0
  Segment part 44.            Intra module refs:   macParseBeacon
           LOCAL                   ADDRESS         
           =====                   =======         
           macParseBeacon{3}{8}::xxxxromstr
                                   00001619 
    -------------------------------------------------------------------------
<BANKED_CODE> 1 (was BANKED_CODE)
  Relative segment, address: CODE 00002F5E - 00002F9A (0x3d bytes), align: 0
  Segment part 154.           Intra module refs:   macFormatCoordRealign::?relay
           LOCAL                   ADDRESS         
           =====                   =======         
           macFormatCoordRealign   00002F5E 
               XSTACK = 00000010 ( 00000000 )
               ISTACK = 00000000 ( 00000003 )
    -------------------------------------------------------------------------
<BANKED_CODE> 1 (was BANKED_CODE)
  Relative segment, address: CODE 00002F9B - 00002FAB (0x11 bytes), align: 0
  Segment part 156.           Intra module refs:   macFormatBeacon
                                                   macFormatCoordRealign
           LOCAL                   ADDRESS         
           =====                   =======         
           ?Subroutine16           00002F9B 
    -------------------------------------------------------------------------
<BANKED_CODE> 1 (was BANKED_CODE)
  Relative segment, address: CODE 00002FAC - 00002FBC (0x11 bytes), align: 0
  Segment part 157.           Intra module refs:   macFormatBeacon
                                                   macFormatCoordRealign
           LOCAL                   ADDRESS         
           =====                   =======         
           ?Subroutine15           00002FAC 
    -------------------------------------------------------------------------
<BANKED_CODE> 1 (was BANKED_CODE)
  Relative segment, address: CODE 00002FBD - 00002FCE (0x12 bytes), align: 0
  Segment part 158.           Intra module refs:   macFormatBeacon
                                                   macFormatCoordRealign
           LOCAL                   ADDRESS         
           =====                   =======         
           ?Subroutine14           00002FBD 
    -------------------------------------------------------------------------
<BANKED_CODE> 1 (was BANKED_CODE)
  Relative segment, address: CODE 00002FCF - 00002FD3 (0x5 bytes), align: 0
  Segment part 159.           Intra module refs:   ?Subroutine13
                                                   ?Subroutine14
                                                   ?Subroutine15
                                                   ?Subroutine16
                                                   ?Subroutine2
                                                   ?Subroutine4
                                                   ?Subroutine5
                                                   Segment part 120
                                                   macFormatBeacon
                                                   macTxData
           LOCAL                   ADDRESS         
           =====                   =======         
           ?Subroutine45           00002FCF 
    -------------------------------------------------------------------------
<BANKED_CODE> 1 (was BANKED_CODE)
  Relative segment, address: CODE 00002FD4 - 00002FE4 (0x11 bytes), align: 0
  Segment part 160.           Intra module refs:   macFormatBeacon
                                                   macFormatCoordRealign
           LOCAL                   ADDRESS         
           =====                   =======         
           ?Subroutine13           00002FD4 
    -------------------------------------------------------------------------
<BANKED_CODE> 1 (was BANKED_CODE)
  Relative segment, address: CODE 00002FE5 - 00002FE5 (0x1 bytes), align: 0
  Segment part 161.           Intra module refs:   macFSM
           LOCAL                   ADDRESS         
           =====                   =======         
           ?Subroutine11           00002FE5 
    -------------------------------------------------------------------------
<BANKED_CODE> 1 (was BANKED_CODE)
  Relative segment, address: CODE 00002FE6 - 00002FF0 (0xb bytes), align: 0
  Segment part 162.           Intra module refs:   ?Subroutine11
                                                   macFSM
                                                   macFormatAssociationResponse
                                                   macFormatBeacon
                                                   macFormatCoordRealign
    -------------------------------------------------------------------------
<BANKED_CODE> 1 (was BANKED_CODE)
  Relative segment, address: CODE 00002FF1 - 00003001 (0x11 bytes), align: 0
  Segment part 163.           Intra module refs:   macFormatAssociationResponse
                                                   macFormatBeacon
                                                   macFormatCoordRealign
           LOCAL                   ADDRESS         
           =====                   =======         
           ?Subroutine5            00002FF1 
    -------------------------------------------------------------------------
<BANKED_CODE> 1 (was BANKED_CODE)
  Relative segment, address: CODE 00003002 - 00003012 (0x11 bytes), align: 0
  Segment part 164.           Intra module refs:   macFormatAssociationResponse
                                                   macFormatBeacon
                                                   macFormatCoordRealign
           LOCAL                   ADDRESS         
           =====                   =======         
           ?Subroutine4            00003002 
    -------------------------------------------------------------------------
<BANKED_CODE> 1 (was BANKED_CODE)
  Relative segment, address: CODE 00003013 - 00003020 (0xe bytes), align: 0
  Segment part 165.           Intra module refs:   macFSM
                                                   macFormatAssociationResponse
                                                   macFormatBeacon
                                                   macFormatCoordRealign
           LOCAL                   ADDRESS         
           =====                   =======         
           ?Subroutine2            00003013 
    -------------------------------------------------------------------------
<BANKED_CODE> 1 (was BANKED_CODE)
  Relative segment, address: CODE 00003021 - 00003128 (0x108 bytes), align: 0
  Segment part 166.           Intra module refs:   macFormatAssociationResponse::?relay
           LOCAL                   ADDRESS         
           =====                   =======         
           macFormatAssociationResponse
                                   00003021 
               calls direct
               XSTACK = 00000010 ( 0000000C )
               ISTACK = 00000000 ( 00000001 )
    -------------------------------------------------------------------------
<BANKED_CODE> 1 (was BANKED_CODE)
  Relative segment, address: CODE 00003129 - 00003139 (0x11 bytes), align: 0
  Segment part 168.           Intra module refs:   macFSM
                                                   macFormatAssociationResponse
           LOCAL                   ADDRESS         
           =====                   =======         
           ?Subroutine28           00003129 
    -------------------------------------------------------------------------
<BANKED_CODE> 1 (was BANKED_CODE)
  Relative segment, address: CODE 0000313A - 00003144 (0xb bytes), align: 0
  Segment part 169.           Intra module refs:   macFormatAssociationResponse
                                                   macRxFSM
           LOCAL                   ADDRESS         
           =====                   =======         
           ?Subroutine26           0000313A 
    -------------------------------------------------------------------------
<BANKED_CODE> 1 (was BANKED_CODE)
  Relative segment, address: CODE 00003145 - 00003160 (0x1c bytes), align: 0
  Segment part 170.           Intra module refs:   macFormatAssociationResponse
                                                   macRxFSM
           LOCAL                   ADDRESS         
           =====                   =======         
           ?Subroutine25           00003145 
    -------------------------------------------------------------------------
CODE_C
  Relative segment, address: CODE 0000161B - 0000164C (0x32 bytes), align: 0
  Segment part 45.            Intra module refs:   macFormatAssociationResponse
           LOCAL                   ADDRESS         
           =====                   =======         
           macFormatAssociationResponse{1}{2}::xxxxromstr
                                   0000161B 
    -------------------------------------------------------------------------
CODE_C
  Relative segment, address: CODE 0000164D - 00001674 (0x28 bytes), align: 0
  Segment part 46.            Intra module refs:   macFormatAssociationResponse
           LOCAL                   ADDRESS         
           =====                   =======         
           macFormatAssociationResponse{7}::xxxxromstr
                                   0000164D 
    -------------------------------------------------------------------------
CODE_C
  Relative segment, address: CODE 00001675 - 0000169C (0x28 bytes), align: 0
  Segment part 47.            Intra module refs:   macFormatAssociationResponse
           LOCAL                   ADDRESS         
           =====                   =======         
           macFormatAssociationResponse{8}{9}::xxxxromstr
                                   00001675 
    -------------------------------------------------------------------------
CODE_C
  Relative segment, address: CODE 0000169D - 000016BA (0x1e bytes), align: 0
  Segment part 48.            Intra module refs:   macFormatAssociationResponse
           LOCAL                   ADDRESS         
           =====                   =======         
           macFormatAssociationResponse{10}{11}::xxxxromstr
                                   0000169D 
    -------------------------------------------------------------------------
CODE_C
  Relative segment, address: CODE 000016BB - 000016BC (0x2 bytes), align: 0
  Segment part 49.            Intra module refs:   macFormatAssociationResponse
           LOCAL                   ADDRESS         
           =====                   =======         
           macFormatAssociationResponse{10}{12}::xxxxromstr
                                   000016BB 
    -------------------------------------------------------------------------
<BANKED_CODE> 1 (was BANKED_CODE)
  Relative segment, address: CODE 00003161 - 000031E5 (0x85 bytes), align: 0
  Segment part 171.           Intra module refs:   macCheckDataRejection::?relay
           LOCAL                   ADDRESS         
           =====                   =======         
           macCheckDataRejection   00003161 
               calls direct
               XSTACK = 0000000C ( 0000000A )
    -------------------------------------------------------------------------
<BANKED_CODE> 1 (was BANKED_CODE)
  Relative segment, address: CODE 000031E6 - 000031EF (0xa bytes), align: 0
  Segment part 173.           Intra module refs:   macCheckDataRejection
                                                   macParseHdr
           LOCAL                   ADDRESS         
           =====                   =======         
           ?Subroutine44           000031E6 
    -------------------------------------------------------------------------
<BANKED_CODE> 1 (was BANKED_CODE)
  Relative segment, address: CODE 000031F0 - 000031F8 (0x9 bytes), align: 0
  Segment part 174.           Intra module refs:   macCheckDataRejection
                                                   macTxData
           LOCAL                   ADDRESS         
           =====                   =======         
           ?Subroutine39           000031F0 
    -------------------------------------------------------------------------
<BANKED_CODE> 1 (was BANKED_CODE)
  Relative segment, address: CODE 000031F9 - 000031FE (0x6 bytes), align: 0
  Segment part 176.           Intra module refs:   macCheckDataRejection
                                                   macFreeRxPacket
    -------------------------------------------------------------------------
CODE_C
  Relative segment, address: CODE 000016BD - 000016EC (0x30 bytes), align: 0
  Segment part 50.            Intra module refs:   macCheckDataRejection
           LOCAL                   ADDRESS         
           =====                   =======         
           macCheckDataRejection{7}::xxxxromstr
                                   000016BD 
    -------------------------------------------------------------------------
XDATA_I
  Relative segment, address: XDATA 000011BC - 000011BF (0x4 bytes), align: 0
  Segment part 53.            Intra module refs:   macFSM
                                                   macInitRadio
           ENTRY                   ADDRESS         REF BY
           =====                   =======         ======
           __Constant_36           000011BC 
    -------------------------------------------------------------------------
XDATA_ID
  Relative segment, address: CODE 00000173 - 00000176 (0x4 bytes), align: 0
  Segment part 54.            Intra module refs:   __Constant_36
    -------------------------------------------------------------------------
XDATA_I
  Relative segment, address: XDATA 000011C0 - 000011C3 (0x4 bytes), align: 0
  Segment part 55.            Intra module refs:   macFSM
           ENTRY                   ADDRESS         REF BY
           =====                   =======         ======
           __Constant_10e          000011C0 
    -------------------------------------------------------------------------
XDATA_ID
  Relative segment, address: CODE 00000177 - 0000017A (0x4 bytes), align: 0
  Segment part 56.            Intra module refs:   __Constant_10e
    -------------------------------------------------------------------------
XDATA_I
  Relative segment, address: XDATA 000011C4 - 000011C7 (0x4 bytes), align: 0
  Segment part 59.            Intra module refs:   macFSM
           ENTRY                   ADDRESS         REF BY
           =====                   =======         ======
           __Constant_3071         000011C4 
    -------------------------------------------------------------------------
XDATA_ID
  Relative segment, address: CODE 0000017B - 0000017E (0x4 bytes), align: 0
  Segment part 60.            Intra module refs:   __Constant_3071
    -------------------------------------------------------------------------
BANK_RELAYS
  Relative segment, address: CODE 0000033D - 00000342 (0x6 bytes), align: 0
  Segment part 62.
           ENTRY                   ADDRESS         REF BY
           =====                   =======         ======
           macInit::?relay         0000033D        ?Subroutine34 (adp)
                                                   apsInit (aps)
    -------------------------------------------------------------------------
BANK_RELAYS
  Relative segment, address: CODE 00000343 - 00000348 (0x6 bytes), align: 0
  Segment part 66.
           ENTRY                   ADDRESS         REF BY
           =====                   =======         ======
           macInitRadio::?relay    00000343        ?Subroutine34 (adp)
    -------------------------------------------------------------------------
BANK_RELAYS
  Relative segment, address: CODE 00000349 - 0000034E (0x6 bytes), align: 0
  Segment part 70.            Intra module refs:   macInitRadio
           ENTRY                   ADDRESS         REF BY
           =====                   =======         ======
           macSetPANID::?relay     00000349 
    -------------------------------------------------------------------------
BANK_RELAYS
  Relative segment, address: CODE 0000034F - 00000354 (0x6 bytes), align: 0
  Segment part 74.
           ENTRY                   ADDRESS         REF BY
           =====                   =======         ======
           macSetChannel::?relay   0000034F        adpFSM (adp)
    -------------------------------------------------------------------------
BANK_RELAYS
  Relative segment, address: CODE 00000355 - 0000035A (0x6 bytes), align: 0
  Segment part 78.
           ENTRY                   ADDRESS         REF BY
           =====                   =======         ======
           macSetShortAddr::?relay
                                   00000355        adpFSM (adp)
    -------------------------------------------------------------------------
BANK_RELAYS
  Relative segment, address: CODE 0000035B - 00000360 (0x6 bytes), align: 0
  Segment part 81.
           ENTRY                   ADDRESS         REF BY
           =====                   =======         ======
           macFSM::?relay          0000035B        ?Subroutine4 (adp)
                                                   adpFSM (adp)
    -------------------------------------------------------------------------
BANK_RELAYS
  Relative segment, address: CODE 00000361 - 00000366 (0x6 bytes), align: 0
  Segment part 91.
           ENTRY                   ADDRESS         REF BY
           =====                   =======         ======
           macTxCallback::?relay   00000361        hal_rf_Isr (halStack)
    -------------------------------------------------------------------------
BANK_RELAYS
  Relative segment, address: CODE 00000367 - 0000036C (0x6 bytes), align: 0
  Segment part 94.
           ENTRY                   ADDRESS         REF BY
           =====                   =======         ======
           macRxCallback::?relay   00000367        hal_rf_Isr (halStack)
    -------------------------------------------------------------------------
BANK_RELAYS
  Relative segment, address: CODE 0000036D - 00000372 (0x6 bytes), align: 0
  Segment part 96.
           ENTRY                   ADDRESS         REF BY
           =====                   =======         ======
           macRxBuffFull::?relay   0000036D        hal_rf_Isr (halStack)
    -------------------------------------------------------------------------
BANK_RELAYS
  Relative segment, address: CODE 00000373 - 00000378 (0x6 bytes), align: 0
  Segment part 98.            Intra module refs:   macRxFSM
           ENTRY                   ADDRESS         REF BY
           =====                   =======         ======
           macRxBuffEmpty::?relay
                                   00000373 
    -------------------------------------------------------------------------
BANK_RELAYS
  Relative segment, address: CODE 00000379 - 0000037E (0x6 bytes), align: 0
  Segment part 100.           Intra module refs:   macRxFSM
           ENTRY                   ADDRESS         REF BY
           =====                   =======         ======
           macGetRxPacket::?relay
                                   00000379 
    -------------------------------------------------------------------------
BANK_RELAYS
  Relative segment, address: CODE 0000037F - 00000384 (0x6 bytes), align: 0
  Segment part 102.           Intra module refs:   macRxFSM
           ENTRY                   ADDRESS         REF BY
           =====                   =======         ======
           macFreeRxPacket::?relay
                                   0000037F 
    -------------------------------------------------------------------------
BANK_RELAYS
  Relative segment, address: CODE 00000385 - 0000038A (0x6 bytes), align: 0
  Segment part 105.           Intra module refs:   macFSM
           LOCAL                   ADDRESS         
           =====                   =======         
           macTxFSM::?relay        00000385 
    -------------------------------------------------------------------------
BANK_RELAYS
  Relative segment, address: CODE 0000038B - 00000390 (0x6 bytes), align: 0
  Segment part 111.           Intra module refs:   macFSM
                                                   macTxFSM
           LOCAL                   ADDRESS         
           =====                   =======         
           macTxData::?relay       0000038B 
    -------------------------------------------------------------------------
BANK_RELAYS
  Relative segment, address: CODE 00000391 - 00000396 (0x6 bytes), align: 0
  Segment part 123.           Intra module refs:   macFSM
           LOCAL                   ADDRESS         
           =====                   =======         
           macRxFSM::?relay        00000391 
    -------------------------------------------------------------------------
BANK_RELAYS
  Relative segment, address: CODE 00000397 - 0000039C (0x6 bytes), align: 0
  Segment part 128.           Intra module refs:   macRxFSM
           LOCAL                   ADDRESS         
           =====                   =======         
           macParseHdr::?relay     00000397 
    -------------------------------------------------------------------------
BANK_RELAYS
  Relative segment, address: CODE 0000039D - 000003A2 (0x6 bytes), align: 0
  Segment part 143.           Intra module refs:   macFSM
           LOCAL                   ADDRESS         
           =====                   =======         
           macFormatBeacon::?relay
                                   0000039D 
    -------------------------------------------------------------------------
BANK_RELAYS
  Relative segment, address: CODE 000003A3 - 000003A8 (0x6 bytes), align: 0
  Segment part 145.           Intra module refs:   macRxFSM
           LOCAL                   ADDRESS         
           =====                   =======         
           macParseBeacon::?relay
                                   000003A3 
    -------------------------------------------------------------------------
BANK_RELAYS
  Relative segment, address: CODE 000003A9 - 000003AE (0x6 bytes), align: 0
  Segment part 155.           Intra module refs:   macFSM
           LOCAL                   ADDRESS         
           =====                   =======         
           macFormatCoordRealign::?relay
                                   000003A9 
    -------------------------------------------------------------------------
BANK_RELAYS
  Relative segment, address: CODE 000003AF - 000003B4 (0x6 bytes), align: 0
  Segment part 167.           Intra module refs:   macFSM
           LOCAL                   ADDRESS         
           =====                   =======         
           macFormatAssociationResponse::?relay
                                   000003AF 
    -------------------------------------------------------------------------
BANK_RELAYS
  Relative segment, address: CODE 000003B5 - 000003BA (0x6 bytes), align: 0
  Segment part 172.           Intra module refs:   macRxFSM
           LOCAL                   ADDRESS         
           =====                   =======         
           macCheckDataRejection::?relay
                                   000003B5 

    *************************************************************************

  FILE NAME : F:\6LoWSN\6lowsn_stack\obj\compiletest\iar51_cc2530\coord\Obj\memalloc.r51
  PROGRAM MODULE, NAME : memalloc

  SEGMENTS IN THE MODULE
  ======================
XDATA_Z
  Relative segment, address: XDATA 000007E8 - 00000FE7 (0x800 bytes), align: 0
  Segment part 7.             Intra module refs:   ?Subroutine3
                                                   MemAlloc
                                                   MemFree
                                                   MemInit
           LOCAL                   ADDRESS         
           =====                   =======         
           mem_heap                000007E8 
    -------------------------------------------------------------------------
<BANKED_CODE> 1 (was BANKED_CODE)
  Relative segment, address: CODE 00007128 - 0000713F (0x18 bytes), align: 0
  Segment part 15.            Intra module refs:   memhdr_get_size::?relay
           ENTRY                   ADDRESS         REF BY
           =====                   =======         ======
           memhdr_get_size         00007128 
               XSTACK = 0000000F ( 00000009 )
    -------------------------------------------------------------------------
<BANKED_CODE> 1 (was BANKED_CODE)
  Relative segment, address: CODE 00007140 - 00007144 (0x5 bytes), align: 0
  Segment part 17.            Intra module refs:   memhdr_get_size
                                                   memhdr_set_size
           LOCAL                   ADDRESS         
           =====                   =======         
           ?Subroutine4            00007140 
    -------------------------------------------------------------------------
<BANKED_CODE> 1 (was BANKED_CODE)
  Relative segment, address: CODE 00007145 - 00007159 (0x15 bytes), align: 0
  Segment part 18.            Intra module refs:   memhdr_set_size::?relay
           ENTRY                   ADDRESS         REF BY
           =====                   =======         ======
           memhdr_set_size         00007145 
               XSTACK = 0000000F ( 00000009 )
               ISTACK = 00000000 ( 00000001 )
    -------------------------------------------------------------------------
<BANKED_CODE> 1 (was BANKED_CODE)
  Relative segment, address: CODE 0000715A - 00007190 (0x37 bytes), align: 0
  Segment part 20.            Intra module refs:   MemInit::?relay
           ENTRY                   ADDRESS         REF BY
           =====                   =======         ======
           MemInit                 0000715A 
               calls direct
               XSTACK = 00000000 ( 0000000C )
    -------------------------------------------------------------------------
<BANKED_CODE> 1 (was BANKED_CODE)
  Relative segment, address: CODE 00007191 - 0000726C (0xdc bytes), align: 0
  Segment part 22.            Intra module refs:   MemAlloc::?relay
           ENTRY                   ADDRESS         REF BY
           =====                   =======         ======
           MemAlloc                00007191 
               calls direct
               XSTACK = 00000000 ( 0000000F )
    -------------------------------------------------------------------------
<BANKED_CODE> 1 (was BANKED_CODE)
  Relative segment, address: CODE 0000726D - 00007341 (0xd5 bytes), align: 0
  Segment part 24.            Intra module refs:   MemFree::?relay
           ENTRY                   ADDRESS         REF BY
           =====                   =======         ======
           MemFree                 0000726D 
               calls direct
               XSTACK = 00000000 ( 0000000F )
    -------------------------------------------------------------------------
<BANKED_CODE> 1 (was BANKED_CODE)
  Relative segment, address: CODE 00007342 - 0000734F (0xe bytes), align: 0
  Segment part 26.            Intra module refs:   MemAlloc
                                                   MemFree
           LOCAL                   ADDRESS         
           =====                   =======         
           ?Subroutine2            00007342 
    -------------------------------------------------------------------------
<BANKED_CODE> 1 (was BANKED_CODE)
  Relative segment, address: CODE 00007350 - 00007353 (0x4 bytes), align: 0
  Segment part 27.            Intra module refs:   MemFree
           LOCAL                   ADDRESS         
           =====                   =======         
           ?Subroutine1            00007350 
    -------------------------------------------------------------------------
<BANKED_CODE> 1 (was BANKED_CODE)
  Relative segment, address: CODE 00007354 - 0000735B (0x8 bytes), align: 0
  Segment part 28.            Intra module refs:   ?Subroutine1
                                                   MemFree
    -------------------------------------------------------------------------
<BANKED_CODE> 1 (was BANKED_CODE)
  Relative segment, address: CODE 0000735C - 00007366 (0xb bytes), align: 0
  Segment part 31.            Intra module refs:   MemAlloc
           LOCAL                   ADDRESS         
           =====                   =======         
           ?Subroutine3            0000735C 
    -------------------------------------------------------------------------
<BANKED_CODE> 1 (was BANKED_CODE)
  Relative segment, address: CODE 00007367 - 00007381 (0x1b bytes), align: 0
  Segment part 32.            Intra module refs:   MemAlloc
           LOCAL                   ADDRESS         
           =====                   =======         
           ?Subroutine0            00007367 
    -------------------------------------------------------------------------
BANK_RELAYS
  Relative segment, address: CODE 000003BB - 000003C0 (0x6 bytes), align: 0
  Segment part 16.            Intra module refs:   ?Subroutine0
                                                   MemAlloc
                                                   MemFree
                                                   Segment part 28
           ENTRY                   ADDRESS         REF BY
           =====                   =======         ======
           memhdr_get_size::?relay
                                   000003BB 
    -------------------------------------------------------------------------
BANK_RELAYS
  Relative segment, address: CODE 000003C1 - 000003C6 (0x6 bytes), align: 0
  Segment part 19.            Intra module refs:   MemAlloc
                                                   MemFree
                                                   MemInit
           ENTRY                   ADDRESS         REF BY
           =====                   =======         ======
           memhdr_set_size::?relay
                                   000003C1 
    -------------------------------------------------------------------------
BANK_RELAYS
  Relative segment, address: CODE 000003C7 - 000003CC (0x6 bytes), align: 0
  Segment part 21.
           ENTRY                   ADDRESS         REF BY
           =====                   =======         ======
           MemInit::?relay         000003C7        phyInit (phy)
    -------------------------------------------------------------------------
BANK_RELAYS
  Relative segment, address: CODE 000003CD - 000003D2 (0x6 bytes), align: 0
  Segment part 23.
           ENTRY                   ADDRESS         REF BY
           =====                   =======         ======
           MemAlloc::?relay        000003CD        hal_rf_Isr (halStack)
    -------------------------------------------------------------------------
BANK_RELAYS
  Relative segment, address: CODE 000003D3 - 000003D8 (0x6 bytes), align: 0
  Segment part 25.
           ENTRY                   ADDRESS         REF BY
           =====                   =======         ======
           MemFree::?relay         000003D3        ?Subroutine12 (nwk)
                                                   ?Subroutine20 (adp)
                                                   Segment part 110 (aps)
                                                   hal_rf_Isr (halStack)
                                                   macFreeRxPacket (mac)

    *************************************************************************

  FILE NAME : F:\6LoWSN\6lowsn_stack\obj\compiletest\iar51_cc2530\coord\Obj\mp.r51
  PROGRAM MODULE, NAME : mp

  SEGMENTS IN THE MODULE
  ======================
XDATA_Z
  Relative segment, address: XDATA 00000FE8 - 00000FFB (0x14 bytes), align: 0
  Segment part 6.             Intra module refs:   mpInit
           ENTRY                   ADDRESS         REF BY
           =====                   =======         ======
           mp_pib                  00000FE8        ?Subroutine14 (aps)
                                                   ?Subroutine19 (aps)
                                                   apsFSM (aps)
                                                   apsRxFSM (aps)
    -------------------------------------------------------------------------
<BANKED_CODE> 1 (was BANKED_CODE)
  Relative segment, address: CODE 000067C7 - 00006812 (0x4c bytes), align: 0
  Segment part 16.            Intra module refs:   mpInit::?relay
           ENTRY                   ADDRESS         REF BY
           =====                   =======         ======
           mpInit                  000067C7 
               calls direct
               XSTACK = 00000000 ( 0000000C )
    -------------------------------------------------------------------------
<BANKED_CODE> 1 (was BANKED_CODE)
  Relative segment, address: CODE 00006813 - 00006817 (0x5 bytes), align: 0
  Segment part 18.            Intra module refs:   mpFmtCurrentVoltageResponsePayload
                                                   mpInit
           LOCAL                   ADDRESS         
           =====                   =======         
           ?Subroutine9            00006813 
    -------------------------------------------------------------------------
<BANKED_CODE> 1 (was BANKED_CODE)
  Relative segment, address: CODE 00006818 - 0000685F (0x48 bytes), align: 0
  Segment part 19.            Intra module refs:   mpHandleRxReport::?relay
           ENTRY                   ADDRESS         REF BY
           =====                   =======         ======
           mpHandleRxReport        00006818 
               calls direct
               ISTACK = 00000000 ( 00000002 )
    -------------------------------------------------------------------------
CODE_C
  Relative segment, address: CODE 000016ED - 00001701 (0x15 bytes), align: 0
  Segment part 8.             Intra module refs:   mpHandleRxReport
           LOCAL                   ADDRESS         
           =====                   =======         
           mpHandleRxReport{1}{2}::xxxxromstr
                                   000016ED 
    -------------------------------------------------------------------------
CODE_C
  Relative segment, address: CODE 00001702 - 00001728 (0x27 bytes), align: 0
  Segment part 9.             Intra module refs:   mpHandleRxReport
           LOCAL                   ADDRESS         
           =====                   =======         
           mpHandleRxReport{1}{3}{7}::xxxxromstr
                                   00001702 
    -------------------------------------------------------------------------
CODE_C
  Relative segment, address: CODE 00001729 - 00001758 (0x30 bytes), align: 0
  Segment part 10.            Intra module refs:   mpHandleRxReport
           LOCAL                   ADDRESS         
           =====                   =======         
           mpHandleRxReport{8}{9}::xxxxromstr
                                   00001729 
    -------------------------------------------------------------------------
<BANKED_CODE> 1 (was BANKED_CODE)
  Relative segment, address: CODE 00006860 - 000068A6 (0x47 bytes), align: 0
  Segment part 26.            Intra module refs:   mpCommonFmt::?relay
           LOCAL                   ADDRESS         
           =====                   =======         
           mpCommonFmt             00006860 
               XSTACK = 00000019 ( 00000000 )
               ISTACK = 00000000 ( 00000002 )
    -------------------------------------------------------------------------
<BANKED_CODE> 1 (was BANKED_CODE)
  Relative segment, address: CODE 000068A7 - 00006902 (0x5c bytes), align: 0
  Segment part 28.            Intra module refs:   mpFmtDeviceInfo::?relay
           ENTRY                   ADDRESS         REF BY
           =====                   =======         ======
           mpFmtDeviceInfo         000068A7 
               calls direct
               XSTACK = 00000010 ( 00000010 )
               ISTACK = 00000000 ( 00000002 )
    -------------------------------------------------------------------------
<BANKED_CODE> 1 (was BANKED_CODE)
  Relative segment, address: CODE 00006903 - 00006991 (0x8f bytes), align: 0
  Segment part 30.            Intra module refs:   mpFmtTreeNeighborInfo::?relay
           ENTRY                   ADDRESS         REF BY
           =====                   =======         ======
           mpFmtTreeNeighborInfo   00006903 
               calls direct
               XSTACK = 00000010 ( 00000019 )
               ISTACK = 00000000 ( 00000001 )
    -------------------------------------------------------------------------
<BANKED_CODE> 1 (was BANKED_CODE)
  Relative segment, address: CODE 00006992 - 00006998 (0x7 bytes), align: 0
  Segment part 32.            Intra module refs:   mpFmtTreeNeighborInfo
           LOCAL                   ADDRESS         
           =====                   =======         
           ?Subroutine6            00006992 
    -------------------------------------------------------------------------
<BANKED_CODE> 1 (was BANKED_CODE)
  Relative segment, address: CODE 00006999 - 000069A1 (0x9 bytes), align: 0
  Segment part 33.            Intra module refs:   ?Subroutine0
                                                   mpFmtTreeNeighborInfo
           LOCAL                   ADDRESS         
           =====                   =======         
           ?Subroutine12           00006999 
    -------------------------------------------------------------------------
<BANKED_CODE> 1 (was BANKED_CODE)
  Relative segment, address: CODE 000069A2 - 000069A9 (0x8 bytes), align: 0
  Segment part 34.            Intra module refs:   mpFmtTreeNeighborInfo
           LOCAL                   ADDRESS         
           =====                   =======         
           ?Subroutine0            000069A2 
    -------------------------------------------------------------------------
<BANKED_CODE> 1 (was BANKED_CODE)
  Relative segment, address: CODE 000069AA - 000069C4 (0x1b bytes), align: 0
  Segment part 35.            Intra module refs:   mpReadCheck::?relay
           ENTRY                   ADDRESS         REF BY
           =====                   =======         ======
           mpReadCheck             000069AA 
               calls direct
               ISTACK = 00000000 ( 00000002 )
    -------------------------------------------------------------------------
<BANKED_CODE> 1 (was BANKED_CODE)
  Relative segment, address: CODE 000069C5 - 000069CB (0x7 bytes), align: 0
  Segment part 37.            Intra module refs:   mpCommonFmt
                                                   mpExecuteCheck
                                                   mpFmtDeviceInfo
                                                   mpFmtReadResponse
                                                   mpHandleRxReport
                                                   mpReadCheck
                                                   mpWriteCheck
           LOCAL                   ADDRESS         
           =====                   =======         
           ?Subroutine10           000069C5 
    -------------------------------------------------------------------------
CODE_C
  Relative segment, address: CODE 00001759 - 00001782 (0x2a bytes), align: 0
  Segment part 11.            Intra module refs:   mpReadCheck
           LOCAL                   ADDRESS         
           =====                   =======         
           mpReadCheck{1}{2}::xxxxromstr
                                   00001759 
    -------------------------------------------------------------------------
<BANKED_CODE> 1 (was BANKED_CODE)
  Relative segment, address: CODE 000069CC - 000069E8 (0x1d bytes), align: 0
  Segment part 38.            Intra module refs:   mpWriteCheck::?relay
           ENTRY                   ADDRESS         REF BY
           =====                   =======         ======
           mpWriteCheck            000069CC 
               calls direct
               ISTACK = 00000000 ( 00000002 )
    -------------------------------------------------------------------------
<BANKED_CODE> 1 (was BANKED_CODE)
  Relative segment, address: CODE 000069E9 - 000069F0 (0x8 bytes), align: 0
  Segment part 40.            Intra module refs:   mpExecuteCheck
                                                   mpFmtReadResponse
                                                   mpHandleRxReport
                                                   mpReadCheck
                                                   mpWriteCheck
           LOCAL                   ADDRESS         
           =====                   =======         
           ?Subroutine7            000069E9 
    -------------------------------------------------------------------------
<BANKED_CODE> 1 (was BANKED_CODE)
  Relative segment, address: CODE 000069F1 - 000069F7 (0x7 bytes), align: 0
  Segment part 41.            Intra module refs:   mpExecuteCheck
                                                   mpReadCheck
                                                   mpWriteCheck
           LOCAL                   ADDRESS         
           =====                   =======         
           ?Subroutine4            000069F1 
    -------------------------------------------------------------------------
CODE_C
  Relative segment, address: CODE 00001783 - 000017AC (0x2a bytes), align: 0
  Segment part 12.            Intra module refs:   mpWriteCheck
           LOCAL                   ADDRESS         
           =====                   =======         
           mpWriteCheck{1}{2}::xxxxromstr
                                   00001783 
    -------------------------------------------------------------------------
<BANKED_CODE> 1 (was BANKED_CODE)
  Relative segment, address: CODE 000069F8 - 00006A14 (0x1d bytes), align: 0
  Segment part 42.            Intra module refs:   mpExecuteCheck::?relay
           ENTRY                   ADDRESS         REF BY
           =====                   =======         ======
           mpExecuteCheck          000069F8 
               calls direct
               ISTACK = 00000000 ( 00000002 )
    -------------------------------------------------------------------------
CODE_C
  Relative segment, address: CODE 000017AD - 000017D6 (0x2a bytes), align: 0
  Segment part 13.            Intra module refs:   mpExecuteCheck
           LOCAL                   ADDRESS         
           =====                   =======         
           mpExecuteCheck{1}{2}::xxxxromstr
                                   000017AD 
    -------------------------------------------------------------------------
<BANKED_CODE> 1 (was BANKED_CODE)
  Relative segment, address: CODE 00006A15 - 00006A48 (0x34 bytes), align: 0
  Segment part 44.            Intra module refs:   mpFmtCurrentVoltageResponsePayload::?relay
           ENTRY                   ADDRESS         REF BY
           =====                   =======         ======
           mpFmtCurrentVoltageResponsePayload
                                   00006A15 
               calls direct
               XSTACK = 00000000 ( 0000000A )
    -------------------------------------------------------------------------
<BANKED_CODE> 1 (was BANKED_CODE)
  Relative segment, address: CODE 00006A49 - 00006AC9 (0x81 bytes), align: 0
  Segment part 46.            Intra module refs:   mpFmtReadResponse::?relay
           ENTRY                   ADDRESS         REF BY
           =====                   =======         ======
           mpFmtReadResponse       00006A49 
               calls direct
               ISTACK = 00000000 ( 00000002 )
    -------------------------------------------------------------------------
<BANKED_CODE> 1 (was BANKED_CODE)
  Relative segment, address: CODE 00006ACA - 00006AD5 (0xc bytes), align: 0
  Segment part 48.            Intra module refs:   ?Subroutine4
                                                   mpFmtReadResponse
           LOCAL                   ADDRESS         
           =====                   =======         
           ?Subroutine8            00006ACA 
    -------------------------------------------------------------------------
<BANKED_CODE> 1 (was BANKED_CODE)
  Relative segment, address: CODE 00006AD6 - 00006AE4 (0xf bytes), align: 0
  Segment part 49.            Intra module refs:   mpCommonFmt
                                                   mpFmtReadResponse
           LOCAL                   ADDRESS         
           =====                   =======         
           ?Subroutine3            00006AD6 
    -------------------------------------------------------------------------
<BANKED_CODE> 1 (was BANKED_CODE)
  Relative segment, address: CODE 00006AE5 - 00006AF3 (0xf bytes), align: 0
  Segment part 50.            Intra module refs:   mpCommonFmt
                                                   mpFmtReadResponse
           LOCAL                   ADDRESS         
           =====                   =======         
           ?Subroutine2            00006AE5 
    -------------------------------------------------------------------------
<BANKED_CODE> 1 (was BANKED_CODE)
  Relative segment, address: CODE 00006AF4 - 00006B02 (0xf bytes), align: 0
  Segment part 51.            Intra module refs:   mpCommonFmt
                                                   mpFmtReadResponse
           LOCAL                   ADDRESS         
           =====                   =======         
           ?Subroutine1            00006AF4 
    -------------------------------------------------------------------------
CODE_C
  Relative segment, address: CODE 000017D7 - 00001815 (0x3f bytes), align: 0
  Segment part 14.            Intra module refs:   mpFmtReadResponse
           LOCAL                   ADDRESS         
           =====                   =======         
           mpFmtReadResponse{1}{3}{4}::xxxxromstr
                                   000017D7 
    -------------------------------------------------------------------------
CODE_C
  Relative segment, address: CODE 00001816 - 00001844 (0x2f bytes), align: 0
  Segment part 15.            Intra module refs:   mpFmtReadResponse
           LOCAL                   ADDRESS         
           =====                   =======         
           mpFmtReadResponse{5}{6}::xxxxromstr
                                   00001816 
    -------------------------------------------------------------------------
<BANKED_CODE> 1 (was BANKED_CODE)
  Relative segment, address: CODE 00006B03 - 00006B05 (0x3 bytes), align: 0
  Segment part 52.            Intra module refs:   mpFmtWriteResponse::?relay
           ENTRY                   ADDRESS         REF BY
           =====                   =======         ======
           mpFmtWriteResponse      00006B03 
    -------------------------------------------------------------------------
<BANKED_CODE> 1 (was BANKED_CODE)
  Relative segment, address: CODE 00006B06 - 00006B08 (0x3 bytes), align: 0
  Segment part 54.            Intra module refs:   mpExcuteMethod::?relay
           ENTRY                   ADDRESS         REF BY
           =====                   =======         ======
           mpExcuteMethod          00006B06 
    -------------------------------------------------------------------------
BANK_RELAYS
  Relative segment, address: CODE 000003D9 - 000003DE (0x6 bytes), align: 0
  Segment part 17.
           ENTRY                   ADDRESS         REF BY
           =====                   =======         ======
           mpInit::?relay          000003D9        apsInit (aps)
    -------------------------------------------------------------------------
BANK_RELAYS
  Relative segment, address: CODE 000003DF - 000003E4 (0x6 bytes), align: 0
  Segment part 20.
           ENTRY                   ADDRESS         REF BY
           =====                   =======         ======
           mpHandleRxReport::?relay
                                   000003DF        apsRxFSM (aps)
    -------------------------------------------------------------------------
BANK_RELAYS
  Relative segment, address: CODE 000003E5 - 000003EA (0x6 bytes), align: 0
  Segment part 27.            Intra module refs:   mpFmtDeviceInfo
                                                   mpFmtTreeNeighborInfo
           LOCAL                   ADDRESS         
           =====                   =======         
           mpCommonFmt::?relay     000003E5 
    -------------------------------------------------------------------------
BANK_RELAYS
  Relative segment, address: CODE 000003EB - 000003F0 (0x6 bytes), align: 0
  Segment part 29.
           ENTRY                   ADDRESS         REF BY
           =====                   =======         ======
           mpFmtDeviceInfo::?relay
                                   000003EB        apsFSM (aps)
    -------------------------------------------------------------------------
BANK_RELAYS
  Relative segment, address: CODE 000003F1 - 000003F6 (0x6 bytes), align: 0
  Segment part 31.
           ENTRY                   ADDRESS         REF BY
           =====                   =======         ======
           mpFmtTreeNeighborInfo::?relay
                                   000003F1        apsFSM (aps)
    -------------------------------------------------------------------------
BANK_RELAYS
  Relative segment, address: CODE 000003F7 - 000003FC (0x6 bytes), align: 0
  Segment part 36.
           ENTRY                   ADDRESS         REF BY
           =====                   =======         ======
           mpReadCheck::?relay     000003F7        apsFSM (aps)
    -------------------------------------------------------------------------
BANK_RELAYS
  Relative segment, address: CODE 000003FD - 00000402 (0x6 bytes), align: 0
  Segment part 39.
           ENTRY                   ADDRESS         REF BY
           =====                   =======         ======
           mpWriteCheck::?relay    000003FD        apsFSM (aps)
    -------------------------------------------------------------------------
BANK_RELAYS
  Relative segment, address: CODE 00000403 - 00000408 (0x6 bytes), align: 0
  Segment part 43.
           ENTRY                   ADDRESS         REF BY
           =====                   =======         ======
           mpExecuteCheck::?relay
                                   00000403        apsFSM (aps)
    -------------------------------------------------------------------------
BANK_RELAYS
  Relative segment, address: CODE 00000409 - 0000040E (0x6 bytes), align: 0
  Segment part 45.            Intra module refs:   mpFmtReadResponse
           ENTRY                   ADDRESS         REF BY
           =====                   =======         ======
           mpFmtCurrentVoltageResponsePayload::?relay
                                   00000409 
    -------------------------------------------------------------------------
BANK_RELAYS
  Relative segment, address: CODE 0000040F - 00000414 (0x6 bytes), align: 0
  Segment part 47.
           ENTRY                   ADDRESS         REF BY
           =====                   =======         ======
           mpFmtReadResponse::?relay
                                   0000040F        apsFSM (aps)
    -------------------------------------------------------------------------
BANK_RELAYS
  Relative segment, address: CODE 00000415 - 0000041A (0x6 bytes), align: 0
  Segment part 53.
           ENTRY                   ADDRESS         REF BY
           =====                   =======         ======
           mpFmtWriteResponse::?relay
                                   00000415        apsFSM (aps)
    -------------------------------------------------------------------------
BANK_RELAYS
  Relative segment, address: CODE 0000041B - 00000420 (0x6 bytes), align: 0
  Segment part 55.
           ENTRY                   ADDRESS         REF BY
           =====                   =======         ======
           mpExcuteMethod::?relay
                                   0000041B        apsFSM (aps)

    *************************************************************************

  FILE NAME : F:\6LoWSN\6lowsn_stack\obj\compiletest\iar51_cc2530\coord\Obj\nd.r51
  PROGRAM MODULE, NAME : nd

  SEGMENTS IN THE MODULE
  ======================
XDATA_Z
  Relative segment, address: XDATA 00000FFC - 00000FFD (0x2 bytes), align: 0
  Segment part 7.             Intra module refs:   ndFmtRA
           LOCAL                   ADDRESS         
           =====                   =======         
           prefix                  00000FFC 
    -------------------------------------------------------------------------
<BANKED_CODE> 1 (was BANKED_CODE)
  Relative segment, address: CODE 00006B09 - 00006BD0 (0xc8 bytes), align: 0
  Segment part 16.            Intra module refs:   ndFmtRS::?relay
           ENTRY                   ADDRESS         REF BY
           =====                   =======         ======
           ndFmtRS                 00006B09 
               calls direct
               XSTACK = 00000000 ( 0000000C )
               ISTACK = 00000000 ( 00000001 )
    -------------------------------------------------------------------------
<BANKED_CODE> 1 (was BANKED_CODE)
  Relative segment, address: CODE 00006BD1 - 00006BD5 (0x5 bytes), align: 0
  Segment part 18.            Intra module refs:   ndFmtRA
                                                   ndFmtRS
           LOCAL                   ADDRESS         
           =====                   =======         
           ?Subroutine15           00006BD1 
    -------------------------------------------------------------------------
CODE_C
  Relative segment, address: CODE 00001845 - 00001854 (0x10 bytes), align: 0
  Segment part 9.             Intra module refs:   ndFmtRS
           LOCAL                   ADDRESS         
           =====                   =======         
           ndFmtRS{1}::xxxxromstr
                                   00001845 
    -------------------------------------------------------------------------
<BANKED_CODE> 1 (was BANKED_CODE)
  Relative segment, address: CODE 00006BD6 - 00006D4C (0x177 bytes), align: 0
  Segment part 19.            Intra module refs:   ndFmtRA::?relay
           ENTRY                   ADDRESS         REF BY
           =====                   =======         ======
           ndFmtRA                 00006BD6 
               calls direct
               XSTACK = 00000000 ( 0000000C )
               ISTACK = 00000000 ( 00000001 )
    -------------------------------------------------------------------------
<BANKED_CODE> 1 (was BANKED_CODE)
  Relative segment, address: CODE 00006D4D - 00006D51 (0x5 bytes), align: 0
  Segment part 21.            Intra module refs:   ?Subroutine13
                                                   ndFmtRA
                                                   ndFmtRS
           LOCAL                   ADDRESS         
           =====                   =======         
           ?Subroutine16           00006D4D 
    -------------------------------------------------------------------------
<BANKED_CODE> 1 (was BANKED_CODE)
  Relative segment, address: CODE 00006D52 - 00006D65 (0x14 bytes), align: 0
  Segment part 22.            Intra module refs:   ndFmtRA
                                                   ndFmtRS
           LOCAL                   ADDRESS         
           =====                   =======         
           ?Subroutine7            00006D52 
    -------------------------------------------------------------------------
<BANKED_CODE> 1 (was BANKED_CODE)
  Relative segment, address: CODE 00006D66 - 00006D77 (0x12 bytes), align: 0
  Segment part 23.            Intra module refs:   ndFmtRA
                                                   ndFmtRS
           LOCAL                   ADDRESS         
           =====                   =======         
           ?Subroutine6            00006D66 
    -------------------------------------------------------------------------
<BANKED_CODE> 1 (was BANKED_CODE)
  Relative segment, address: CODE 00006D78 - 00006DA7 (0x30 bytes), align: 0
  Segment part 24.            Intra module refs:   ndFmtRA
                                                   ndFmtRS
           LOCAL                   ADDRESS         
           =====                   =======         
           ?Subroutine5            00006D78 
    -------------------------------------------------------------------------
<BANKED_CODE> 1 (was BANKED_CODE)
  Relative segment, address: CODE 00006DA8 - 00006DAA (0x3 bytes), align: 0
  Segment part 25.            Intra module refs:   ndFmtRA
           LOCAL                   ADDRESS         
           =====                   =======         
           ?Subroutine4            00006DA8 
    -------------------------------------------------------------------------
<BANKED_CODE> 1 (was BANKED_CODE)
  Relative segment, address: CODE 00006DAB - 00006DAE (0x4 bytes), align: 0
  Segment part 26.            Intra module refs:   ?Subroutine4
                                                   ndFmtRA
    -------------------------------------------------------------------------
<BANKED_CODE> 1 (was BANKED_CODE)
  Relative segment, address: CODE 00006DAF - 00006DBD (0xf bytes), align: 0
  Segment part 27.            Intra module refs:   ndFmtRA
           LOCAL                   ADDRESS         
           =====                   =======         
           ?Subroutine3            00006DAF 
    -------------------------------------------------------------------------
<BANKED_CODE> 1 (was BANKED_CODE)
  Relative segment, address: CODE 00006DBE - 00006DC1 (0x4 bytes), align: 0
  Segment part 28.            Intra module refs:   ndFmtRA
           LOCAL                   ADDRESS         
           =====                   =======         
           ?Subroutine2            00006DBE 
    -------------------------------------------------------------------------
<BANKED_CODE> 1 (was BANKED_CODE)
  Relative segment, address: CODE 00006DC2 - 00006DCE (0xd bytes), align: 0
  Segment part 29.            Intra module refs:   ?Subroutine0
                                                   ?Subroutine2
           LOCAL                   ADDRESS         
           =====                   =======         
           ?Subroutine9            00006DC2 
    -------------------------------------------------------------------------
<BANKED_CODE> 1 (was BANKED_CODE)
  Relative segment, address: CODE 00006DCF - 00006DDB (0xd bytes), align: 0
  Segment part 30.            Intra module refs:   ?Subroutine9
           LOCAL                   ADDRESS         
           =====                   =======         
           ?Subroutine12           00006DCF 
    -------------------------------------------------------------------------
<BANKED_CODE> 1 (was BANKED_CODE)
  Relative segment, address: CODE 00006DDC - 00006DDE (0x3 bytes), align: 0
  Segment part 31.            Intra module refs:   ?Subroutine12
           LOCAL                   ADDRESS         
           =====                   =======         
           ?Subroutine14           00006DDC 
    -------------------------------------------------------------------------
<BANKED_CODE> 1 (was BANKED_CODE)
  Relative segment, address: CODE 00006DDF - 00006DF0 (0x12 bytes), align: 0
  Segment part 32.            Intra module refs:   ?Subroutine13
                                                   ?Subroutine14
                                                   Segment part 39
    -------------------------------------------------------------------------
<BANKED_CODE> 1 (was BANKED_CODE)
  Relative segment, address: CODE 00006DF1 - 00006DF7 (0x7 bytes), align: 0
  Segment part 33.            Intra module refs:   ndFmtRA
           LOCAL                   ADDRESS         
           =====                   =======         
           ?Subroutine1            00006DF1 
    -------------------------------------------------------------------------
<BANKED_CODE> 1 (was BANKED_CODE)
  Relative segment, address: CODE 00006DF8 - 00006DFE (0x7 bytes), align: 0
  Segment part 34.            Intra module refs:   ?Subroutine1
           LOCAL                   ADDRESS         
           =====                   =======         
           ?Subroutine10           00006DF8 
    -------------------------------------------------------------------------
<BANKED_CODE> 1 (was BANKED_CODE)
  Relative segment, address: CODE 00006DFF - 00006E0A (0xc bytes), align: 0
  Segment part 35.            Intra module refs:   ?Subroutine10
           LOCAL                   ADDRESS         
           =====                   =======         
           ?Subroutine13           00006DFF 
    -------------------------------------------------------------------------
<BANKED_CODE> 1 (was BANKED_CODE)
  Relative segment, address: CODE 00006E0B - 00006E14 (0xa bytes), align: 0
  Segment part 36.            Intra module refs:   ndFmtRA
           LOCAL                   ADDRESS         
           =====                   =======         
           ?Subroutine0            00006E0B 
    -------------------------------------------------------------------------
<BANKED_CODE> 1 (was BANKED_CODE)
  Relative segment, address: CODE 00006E15 - 00006E15 (0x1 bytes), align: 0
  Segment part 37.            Intra module refs:   ?Subroutine0
           LOCAL                   ADDRESS         
           =====                   =======         
           ?Subroutine11           00006E15 
    -------------------------------------------------------------------------
<BANKED_CODE> 1 (was BANKED_CODE)
  Relative segment, address: CODE 00006E16 - 00006E1D (0x8 bytes), align: 0
  Segment part 38.            Intra module refs:   ?Subroutine11
                                                   ?Subroutine3
    -------------------------------------------------------------------------
<BANKED_CODE> 1 (was BANKED_CODE)
  Relative segment, address: CODE 00006E1E - 00006E21 (0x4 bytes), align: 0
  Segment part 39.            Intra module refs:   Segment part 26
                                                   Segment part 38
    -------------------------------------------------------------------------
CODE_C
  Relative segment, address: CODE 00001855 - 00001864 (0x10 bytes), align: 0
  Segment part 10.            Intra module refs:   ndFmtRA
           LOCAL                   ADDRESS         
           =====                   =======         
           ndFmtRA{1}::xxxxromstr
                                   00001855 
    -------------------------------------------------------------------------
BANK_RELAYS
  Relative segment, address: CODE 00000421 - 00000426 (0x6 bytes), align: 0
  Segment part 17.
           ENTRY                   ADDRESS         REF BY
           =====                   =======         ======
           ndFmtRS::?relay         00000421        nwkFSM (nwk)
    -------------------------------------------------------------------------
BANK_RELAYS
  Relative segment, address: CODE 00000427 - 0000042C (0x6 bytes), align: 0
  Segment part 20.
           ENTRY                   ADDRESS         REF BY
           =====                   =======         ======
           ndFmtRA::?relay         00000427        nwkFSM (nwk)

    *************************************************************************

  FILE NAME : F:\6LoWSN\6lowsn_stack\obj\compiletest\iar51_cc2530\coord\Obj\neighbor.r51
  PROGRAM MODULE, NAME : neighbor

  SEGMENTS IN THE MODULE
  ======================
XDATA_Z
  Relative segment, address: XDATA 00000FFE - 00001041 (0x44 bytes), align: 0
  Segment part 6.             Intra module refs:   ntAddNeighbor
                                                   ntFindByLADDR
                                                   ntFindBySADDR
                                                   ntFindNewDst
                                                   ntInitTable
           ENTRY                   ADDRESS         REF BY
           =====                   =======         ======
           mac_nbr_tbl             00000FFE        dbgPrintNeighborTable (debug)
    -------------------------------------------------------------------------
<BANKED_CODE> 1 (was BANKED_CODE)
  Relative segment, address: CODE 000062A9 - 000062BE (0x16 bytes), align: 0
  Segment part 7.             Intra module refs:   ntInitAddressMap::?relay
           ENTRY                   ADDRESS         REF BY
           =====                   =======         ======
           ntInitAddressMap        000062A9 
               ISTACK = 00000000 ( 00000002 )
    -------------------------------------------------------------------------
<BANKED_CODE> 1 (was BANKED_CODE)
  Relative segment, address: CODE 000062BF - 000062C5 (0x7 bytes), align: 0
  Segment part 9.             Intra module refs:   ntGetCskip
                                                   ntInitAddressMap
                                                   ntInitTable
           LOCAL                   ADDRESS         
           =====                   =======         
           ?Subroutine13           000062BF 
    -------------------------------------------------------------------------
<BANKED_CODE> 1 (was BANKED_CODE)
  Relative segment, address: CODE 000062C6 - 000062F0 (0x2b bytes), align: 0
  Segment part 12.            Intra module refs:   ntAddOurselvesToAddressTable::?relay
           ENTRY                   ADDRESS         REF BY
           =====                   =======         ======
           ntAddOurselvesToAddressTable
                                   000062C6 
               calls direct
               XSTACK = 00000000 ( 00000011 )
    -------------------------------------------------------------------------
<BANKED_CODE> 1 (was BANKED_CODE)
  Relative segment, address: CODE 000062F1 - 000062F5 (0x5 bytes), align: 0
  Segment part 14.            Intra module refs:   ntAddOurselvesToAddressTable
                                                   ntFindBySADDR
           LOCAL                   ADDRESS         
           =====                   =======         
           ?Subroutine15           000062F1 
    -------------------------------------------------------------------------
<BANKED_CODE> 1 (was BANKED_CODE)
  Relative segment, address: CODE 000062F6 - 00006379 (0x84 bytes), align: 0
  Segment part 17.            Intra module refs:   ntCheckAddressMapEntry::?relay
           ENTRY                   ADDRESS         REF BY
           =====                   =======         ======
           ntCheckAddressMapEntry
                                   000062F6 
               XSTACK = 0000000F ( 0000000E )
               ISTACK = 00000000 ( 00000001 )
    -------------------------------------------------------------------------
<BANKED_CODE> 1 (was BANKED_CODE)
  Relative segment, address: CODE 0000637A - 0000637E (0x5 bytes), align: 0
  Segment part 19.            Intra module refs:   ntCheckAddressMapEntry
                                                   ntFindNewDst
           LOCAL                   ADDRESS         
           =====                   =======         
           ?Subroutine16           0000637A 
    -------------------------------------------------------------------------
<BANKED_CODE> 1 (was BANKED_CODE)
  Relative segment, address: CODE 0000637F - 0000638C (0xe bytes), align: 0
  Segment part 20.            Intra module refs:   ntCheckAddressMapEntry
           LOCAL                   ADDRESS         
           =====                   =======         
           ?Subroutine7            0000637F 
    -------------------------------------------------------------------------
<BANKED_CODE> 1 (was BANKED_CODE)
  Relative segment, address: CODE 0000638D - 0000639C (0x10 bytes), align: 0
  Segment part 21.            Intra module refs:   ntCheckAddressMapEntry
           LOCAL                   ADDRESS         
           =====                   =======         
           ?Subroutine0            0000638D 
    -------------------------------------------------------------------------
<BANKED_CODE> 1 (was BANKED_CODE)
  Relative segment, address: CODE 0000639D - 00006436 (0x9a bytes), align: 0
  Segment part 22.            Intra module refs:   ntNewAddressMapEntry::?relay
           ENTRY                   ADDRESS         REF BY
           =====                   =======         ======
           ntNewAddressMapEntry    0000639D 
               calls direct
               XSTACK = 00000011 ( 0000000F )
               ISTACK = 00000000 ( 00000001 )
    -------------------------------------------------------------------------
<BANKED_CODE> 1 (was BANKED_CODE)
  Relative segment, address: CODE 00006437 - 00006465 (0x2f bytes), align: 0
  Segment part 24.            Intra module refs:   ntGetCskip::?relay
           ENTRY                   ADDRESS         REF BY
           =====                   =======         ======
           ntGetCskip              00006437 
               XSTACK = 0000000C ( 00000000 )
               ISTACK = 00000000 ( 00000002 )
    -------------------------------------------------------------------------
<BANKED_CODE> 1 (was BANKED_CODE)
  Relative segment, address: CODE 00006466 - 00006483 (0x1e bytes), align: 0
  Segment part 26.            Intra module refs:   ntGetMaxSADDR::?relay
           ENTRY                   ADDRESS         REF BY
           =====                   =======         ======
           ntGetMaxSADDR           00006466 
               calls direct
               XSTACK = 0000000E ( 0000000A )
    -------------------------------------------------------------------------
<BANKED_CODE> 1 (was BANKED_CODE)
  Relative segment, address: CODE 00006484 - 00006488 (0x5 bytes), align: 0
  Segment part 28.            Intra module refs:   ntGetMaxSADDR
                                                   ntInitAddressAssignment
           LOCAL                   ADDRESS         
           =====                   =======         
           ?Subroutine17           00006484 
    -------------------------------------------------------------------------
<BANKED_CODE> 1 (was BANKED_CODE)
  Relative segment, address: CODE 00006489 - 000064C8 (0x40 bytes), align: 0
  Segment part 29.            Intra module refs:   ntFindBySADDR::?relay
           ENTRY                   ADDRESS         REF BY
           =====                   =======         ======
           ntFindBySADDR           00006489 
               XSTACK = 00000000 ( 00000009 )
    -------------------------------------------------------------------------
<BANKED_CODE> 1 (was BANKED_CODE)
  Relative segment, address: CODE 000064C9 - 000064C9 (0x1 bytes), align: 0
  Segment part 31.            Intra module refs:   ntFindBySADDR
                                                   ntFindNewDst
                                                   ntNewAddressMapEntry
           LOCAL                   ADDRESS         
           =====                   =======         
           ?Subroutine4            000064C9 
    -------------------------------------------------------------------------
<BANKED_CODE> 1 (was BANKED_CODE)
  Relative segment, address: CODE 000064CA - 000064D1 (0x8 bytes), align: 0
  Segment part 32.            Intra module refs:   ?Subroutine4
                                                   ntInitAddressMap
    -------------------------------------------------------------------------
<BANKED_CODE> 1 (was BANKED_CODE)
  Relative segment, address: CODE 000064D2 - 000064DC (0xb bytes), align: 0
  Segment part 33.            Intra module refs:   Segment part 32
                                                   Segment part 50
           LOCAL                   ADDRESS         
           =====                   =======         
           ?Subroutine12           000064D2 
    -------------------------------------------------------------------------
<BANKED_CODE> 1 (was BANKED_CODE)
  Relative segment, address: CODE 000064DD - 00006551 (0x75 bytes), align: 0
  Segment part 34.            Intra module refs:   ntFindByLADDR::?relay
           ENTRY                   ADDRESS         REF BY
           =====                   =======         ======
           ntFindByLADDR           000064DD 
               XSTACK = 00000000 ( 0000000C )
    -------------------------------------------------------------------------
<BANKED_CODE> 1 (was BANKED_CODE)
  Relative segment, address: CODE 00006552 - 00006556 (0x5 bytes), align: 0
  Segment part 36.            Intra module refs:   ntAddNeighbor
                                                   ntFindByLADDR
                                                   ntNewAddressMapEntry
           LOCAL                   ADDRESS         
           =====                   =======         
           ?Subroutine14           00006552 
    -------------------------------------------------------------------------
<BANKED_CODE> 1 (was BANKED_CODE)
  Relative segment, address: CODE 00006557 - 0000657A (0x24 bytes), align: 0
  Segment part 37.            Intra module refs:   ntInitTable::?relay
           ENTRY                   ADDRESS         REF BY
           =====                   =======         ======
           ntInitTable             00006557 
               calls direct
               ISTACK = 00000000 ( 00000003 )
    -------------------------------------------------------------------------
<BANKED_CODE> 1 (was BANKED_CODE)
  Relative segment, address: CODE 0000657B - 000065CE (0x54 bytes), align: 0
  Segment part 39.            Intra module refs:   ntInitAddressAssignment::?relay
           ENTRY                   ADDRESS         REF BY
           =====                   =======         ======
           ntInitAddressAssignment
                                   0000657B 
               calls direct
               XSTACK = 00000000 ( 0000000A )
               ISTACK = 00000000 ( 00000002 )
    -------------------------------------------------------------------------
<BANKED_CODE> 1 (was BANKED_CODE)
  Relative segment, address: CODE 000065CF - 000065DA (0xc bytes), align: 0
  Segment part 41.            Intra module refs:   ntGetMaxSADDR
                                                   ntInitAddressAssignment
           LOCAL                   ADDRESS         
           =====                   =======         
           ?Subroutine8            000065CF 
    -------------------------------------------------------------------------
<BANKED_CODE> 1 (was BANKED_CODE)
  Relative segment, address: CODE 000065DB - 000066D4 (0xfa bytes), align: 0
  Segment part 42.            Intra module refs:   ntAddNeighbor::?relay
           ENTRY                   ADDRESS         REF BY
           =====                   =======         ======
           ntAddNeighbor           000065DB 
               calls direct
               XSTACK = 00000000 ( 0000000C )
               ISTACK = 00000000 ( 00000001 )
    -------------------------------------------------------------------------
<BANKED_CODE> 1 (was BANKED_CODE)
  Relative segment, address: CODE 000066D5 - 000066E3 (0xf bytes), align: 0
  Segment part 44.            Intra module refs:   ntAddNeighbor
           LOCAL                   ADDRESS         
           =====                   =======         
           ?Subroutine6            000066D5 
    -------------------------------------------------------------------------
<BANKED_CODE> 1 (was BANKED_CODE)
  Relative segment, address: CODE 000066E4 - 000066E8 (0x5 bytes), align: 0
  Segment part 45.            Intra module refs:   ntAddNeighbor
           LOCAL                   ADDRESS         
           =====                   =======         
           ?Subroutine5            000066E4 
    -------------------------------------------------------------------------
<BANKED_CODE> 1 (was BANKED_CODE)
  Relative segment, address: CODE 000066E9 - 000066EC (0x4 bytes), align: 0
  Segment part 46.            Intra module refs:   ?Subroutine5
                                                   ntFindNewDst
           LOCAL                   ADDRESS         
           =====                   =======         
           ?Subroutine9            000066E9 
    -------------------------------------------------------------------------
<BANKED_CODE> 1 (was BANKED_CODE)
  Relative segment, address: CODE 000066ED - 000066F2 (0x6 bytes), align: 0
  Segment part 47.            Intra module refs:   ?Subroutine2
                                                   ?Subroutine9
                                                   ntFindByLADDR
                                                   ntNewAddressMapEntry
    -------------------------------------------------------------------------
<BANKED_CODE> 1 (was BANKED_CODE)
  Relative segment, address: CODE 000066F3 - 000066F8 (0x6 bytes), align: 0
  Segment part 48.            Intra module refs:   ntAddNeighbor
                                                   ntNewAddressMapEntry
           LOCAL                   ADDRESS         
           =====                   =======         
           ?Subroutine3            000066F3 
    -------------------------------------------------------------------------
<BANKED_CODE> 1 (was BANKED_CODE)
  Relative segment, address: CODE 000066F9 - 000066FC (0x4 bytes), align: 0
  Segment part 49.            Intra module refs:   ?Subroutine1
                                                   ?Subroutine3
           LOCAL                   ADDRESS         
           =====                   =======         
           ?Subroutine10           000066F9 
    -------------------------------------------------------------------------
<BANKED_CODE> 1 (was BANKED_CODE)
  Relative segment, address: CODE 000066FD - 00006701 (0x5 bytes), align: 0
  Segment part 50.            Intra module refs:   ?Subroutine10
                                                   ?Subroutine2
    -------------------------------------------------------------------------
<BANKED_CODE> 1 (was BANKED_CODE)
  Relative segment, address: CODE 00006702 - 0000670C (0xb bytes), align: 0
  Segment part 51.            Intra module refs:   ntAddNeighbor
                                                   ntNewAddressMapEntry
           LOCAL                   ADDRESS         
           =====                   =======         
           ?Subroutine2            00006702 
    -------------------------------------------------------------------------
<BANKED_CODE> 1 (was BANKED_CODE)
  Relative segment, address: CODE 0000670D - 000067B4 (0xa8 bytes), align: 0
  Segment part 52.            Intra module refs:   ntFindNewDst::?relay
           ENTRY                   ADDRESS         REF BY
           =====                   =======         ======
           ntFindNewDst            0000670D 
               calls direct
               XSTACK = 00000000 ( 0000000E )
    -------------------------------------------------------------------------
<BANKED_CODE> 1 (was BANKED_CODE)
  Relative segment, address: CODE 000067B5 - 000067BE (0xa bytes), align: 0
  Segment part 54.            Intra module refs:   ?Subroutine0
                                                   ntFindNewDst
           LOCAL                   ADDRESS         
           =====                   =======         
           ?Subroutine11           000067B5 
    -------------------------------------------------------------------------
<BANKED_CODE> 1 (was BANKED_CODE)
  Relative segment, address: CODE 000067BF - 000067C6 (0x8 bytes), align: 0
  Segment part 55.            Intra module refs:   ntFindNewDst
           LOCAL                   ADDRESS         
           =====                   =======         
           ?Subroutine1            000067BF 
    -------------------------------------------------------------------------
BANK_RELAYS
  Relative segment, address: CODE 0000042D - 00000432 (0x6 bytes), align: 0
  Segment part 8.             Intra module refs:   ntInitTable
           ENTRY                   ADDRESS         REF BY
           =====                   =======         ======
           ntInitAddressMap::?relay
                                   0000042D        macInit (mac)
    -------------------------------------------------------------------------
BANK_RELAYS
  Relative segment, address: CODE 00000433 - 00000438 (0x6 bytes), align: 0
  Segment part 13.
           ENTRY                   ADDRESS         REF BY
           =====                   =======         ======
           ntAddOurselvesToAddressTable::?relay
                                   00000433        macSetShortAddr (mac)
    -------------------------------------------------------------------------
BANK_RELAYS
  Relative segment, address: CODE 00000439 - 0000043E (0x6 bytes), align: 0
  Segment part 18.            Intra module refs:   ntNewAddressMapEntry
           ENTRY                   ADDRESS         REF BY
           =====                   =======         ======
           ntCheckAddressMapEntry::?relay
                                   00000439 
    -------------------------------------------------------------------------
BANK_RELAYS
  Relative segment, address: CODE 0000043F - 00000444 (0x6 bytes), align: 0
  Segment part 23.            Intra module refs:   ntAddOurselvesToAddressTable
           ENTRY                   ADDRESS         REF BY
           =====                   =======         ======
           ntNewAddressMapEntry::?relay
                                   0000043F 
    -------------------------------------------------------------------------
BANK_RELAYS
  Relative segment, address: CODE 00000445 - 0000044A (0x6 bytes), align: 0
  Segment part 25.            Intra module refs:   ?Subroutine8
                                                   ntAddNeighbor
           ENTRY                   ADDRESS         REF BY
           =====                   =======         ======
           ntGetCskip::?relay      00000445 
    -------------------------------------------------------------------------
BANK_RELAYS
  Relative segment, address: CODE 0000044B - 00000450 (0x6 bytes), align: 0
  Segment part 27.            Intra module refs:   ntFindNewDst
           ENTRY                   ADDRESS         REF BY
           =====                   =======         ======
           ntGetMaxSADDR::?relay   0000044B 
    -------------------------------------------------------------------------
BANK_RELAYS
  Relative segment, address: CODE 00000451 - 00000456 (0x6 bytes), align: 0
  Segment part 30.
           ENTRY                   ADDRESS         REF BY
           =====                   =======         ======
           ntFindBySADDR::?relay   00000451        macCheckDataRejection (mac)
    -------------------------------------------------------------------------
BANK_RELAYS
  Relative segment, address: CODE 00000457 - 0000045C (0x6 bytes), align: 0
  Segment part 35.
           ENTRY                   ADDRESS         REF BY
           =====                   =======         ======
           ntFindByLADDR::?relay   00000457        macCheckDataRejection (mac)
                                                   macFSM (mac)
                                                   macFormatAssociationResponse (mac)
    -------------------------------------------------------------------------
BANK_RELAYS
  Relative segment, address: CODE 0000045D - 00000462 (0x6 bytes), align: 0
  Segment part 38.
           ENTRY                   ADDRESS         REF BY
           =====                   =======         ======
           ntInitTable::?relay     0000045D        ?Subroutine34 (adp)
    -------------------------------------------------------------------------
BANK_RELAYS
  Relative segment, address: CODE 00000463 - 00000468 (0x6 bytes), align: 0
  Segment part 40.
           ENTRY                   ADDRESS         REF BY
           =====                   =======         ======
           ntInitAddressAssignment::?relay
                                   00000463        adpFSM (adp)
    -------------------------------------------------------------------------
BANK_RELAYS
  Relative segment, address: CODE 00000469 - 0000046E (0x6 bytes), align: 0
  Segment part 43.
           ENTRY                   ADDRESS         REF BY
           =====                   =======         ======
           ntAddNeighbor::?relay   00000469        macFormatAssociationResponse (mac)
    -------------------------------------------------------------------------
BANK_RELAYS
  Relative segment, address: CODE 0000046F - 00000474 (0x6 bytes), align: 0
  Segment part 53.
           ENTRY                   ADDRESS         REF BY
           =====                   =======         ======
           ntFindNewDst::?relay    0000046F        adpTxData (adp)

    *************************************************************************

  FILE NAME : F:\6LoWSN\6lowsn_stack\obj\compiletest\iar51_cc2530\coord\Obj\nwk.r51
  PROGRAM MODULE, NAME : nwk

  SEGMENTS IN THE MODULE
  ======================
XDATA_Z
  Relative segment, address: XDATA 00001042 - 00001045 (0x4 bytes), align: 0
  Segment part 6.             Intra module refs:   ?Subroutine19
           LOCAL                   ADDRESS         
           =====                   =======         
           nwk_utility_timer       00001042 
    -------------------------------------------------------------------------
XDATA_Z
  Relative segment, address: XDATA 00001046 - 00001047 (0x2 bytes), align: 0
  Segment part 8.             Intra module refs:   nwkFSM
                                                   nwkRxFSM
                                                   nwkTxData
           ENTRY                   ADDRESS         REF BY
           =====                   =======         ======
           lowsn_len               00001046        icmpFmtEchoReply (icmpv6)
                                                   icmpFmtEchoRequest (icmpv6)
    -------------------------------------------------------------------------
XDATA_Z
  Relative segment, address: XDATA 00001048 - 00001048 (0x1 bytes), align: 0
  Segment part 14.            Intra module refs:   nwkFSM
                                                   nwkInit
           ENTRY                   ADDRESS         REF BY
           =====                   =======         ======
           nwkState                00001048        ?Subroutine25 (aps)
                                                   apsFSM (aps)
                                                   apsTxFSM (aps)
    -------------------------------------------------------------------------
XDATA_Z
  Relative segment, address: XDATA 00001049 - 00001049 (0x1 bytes), align: 0
  Segment part 15.            Intra module refs:   nwkInit
                                                   nwkRxBusy
                                                   nwkRxFSM
                                                   nwkRxHandoff
           ENTRY                   ADDRESS         REF BY
           =====                   =======         ======
           nwkRxState              00001049 
    -------------------------------------------------------------------------
XDATA_Z
  Relative segment, address: XDATA 0000104A - 0000105D (0x14 bytes), align: 0
  Segment part 16.            Intra module refs:   ?Subroutine1
                                                   nwkFSM
           ENTRY                   ADDRESS         REF BY
           =====                   =======         ======
           a_nwk_service           0000104A        ?Subroutine25 (aps)
                                                   apsFSM (aps)
                                                   apsTxData (aps)
                                                   apsTxFSM (aps)
                                                   icmpFmtEchoRequest (icmpv6)
                                                   main (test_demo)
    -------------------------------------------------------------------------
XDATA_Z
  Relative segment, address: XDATA 0000105E - 00001065 (0x8 bytes), align: 0
  Segment part 17.            Intra module refs:   ?Subroutine18
                                                   ?Subroutine9
                                                   nwkFSM
                                                   nwkInit
                                                   nwkRxFSM
           ENTRY                   ADDRESS         REF BY
           =====                   =======         ======
           nwk_pib                 0000105E        icmpFmtEchoRequest (icmpv6)
                                                   icmpParseEchoReply (icmpv6)
    -------------------------------------------------------------------------
XDATA_Z
  Relative segment, address: XDATA 00001066 - 000010A0 (0x3b bytes), align: 0
  Segment part 18.            Intra module refs:   ?Subroutine3
                                                   ?Subroutine5
                                                   nwkFSM
                                                   nwkFindDstDLLAddr
                                                   nwkTxData
           ENTRY                   ADDRESS         REF BY
           =====                   =======         ======
           a_nwk_tx_data           00001066        ?Subroutine5 (nd)
                                                   ?Subroutine6 (nd)
                                                   ?Subroutine7 (nd)
                                                   apsTxData (aps)
                                                   icmpCommonFmt (icmpv6)
                                                   ndFmtRA (nd)
                                                   ndFmtRS (nd)
    -------------------------------------------------------------------------
XDATA_Z
  Relative segment, address: XDATA 000010A1 - 000010D3 (0x33 bytes), align: 0
  Segment part 19.            Intra module refs:   ?Subroutine12
                                                   ?Subroutine23
                                                   ?Subroutine24
                                                   ?Subroutine7
                                                   nwkFSM
                                                   nwkParseHdr
                                                   nwkRxFSM
                                                   nwkRxHandoff
           ENTRY                   ADDRESS         REF BY
           =====                   =======         ======
           a_nwk_rx_data           000010A1        ?Subroutine3 (icmpv6)
                                                   apsRxHandoff (aps)
                                                   icmpFmtEchoReply (icmpv6)
                                                   ndFmtRA (nd)
    -------------------------------------------------------------------------
XDATA_Z
  Relative segment, address: XDATA 000010D4 - 000010D9 (0x6 bytes), align: 0
  Segment part 20.
           ENTRY                   ADDRESS         REF BY
           =====                   =======         ======
           pmtu                    000010D4        ds6Init (ds)
    -------------------------------------------------------------------------
XDATA_Z
  Relative segment, address: XDATA 000010DA - 000010DB (0x2 bytes), align: 0
  Segment part 21.            Intra module refs:   nwkRxFSM
           ENTRY                   ADDRESS         REF BY
           =====                   =======         ======
           lowsn_next_hdr          000010DA 
    -------------------------------------------------------------------------
XDATA_Z
  Relative segment, address: XDATA 000010DC - 000010DC (0x1 bytes), align: 0
  Segment part 22.            Intra module refs:   nwkRxFSM
           ENTRY                   ADDRESS         REF BY
           =====                   =======         ======
           lowsn_ext_bitmap        000010DC 
    -------------------------------------------------------------------------
XDATA_Z
  Relative segment, address: XDATA 000010DD - 000010DD (0x1 bytes), align: 0
  Segment part 23.            Intra module refs:   nwkRxFSM
                                                   upper_layer_chksum
           ENTRY                   ADDRESS         REF BY
           =====                   =======         ======
           lowsn_ext_len           000010DD 
    -------------------------------------------------------------------------
<BANKED_CODE> 1 (was BANKED_CODE)
  Relative segment, address: CODE 000031FF - 00003273 (0x75 bytes), align: 0
  Segment part 63.            Intra module refs:   chksum::?relay
           LOCAL                   ADDRESS         
           =====                   =======         
           chksum                  000031FF 
               XSTACK = 0000000E ( 0000000A )
    -------------------------------------------------------------------------
<BANKED_CODE> 1 (was BANKED_CODE)
  Relative segment, address: CODE 00003274 - 00003278 (0x5 bytes), align: 0
  Segment part 65.            Intra module refs:   chksum
                                                   nwkRxFSM
           LOCAL                   ADDRESS         
           =====                   =======         
           ?Subroutine27           00003274 
    -------------------------------------------------------------------------
<BANKED_CODE> 1 (was BANKED_CODE)
  Relative segment, address: CODE 00003279 - 0000327E (0x6 bytes), align: 0
  Segment part 69.            Intra module refs:   upper_layer_chksum
    -------------------------------------------------------------------------
<BANKED_CODE> 1 (was BANKED_CODE)
  Relative segment, address: CODE 0000327F - 000032EC (0x6e bytes), align: 0
  Segment part 72.            Intra module refs:   upper_layer_chksum::?relay
           LOCAL                   ADDRESS         
           =====                   =======         
           upper_layer_chksum      0000327F 
               calls direct
               XSTACK = 00000000 ( 0000000E )
    -------------------------------------------------------------------------
<BANKED_CODE> 1 (was BANKED_CODE)
  Relative segment, address: CODE 000032ED - 000032F4 (0x8 bytes), align: 0
  Segment part 74.            Intra module refs:   lowsn_icmp6chksum::?relay
           ENTRY                   ADDRESS         REF BY
           =====                   =======         ======
           lowsn_icmp6chksum       000032ED 
               calls direct
               XSTACK = 0000000C ( 00000000 )
               ISTACK = 00000000 ( 00000002 )
    -------------------------------------------------------------------------
<BANKED_CODE> 1 (was BANKED_CODE)
  Relative segment, address: CODE 000032F5 - 000032FC (0x8 bytes), align: 0
  Segment part 78.            Intra module refs:   lowsn_udpchksum::?relay
           ENTRY                   ADDRESS         REF BY
           =====                   =======         ======
           lowsn_udpchksum         000032F5 
               calls direct
               XSTACK = 0000000C ( 00000000 )
               ISTACK = 00000000 ( 00000002 )
    -------------------------------------------------------------------------
<BANKED_CODE> 1 (was BANKED_CODE)
  Relative segment, address: CODE 000032FD - 00003314 (0x18 bytes), align: 0
  Segment part 80.            Intra module refs:   nwkInit::?relay
           ENTRY                   ADDRESS         REF BY
           =====                   =======         ======
           nwkInit                 000032FD 
               calls direct
               ISTACK = 00000000 ( 00000002 )
    -------------------------------------------------------------------------
<BANKED_CODE> 1 (was BANKED_CODE)
  Relative segment, address: CODE 00003315 - 00003317 (0x3 bytes), align: 0
  Segment part 82.            Intra module refs:   lowsn_icmp6chksum
                                                   lowsn_udpchksum
           LOCAL                   ADDRESS         
           =====                   =======         
           ?Subroutine31           00003315 
    -------------------------------------------------------------------------
<BANKED_CODE> 1 (was BANKED_CODE)
  Relative segment, address: CODE 00003318 - 0000331E (0x7 bytes), align: 0
  Segment part 83.            Intra module refs:   ?Subroutine31
                                                   nwkFindDstDLLAddr
                                                   nwkInit
                                                   nwkRxBusy
    -------------------------------------------------------------------------
<BANKED_CODE> 1 (was BANKED_CODE)
  Relative segment, address: CODE 0000331F - 000035E0 (0x2c2 bytes), align: 0
  Segment part 84.            Intra module refs:   nwkFSM::?relay
           ENTRY                   ADDRESS         REF BY
           =====                   =======         ======
           nwkFSM                  0000331F 
               calls direct
               XSTACK = 00000000 ( 00000010 )
    -------------------------------------------------------------------------
<BANKED_CODE> 1 (was BANKED_CODE)
  Relative segment, address: CODE 000035E1 - 000035E3 (0x3 bytes), align: 0
  Segment part 86.            Intra module refs:   nwkFSM
           LOCAL                   ADDRESS         
           =====                   =======         
           ?Subroutine20           000035E1 
    -------------------------------------------------------------------------
<BANKED_CODE> 1 (was BANKED_CODE)
  Relative segment, address: CODE 000035E4 - 000035E9 (0x6 bytes), align: 0
  Segment part 87.            Intra module refs:   ?Subroutine13
                                                   ?Subroutine20
           LOCAL                   ADDRESS         
           =====                   =======         
           ?Subroutine29           000035E4 
    -------------------------------------------------------------------------
<BANKED_CODE> 1 (was BANKED_CODE)
  Relative segment, address: CODE 000035EA - 000035FA (0x11 bytes), align: 0
  Segment part 88.            Intra module refs:   nwkFSM
           LOCAL                   ADDRESS         
           =====                   =======         
           ?Subroutine19           000035EA 
    -------------------------------------------------------------------------
<BANKED_CODE> 1 (was BANKED_CODE)
  Relative segment, address: CODE 000035FB - 00003600 (0x6 bytes), align: 0
  Segment part 89.            Intra module refs:   nwkFSM
           LOCAL                   ADDRESS         
           =====                   =======         
           ?Subroutine13           000035FB 
    -------------------------------------------------------------------------
<BANKED_CODE> 1 (was BANKED_CODE)
  Relative segment, address: CODE 00003601 - 0000360F (0xf bytes), align: 0
  Segment part 90.            Intra module refs:   nwkFSM
           LOCAL                   ADDRESS         
           =====                   =======         
           ?Subroutine10           00003601 
    -------------------------------------------------------------------------
<BANKED_CODE> 1 (was BANKED_CODE)
  Relative segment, address: CODE 00003610 - 0000361B (0xc bytes), align: 0
  Segment part 91.            Intra module refs:   nwkFSM
           LOCAL                   ADDRESS         
           =====                   =======         
           ?Subroutine9            00003610 
    -------------------------------------------------------------------------
<BANKED_CODE> 1 (was BANKED_CODE)
  Relative segment, address: CODE 0000361C - 0000361E (0x3 bytes), align: 0
  Segment part 92.            Intra module refs:   nwkFSM
           LOCAL                   ADDRESS         
           =====                   =======         
           ?Subroutine1            0000361C 
    -------------------------------------------------------------------------
<BANKED_CODE> 1 (was BANKED_CODE)
  Relative segment, address: CODE 0000361F - 0000361F (0x1 bytes), align: 0
  Segment part 93.            Intra module refs:   ?Subroutine1
                                                   nwkFindDstDLLAddr
    -------------------------------------------------------------------------
<BANKED_CODE> 1 (was BANKED_CODE)
  Relative segment, address: CODE 00003620 - 00003622 (0x3 bytes), align: 0
  Segment part 94.            Intra module refs:   Segment part 93
                                                   nwkFSM
                                                   nwkFindDstDLLAddr
                                                   nwkRxFSM
                                                   nwkTxData
    -------------------------------------------------------------------------
<BANKED_CODE> 1 (was BANKED_CODE)
  Relative segment, address: CODE 00003623 - 00003627 (0x5 bytes), align: 0
  Segment part 95.            Intra module refs:   Segment part 94
                                                   nwkFindDstDLLAddr
                                                   nwkRxFSM
    -------------------------------------------------------------------------
CODE_C
  Relative segment, address: CODE 00001865 - 0000187D (0x19 bytes), align: 0
  Segment part 25.            Intra module refs:   nwkFSM
           LOCAL                   ADDRESS         
           =====                   =======         
           nwkFSM{1}{3}{4}{8}::xxxxromstr
                                   00001865 
    -------------------------------------------------------------------------
CODE_C
  Relative segment, address: CODE 0000187E - 000018C7 (0x4a bytes), align: 0
  Segment part 26.            Intra module refs:   nwkFSM
           LOCAL                   ADDRESS         
           =====                   =======         
           nwkFSM{1}{3}{4}{11}::xxxxromstr
                                   0000187E 
    -------------------------------------------------------------------------
CODE_C
  Relative segment, address: CODE 000018C8 - 000018E2 (0x1b bytes), align: 0
  Segment part 27.            Intra module refs:   nwkFSM
           LOCAL                   ADDRESS         
           =====                   =======         
           nwkFSM{1}{13}{16}::xxxxromstr
                                   000018C8 
    -------------------------------------------------------------------------
CODE_C
  Relative segment, address: CODE 000018E3 - 000018F1 (0xf bytes), align: 0
  Segment part 28.            Intra module refs:   nwkFSM
           LOCAL                   ADDRESS         
           =====                   =======         
           nwkFSM{1}{13}{18}::xxxxromstr
                                   000018E3 
    -------------------------------------------------------------------------
CODE_C
  Relative segment, address: CODE 000018F2 - 00001904 (0x13 bytes), align: 0
  Segment part 29.            Intra module refs:   nwkFSM
           LOCAL                   ADDRESS         
           =====                   =======         
           nwkFSM{1}{25}{26}::xxxxromstr
                                   000018F2 
    -------------------------------------------------------------------------
CODE_C
  Relative segment, address: CODE 00001905 - 00001915 (0x11 bytes), align: 0
  Segment part 30.            Intra module refs:   nwkFSM
           LOCAL                   ADDRESS         
           =====                   =======         
           nwkFSM{1}{31}{32}::xxxxromstr
                                   00001905 
    -------------------------------------------------------------------------
CODE_C
  Relative segment, address: CODE 00001916 - 00001943 (0x2e bytes), align: 0
  Segment part 31.            Intra module refs:   nwkFSM
           LOCAL                   ADDRESS         
           =====                   =======         
           nwkFSM{1}{37}::xxxxromstr
                                   00001916 
    -------------------------------------------------------------------------
CODE_C
  Relative segment, address: CODE 00001944 - 0000195D (0x1a bytes), align: 0
  Segment part 32.            Intra module refs:   nwkFSM
           LOCAL                   ADDRESS         
           =====                   =======         
           nwkFSM{1}{42}::xxxxromstr
                                   00001944 
    -------------------------------------------------------------------------
CODE_C
  Relative segment, address: CODE 0000195E - 0000196F (0x12 bytes), align: 0
  Segment part 33.            Intra module refs:   nwkFSM
           LOCAL                   ADDRESS         
           =====                   =======         
           nwkFSM{1}{44}::xxxxromstr
                                   0000195E 
    -------------------------------------------------------------------------
<BANKED_CODE> 1 (was BANKED_CODE)
  Relative segment, address: CODE 00003628 - 00003862 (0x23b bytes), align: 0
  Segment part 96.            Intra module refs:   nwkRxFSM::?relay
           ENTRY                   ADDRESS         REF BY
           =====                   =======         ======
           nwkRxFSM                00003628 
               calls direct
               XSTACK = 00000010 ( 0000000A )
    -------------------------------------------------------------------------
<BANKED_CODE> 1 (was BANKED_CODE)
  Relative segment, address: CODE 00003863 - 00003868 (0x6 bytes), align: 0
  Segment part 98.            Intra module refs:   nwkFSM
           LOCAL                   ADDRESS         
           =====                   =======         
           ?Subroutine18           00003863 
    -------------------------------------------------------------------------
<BANKED_CODE> 1 (was BANKED_CODE)
  Relative segment, address: CODE 00003869 - 0000386D (0x5 bytes), align: 0
  Segment part 99.            Intra module refs:   ?Subroutine18
                                                   nwkFSM
                                                   nwkRxFSM
    -------------------------------------------------------------------------
<BANKED_CODE> 1 (was BANKED_CODE)
  Relative segment, address: CODE 0000386E - 00003879 (0xc bytes), align: 0
  Segment part 100.           Intra module refs:   nwkRxFSM
           LOCAL                   ADDRESS         
           =====                   =======         
           ?Subroutine12           0000386E 
    -------------------------------------------------------------------------
<BANKED_CODE> 1 (was BANKED_CODE)
  Relative segment, address: CODE 0000387A - 0000387D (0x4 bytes), align: 0
  Segment part 101.           Intra module refs:   nwkFSM
                                                   nwkRxFSM
           LOCAL                   ADDRESS         
           =====                   =======         
           ?Subroutine8            0000387A 
    -------------------------------------------------------------------------
<BANKED_CODE> 1 (was BANKED_CODE)
  Relative segment, address: CODE 0000387E - 0000388A (0xd bytes), align: 0
  Segment part 102.           Intra module refs:   ?Subroutine4
                                                   ?Subroutine8
           LOCAL                   ADDRESS         
           =====                   =======         
           ?Subroutine23           0000387E 
    -------------------------------------------------------------------------
<BANKED_CODE> 1 (was BANKED_CODE)
  Relative segment, address: CODE 0000388B - 00003898 (0xe bytes), align: 0
  Segment part 103.           Intra module refs:   nwkRxFSM
           LOCAL                   ADDRESS         
           =====                   =======         
           ?Subroutine7            0000388B 
    -------------------------------------------------------------------------
<BANKED_CODE> 1 (was BANKED_CODE)
  Relative segment, address: CODE 00003899 - 000038A3 (0xb bytes), align: 0
  Segment part 104.           Intra module refs:   nwkRxFSM
           LOCAL                   ADDRESS         
           =====                   =======         
           ?Subroutine4            00003899 
    -------------------------------------------------------------------------
<BANKED_CODE> 1 (was BANKED_CODE)
  Relative segment, address: CODE 000038A4 - 000038AF (0xc bytes), align: 0
  Segment part 105.           Intra module refs:   ?Subroutine4
                                                   nwkRxFSM
           LOCAL                   ADDRESS         
           =====                   =======         
           ?Subroutine24           000038A4 
    -------------------------------------------------------------------------
CODE_C
  Relative segment, address: CODE 00001970 - 0000199E (0x2f bytes), align: 0
  Segment part 34.            Intra module refs:   nwkRxFSM
           LOCAL                   ADDRESS         
           =====                   =======         
           nwkRxFSM{1}{4}{5}{6}::xxxxromstr
                                   00001970 
    -------------------------------------------------------------------------
CODE_C
  Relative segment, address: CODE 0000199F - 000019C4 (0x26 bytes), align: 0
  Segment part 35.            Intra module refs:   nwkRxFSM
           LOCAL                   ADDRESS         
           =====                   =======         
           nwkRxFSM{1}{7}{8}::xxxxromstr
                                   0000199F 
    -------------------------------------------------------------------------
CODE_C
  Relative segment, address: CODE 000019C5 - 000019F4 (0x30 bytes), align: 0
  Segment part 36.            Intra module refs:   nwkRxFSM
           LOCAL                   ADDRESS         
           =====                   =======         
           nwkRxFSM{1}{9}{10}::xxxxromstr
                                   000019C5 
    -------------------------------------------------------------------------
CODE_C
  Relative segment, address: CODE 000019F5 - 00001A27 (0x33 bytes), align: 0
  Segment part 37.            Intra module refs:   nwkRxFSM
           LOCAL                   ADDRESS         
           =====                   =======         
           nwkRxFSM{1}{11}{12}::xxxxromstr
                                   000019F5 
    -------------------------------------------------------------------------
CODE_C
  Relative segment, address: CODE 00001A28 - 00001A56 (0x2f bytes), align: 0
  Segment part 38.            Intra module refs:   nwkRxFSM
           LOCAL                   ADDRESS         
           =====                   =======         
           nwkRxFSM{1}{13}{14}::xxxxromstr
                                   00001A28 
    -------------------------------------------------------------------------
CODE_C
  Relative segment, address: CODE 00001A57 - 00001A63 (0xd bytes), align: 0
  Segment part 39.            Intra module refs:   nwkRxFSM
           LOCAL                   ADDRESS         
           =====                   =======         
           nwkRxFSM{1}{15}{17}::xxxxromstr
                                   00001A57 
    -------------------------------------------------------------------------
CODE_C
  Relative segment, address: CODE 00001A64 - 00001A9C (0x39 bytes), align: 0
  Segment part 40.            Intra module refs:   nwkRxFSM
           LOCAL                   ADDRESS         
           =====                   =======         
           nwkRxFSM{1}{15}{18}{19}{20}::xxxxromstr
                                   00001A64 
    -------------------------------------------------------------------------
CODE_C
  Relative segment, address: CODE 00001A9D - 00001AB8 (0x1c bytes), align: 0
  Segment part 41.            Intra module refs:   nwkRxFSM
           LOCAL                   ADDRESS         
           =====                   =======         
           nwkRxFSM{1}{15}{18}{19}{21}::xxxxromstr
                                   00001A9D 
    -------------------------------------------------------------------------
CODE_C
  Relative segment, address: CODE 00001AB9 - 00001AE3 (0x2b bytes), align: 0
  Segment part 42.            Intra module refs:   nwkRxFSM
           LOCAL                   ADDRESS         
           =====                   =======         
           nwkRxFSM{1}{15}{23}{24}{25}::xxxxromstr
                                   00001AB9 
    -------------------------------------------------------------------------
CODE_C
  Relative segment, address: CODE 00001AE4 - 00001AFD (0x1a bytes), align: 0
  Segment part 43.            Intra module refs:   nwkRxFSM
           LOCAL                   ADDRESS         
           =====                   =======         
           nwkRxFSM{1}{15}{23}{24}{26}::xxxxromstr
                                   00001AE4 
    -------------------------------------------------------------------------
CODE_C
  Relative segment, address: CODE 00001AFE - 00001B11 (0x14 bytes), align: 0
  Segment part 44.            Intra module refs:   nwkRxFSM
           LOCAL                   ADDRESS         
           =====                   =======         
           nwkRxFSM{1}{15}{27}{29}::xxxxromstr
                                   00001AFE 
    -------------------------------------------------------------------------
CODE_C
  Relative segment, address: CODE 00001B12 - 00001B36 (0x25 bytes), align: 0
  Segment part 45.            Intra module refs:   nwkRxFSM
           LOCAL                   ADDRESS         
           =====                   =======         
           nwkRxFSM{1}{15}{27}{31}{32}::xxxxromstr
                                   00001B12 
    -------------------------------------------------------------------------
CODE_C
  Relative segment, address: CODE 00001B37 - 00001B61 (0x2b bytes), align: 0
  Segment part 46.            Intra module refs:   nwkRxFSM
           LOCAL                   ADDRESS         
           =====                   =======         
           nwkRxFSM{1}{15}{37}::xxxxromstr
                                   00001B37 
    -------------------------------------------------------------------------
<BANKED_CODE> 1 (was BANKED_CODE)
  Relative segment, address: CODE 000038B0 - 00003A1E (0x16f bytes), align: 0
  Segment part 106.           Intra module refs:   nwkTxData::?relay
           ENTRY                   ADDRESS         REF BY
           =====                   =======         ======
           nwkTxData               000038B0 
               calls direct
               XSTACK = 00000010 ( 0000000C )
               ISTACK = 00000000 ( 00000001 )
    -------------------------------------------------------------------------
<BANKED_CODE> 1 (was BANKED_CODE)
  Relative segment, address: CODE 00003A1F - 00003A2E (0x10 bytes), align: 0
  Segment part 108.           Intra module refs:   nwkFSM
                                                   nwkTxData
           LOCAL                   ADDRESS         
           =====                   =======         
           ?Subroutine17           00003A1F 
    -------------------------------------------------------------------------
<BANKED_CODE> 1 (was BANKED_CODE)
  Relative segment, address: CODE 00003A2F - 00003A36 (0x8 bytes), align: 0
  Segment part 109.           Intra module refs:   nwkTxData
           LOCAL                   ADDRESS         
           =====                   =======         
           ?Subroutine11           00003A2F 
    -------------------------------------------------------------------------
<BANKED_CODE> 1 (was BANKED_CODE)
  Relative segment, address: CODE 00003A37 - 00003A3C (0x6 bytes), align: 0
  Segment part 110.           Intra module refs:   ?Subroutine11
                                                   ?Subroutine16
           LOCAL                   ADDRESS         
           =====                   =======         
           ?Subroutine28           00003A37 
    -------------------------------------------------------------------------
<BANKED_CODE> 1 (was BANKED_CODE)
  Relative segment, address: CODE 00003A3D - 00003A40 (0x4 bytes), align: 0
  Segment part 111.           Intra module refs:   nwkTxData
           LOCAL                   ADDRESS         
           =====                   =======         
           ?Subroutine6            00003A3D 
    -------------------------------------------------------------------------
<BANKED_CODE> 1 (was BANKED_CODE)
  Relative segment, address: CODE 00003A41 - 00003A55 (0x15 bytes), align: 0
  Segment part 112.           Intra module refs:   nwkTxData
           LOCAL                   ADDRESS         
           =====                   =======         
           ?Subroutine5            00003A41 
    -------------------------------------------------------------------------
<BANKED_CODE> 1 (was BANKED_CODE)
  Relative segment, address: CODE 00003A56 - 00003A5E (0x9 bytes), align: 0
  Segment part 113.           Intra module refs:   nwkTxData
           LOCAL                   ADDRESS         
           =====                   =======         
           ?Subroutine3            00003A56 
    -------------------------------------------------------------------------
<BANKED_CODE> 1 (was BANKED_CODE)
  Relative segment, address: CODE 00003A5F - 00003A72 (0x14 bytes), align: 0
  Segment part 114.           Intra module refs:   ?Subroutine3
                                                   nwkTxData
           LOCAL                   ADDRESS         
           =====                   =======         
           ?Subroutine22           00003A5F 
    -------------------------------------------------------------------------
<BANKED_CODE> 1 (was BANKED_CODE)
  Relative segment, address: CODE 00003A73 - 00003A81 (0xf bytes), align: 0
  Segment part 115.           Intra module refs:   nwkTxData
           LOCAL                   ADDRESS         
           =====                   =======         
           ?Subroutine2            00003A73 
    -------------------------------------------------------------------------
<BANKED_CODE> 1 (was BANKED_CODE)
  Relative segment, address: CODE 00003A82 - 00003A8B (0xa bytes), align: 0
  Segment part 116.           Intra module refs:   nwkTxData
           LOCAL                   ADDRESS         
           =====                   =======         
           ?Subroutine0            00003A82 
    -------------------------------------------------------------------------
<BANKED_CODE> 1 (was BANKED_CODE)
  Relative segment, address: CODE 00003A8C - 00003A9A (0xf bytes), align: 0
  Segment part 117.           Intra module refs:   ?Subroutine0
                                                   ?Subroutine2
                                                   ?Subroutine6
           LOCAL                   ADDRESS         
           =====                   =======         
           ?Subroutine21           00003A8C 
    -------------------------------------------------------------------------
<BANKED_CODE> 1 (was BANKED_CODE)
  Relative segment, address: CODE 00003A9B - 00003A9E (0x4 bytes), align: 0
  Segment part 118.           Intra module refs:   ?Subroutine21
                                                   ?Subroutine22
           LOCAL                   ADDRESS         
           =====                   =======         
           ?Subroutine26           00003A9B 
    -------------------------------------------------------------------------
<BANKED_CODE> 1 (was BANKED_CODE)
  Relative segment, address: CODE 00003A9F - 00003AA4 (0x6 bytes), align: 0
  Segment part 119.           Intra module refs:   ?Subroutine26
                                                   nwkFSM
                                                   nwkRxHandoff
    -------------------------------------------------------------------------
CODE_C
  Relative segment, address: CODE 00001B62 - 00001B9C (0x3b bytes), align: 0
  Segment part 47.            Intra module refs:   nwkTxData
           LOCAL                   ADDRESS         
           =====                   =======         
           nwkTxData{1}{7}{8}::xxxxromstr
                                   00001B62 
    -------------------------------------------------------------------------
<BANKED_CODE> 1 (was BANKED_CODE)
  Relative segment, address: CODE 00003AA5 - 00003AB7 (0x13 bytes), align: 0
  Segment part 120.           Intra module refs:   nwkRxBusy::?relay
           ENTRY                   ADDRESS         REF BY
           =====                   =======         ======
           nwkRxBusy               00003AA5 
               ISTACK = 00000000 ( 00000002 )
    -------------------------------------------------------------------------
<BANKED_CODE> 1 (was BANKED_CODE)
  Relative segment, address: CODE 00003AB8 - 00003B4B (0x94 bytes), align: 0
  Segment part 124.           Intra module refs:   nwkRxHandoff::?relay
           ENTRY                   ADDRESS         REF BY
           =====                   =======         ======
           nwkRxHandoff            00003AB8 
               XSTACK = 00000000 ( 0000000C )
    -------------------------------------------------------------------------
<BANKED_CODE> 1 (was BANKED_CODE)
  Relative segment, address: CODE 00003B4C - 00003B50 (0x5 bytes), align: 0
  Segment part 126.           Intra module refs:   nwkParseHdr
                                                   nwkRxHandoff
                                                   nwkTxData
                                                   upper_layer_chksum
           LOCAL                   ADDRESS         
           =====                   =======         
           ?Subroutine30           00003B4C 
    -------------------------------------------------------------------------
<BANKED_CODE> 1 (was BANKED_CODE)
  Relative segment, address: CODE 00003B51 - 00003C34 (0xe4 bytes), align: 0
  Segment part 127.           Intra module refs:   nwkParseHdr::?relay
           ENTRY                   ADDRESS         REF BY
           =====                   =======         ======
           nwkParseHdr             00003B51 
               XSTACK = 0000000A ( 0000000C )
               ISTACK = 00000000 ( 00000001 )
    -------------------------------------------------------------------------
<BANKED_CODE> 1 (was BANKED_CODE)
  Relative segment, address: CODE 00003C35 - 00003C41 (0xd bytes), align: 0
  Segment part 129.           Intra module refs:   nwkParseHdr
           LOCAL                   ADDRESS         
           =====                   =======         
           ?Subroutine16           00003C35 
    -------------------------------------------------------------------------
<BANKED_CODE> 1 (was BANKED_CODE)
  Relative segment, address: CODE 00003C42 - 00003C46 (0x5 bytes), align: 0
  Segment part 130.           Intra module refs:   nwkParseHdr
           LOCAL                   ADDRESS         
           =====                   =======         
           ?Subroutine15           00003C42 
    -------------------------------------------------------------------------
<BANKED_CODE> 1 (was BANKED_CODE)
  Relative segment, address: CODE 00003C47 - 00003C50 (0xa bytes), align: 0
  Segment part 131.           Intra module refs:   ?Subroutine15
                                                   nwkParseHdr
           LOCAL                   ADDRESS         
           =====                   =======         
           ?Subroutine25           00003C47 
    -------------------------------------------------------------------------
<BANKED_CODE> 1 (was BANKED_CODE)
  Relative segment, address: CODE 00003C51 - 00003E0B (0x1bb bytes), align: 0
  Segment part 132.           Intra module refs:   nwkFindDstDLLAddr::?relay
           ENTRY                   ADDRESS         REF BY
           =====                   =======         ======
           nwkFindDstDLLAddr       00003C51 
               calls direct
               XSTACK = 00000010 ( 00000000 )
               ISTACK = 00000000 ( 00000002 )
    -------------------------------------------------------------------------
CODE_C
  Relative segment, address: CODE 00001B9D - 00001BBF (0x23 bytes), align: 0
  Segment part 48.            Intra module refs:   nwkFindDstDLLAddr
           LOCAL                   ADDRESS         
           =====                   =======         
           nwkFindDstDLLAddr{1}::xxxxromstr
                                   00001B9D 
    -------------------------------------------------------------------------
CODE_C
  Relative segment, address: CODE 00001BC0 - 00001BC1 (0x2 bytes), align: 0
  Segment part 49.            Intra module refs:   nwkFindDstDLLAddr
           LOCAL                   ADDRESS         
           =====                   =======         
           nwkFindDstDLLAddr{2}::xxxxromstr
                                   00001BC0 
    -------------------------------------------------------------------------
CODE_C
  Relative segment, address: CODE 00001BC2 - 00001BFE (0x3d bytes), align: 0
  Segment part 50.            Intra module refs:   nwkFindDstDLLAddr
           LOCAL                   ADDRESS         
           =====                   =======         
           nwkFindDstDLLAddr{3}{4}{5}::xxxxromstr
                                   00001BC2 
    -------------------------------------------------------------------------
CODE_C
  Relative segment, address: CODE 00001BFF - 00001C18 (0x1a bytes), align: 0
  Segment part 51.            Intra module refs:   nwkFindDstDLLAddr
           LOCAL                   ADDRESS         
           =====                   =======         
           nwkFindDstDLLAddr{3}{6}{7}::xxxxromstr
                                   00001BFF 
    -------------------------------------------------------------------------
CODE_C
  Relative segment, address: CODE 00001C19 - 00001C2F (0x17 bytes), align: 0
  Segment part 52.            Intra module refs:   nwkFindDstDLLAddr
           LOCAL                   ADDRESS         
           =====                   =======         
           nwkFindDstDLLAddr{8}{9}::xxxxromstr
                                   00001C19 
    -------------------------------------------------------------------------
CODE_C
  Relative segment, address: CODE 00001C30 - 00001C44 (0x15 bytes), align: 0
  Segment part 53.            Intra module refs:   nwkFindDstDLLAddr
           LOCAL                   ADDRESS         
           =====                   =======         
           nwkFindDstDLLAddr{8}{10}{12}::xxxxromstr
                                   00001C30 
    -------------------------------------------------------------------------
CODE_C
  Relative segment, address: CODE 00001C45 - 00001C46 (0x2 bytes), align: 0
  Segment part 54.            Intra module refs:   nwkFindDstDLLAddr
           LOCAL                   ADDRESS         
           =====                   =======         
           nwkFindDstDLLAddr{8}{10}{13}::xxxxromstr
                                   00001C45 
    -------------------------------------------------------------------------
CODE_C
  Relative segment, address: CODE 00001C47 - 00001C58 (0x12 bytes), align: 0
  Segment part 55.            Intra module refs:   nwkFindDstDLLAddr
           LOCAL                   ADDRESS         
           =====                   =======         
           nwkFindDstDLLAddr{8}{14}{16}::xxxxromstr
                                   00001C47 
    -------------------------------------------------------------------------
CODE_C
  Relative segment, address: CODE 00001C59 - 00001C5A (0x2 bytes), align: 0
  Segment part 56.            Intra module refs:   nwkFindDstDLLAddr
           LOCAL                   ADDRESS         
           =====                   =======         
           nwkFindDstDLLAddr{8}{14}{17}::xxxxromstr
                                   00001C59 
    -------------------------------------------------------------------------
CODE_C
  Relative segment, address: CODE 00001C5B - 00001C70 (0x16 bytes), align: 0
  Segment part 57.            Intra module refs:   nwkFindDstDLLAddr
           LOCAL                   ADDRESS         
           =====                   =======         
           nwkFindDstDLLAddr{8}{18}{19}::xxxxromstr
                                   00001C5B 
    -------------------------------------------------------------------------
CODE_C
  Relative segment, address: CODE 00001C71 - 00001C97 (0x27 bytes), align: 0
  Segment part 58.            Intra module refs:   nwkFindDstDLLAddr
           LOCAL                   ADDRESS         
           =====                   =======         
           nwkFindDstDLLAddr{20}{21}::xxxxromstr
                                   00001C71 
    -------------------------------------------------------------------------
XDATA_I
  Relative segment, address: XDATA 000011C8 - 000011CB (0x4 bytes), align: 0
  Segment part 61.            Intra module refs:   nwkFSM
           ENTRY                   ADDRESS         REF BY
           =====                   =======         ======
           __Constant_f231         000011C8 
    -------------------------------------------------------------------------
XDATA_ID
  Relative segment, address: CODE 0000017F - 00000182 (0x4 bytes), align: 0
  Segment part 62.            Intra module refs:   __Constant_f231
    -------------------------------------------------------------------------
BANK_RELAYS
  Relative segment, address: CODE 00000475 - 0000047A (0x6 bytes), align: 0
  Segment part 64.            Intra module refs:   Segment part 69
           LOCAL                   ADDRESS         
           =====                   =======         
           chksum::?relay          00000475 
    -------------------------------------------------------------------------
BANK_RELAYS
  Relative segment, address: CODE 0000047B - 00000480 (0x6 bytes), align: 0
  Segment part 73.            Intra module refs:   ?Subroutine31
           LOCAL                   ADDRESS         
           =====                   =======         
           upper_layer_chksum::?relay
                                   0000047B 
    -------------------------------------------------------------------------
BANK_RELAYS
  Relative segment, address: CODE 00000481 - 00000486 (0x6 bytes), align: 0
  Segment part 75.            Intra module refs:   nwkRxFSM
                                                   nwkTxData
           ENTRY                   ADDRESS         REF BY
           =====                   =======         ======
           lowsn_icmp6chksum::?relay
                                   00000481 
    -------------------------------------------------------------------------
BANK_RELAYS
  Relative segment, address: CODE 00000487 - 0000048C (0x6 bytes), align: 0
  Segment part 79.            Intra module refs:   ?Subroutine4
                                                   nwkTxData
           ENTRY                   ADDRESS         REF BY
           =====                   =======         ======
           lowsn_udpchksum::?relay
                                   00000487 
    -------------------------------------------------------------------------
BANK_RELAYS
  Relative segment, address: CODE 0000048D - 00000492 (0x6 bytes), align: 0
  Segment part 81.
           ENTRY                   ADDRESS         REF BY
           =====                   =======         ======
           nwkInit::?relay         0000048D        apsInit (aps)
    -------------------------------------------------------------------------
BANK_RELAYS
  Relative segment, address: CODE 00000493 - 00000498 (0x6 bytes), align: 0
  Segment part 85.
           ENTRY                   ADDRESS         REF BY
           =====                   =======         ======
           nwkFSM::?relay          00000493        ?Subroutine25 (aps)
                                                   apsFSM (aps)
    -------------------------------------------------------------------------
BANK_RELAYS
  Relative segment, address: CODE 00000499 - 0000049E (0x6 bytes), align: 0
  Segment part 97.            Intra module refs:   nwkFSM
           ENTRY                   ADDRESS         REF BY
           =====                   =======         ======
           nwkRxFSM::?relay        00000499 
    -------------------------------------------------------------------------
BANK_RELAYS
  Relative segment, address: CODE 0000049F - 000004A4 (0x6 bytes), align: 0
  Segment part 107.           Intra module refs:   ?Subroutine29
           ENTRY                   ADDRESS         REF BY
           =====                   =======         ======
           nwkTxData::?relay       0000049F 
    -------------------------------------------------------------------------
BANK_RELAYS
  Relative segment, address: CODE 000004A5 - 000004AA (0x6 bytes), align: 0
  Segment part 121.
           ENTRY                   ADDRESS         REF BY
           =====                   =======         ======
           nwkRxBusy::?relay       000004A5        adpRxFSM (adp)
    -------------------------------------------------------------------------
BANK_RELAYS
  Relative segment, address: CODE 000004AB - 000004B0 (0x6 bytes), align: 0
  Segment part 125.
           ENTRY                   ADDRESS         REF BY
           =====                   =======         ======
           nwkRxHandoff::?relay    000004AB        adpRxFSM (adp)
    -------------------------------------------------------------------------
BANK_RELAYS
  Relative segment, address: CODE 000004B1 - 000004B6 (0x6 bytes), align: 0
  Segment part 128.           Intra module refs:   nwkRxFSM
           ENTRY                   ADDRESS         REF BY
           =====                   =======         ======
           nwkParseHdr::?relay     000004B1 
    -------------------------------------------------------------------------
BANK_RELAYS
  Relative segment, address: CODE 000004B7 - 000004BC (0x6 bytes), align: 0
  Segment part 133.           Intra module refs:   ?Subroutine20
                                                   nwkFSM
           ENTRY                   ADDRESS         REF BY
           =====                   =======         ======
           nwkFindDstDLLAddr::?relay
                                   000004B7 

    *************************************************************************

  FILE NAME : F:\6LoWSN\6lowsn_stack\obj\compiletest\iar51_cc2530\coord\Obj\phy.r51
  PROGRAM MODULE, NAME : phy

  SEGMENTS IN THE MODULE
  ======================
XDATA_Z
  Relative segment, address: XDATA 000010DE - 000010EE (0x11 bytes), align: 0
  Segment part 6.             Intra module refs:   ?Subroutine0
                                                   phyFSM
                                                   phyInit
                                                   phyTxEndCallBack
           ENTRY                   ADDRESS         REF BY
           =====                   =======         ======
           phy_pib                 000010DE        ?Subroutine10 (mac)
                                                   ?Subroutine10 (nwk)
                                                   ?Subroutine14 (nd)
                                                   ?Subroutine16 (nd)
                                                   ?Subroutine2 (icmpv6)
                                                   ?Subroutine20 (mac)
                                                   ?Subroutine21 (nwk)
                                                   ?Subroutine22 (nwk)
                                                   ?Subroutine26 (nwk)
                                                   ?Subroutine28 (adp)
                                                   ?Subroutine3 (adp)
                                                   ?Subroutine30 (adp)
                                                   ?Subroutine31 (adp)
                                                   ?Subroutine4 (nd)
                                                   ?Subroutine45 (mac)
                                                   ?Subroutine5 (nwk)
                                                   ?Subroutine50 (mac)
                                                   ?Subroutine53 (aps)
                                                   ?Subroutine55 (mac)
                                                   ?Subroutine57 (mac)
                                                   ?Subroutine6 (icmpv6)
                                                   ?Subroutine7 (adp)
                                                   ?Subroutine8 (aps)
                                                   ?Subroutine8 (icmpv6)
                                                   ?Subroutine9 (aps)
                                                   ?Subroutine9 (icmpv6)
                                                   Segment part 162 (mac)
                                                   Segment part 17 (icmpv6)
                                                   Segment part 32 (nd)
                                                   Segment part 38 (nd)
                                                   Segment part 87 (adp)
                                                   Segment part 99 (aps)
                                                   adpCopyFwdPkt (adp)
                                                   adpFSM (adp)
                                                   adpTxCompData (adp)
                                                   adpTxData (adp)
                                                   apsFSM (aps)
                                                   apsTxData (aps)
                                                   apsTxFSM (aps)
                                                   icmpCommonFmt (icmpv6)
                                                   icmpFmtEchoReply (icmpv6)
                                                   icmpFmtEchoRequest (icmpv6)
                                                   macFSM (mac)
                                                   macFormatAssociationResponse (mac)
                                                   macFormatBeacon (mac)
                                                   macFormatCoordRealign (mac)
                                                   macInitRadio (mac)
                                                   macSetChannel (mac)
                                                   macTxCallback (mac)
                                                   macTxData (mac)
                                                   ndFmtRA (nd)
                                                   ndFmtRS (nd)
                                                   nwkFSM (nwk)
                                                   nwkTxData (nwk)
    -------------------------------------------------------------------------
XDATA_Z
  Relative segment, address: XDATA 000010EF - 000010F2 (0x4 bytes), align: 0
  Segment part 7.             Intra module refs:   phyFSM
           ENTRY                   ADDRESS         REF BY
           =====                   =======         ======
           a_phy_service           000010EF        ?Subroutine1 (mac)
                                                   ?Subroutine40 (mac)
                                                   ?Subroutine46 (mac)
                                                   ?Subroutine7 (mac)
                                                   macTxFSM (mac)
    -------------------------------------------------------------------------
XDATA_Z
  Relative segment, address: XDATA 000010F3 - 000010F3 (0x1 bytes), align: 0
  Segment part 8.             Intra module refs:   phyFSM
                                                   phyInit
           ENTRY                   ADDRESS         REF BY
           =====                   =======         ======
           phyState                000010F3        ?Subroutine46 (mac)
                                                   macTxFSM (mac)
    -------------------------------------------------------------------------
XDATA_Z
  Relative segment, address: XDATA 000010F4 - 00001172 (0x7f bytes), align: 0
  Segment part 9.
           ENTRY                   ADDRESS         REF BY
           =====                   =======         ======
           tmpTxBuff               000010F4        ?Subroutine13 (mac)
                                                   ?Subroutine14 (mac)
                                                   ?Subroutine15 (mac)
                                                   ?Subroutine16 (mac)
                                                   ?Subroutine2 (mac)
                                                   ?Subroutine4 (mac)
                                                   ?Subroutine5 (mac)
                                                   Segment part 162 (mac)
                                                   adpCopyFwdPkt (adp)
                                                   apsTxData (aps)
                                                   icmpFmtEchoReply (icmpv6)
                                                   icmpFmtEchoRequest (icmpv6)
                                                   macFSM (mac)
                                                   macFormatAssociationResponse (mac)
                                                   macFormatBeacon (mac)
                                                   macFormatCoordRealign (mac)
                                                   mpFmtCurrentVoltageResponsePayload (mp)
                                                   mpFmtDeviceInfo (mp)
                                                   mpFmtTreeNeighborInfo (mp)
                                                   ndFmtRA (nd)
                                                   ndFmtRS (nd)
    -------------------------------------------------------------------------
<BANKED_CODE> 1 (was BANKED_CODE)
  Relative segment, address: CODE 00007931 - 0000793F (0xf bytes), align: 0
  Segment part 19.            Intra module refs:   phyInit::?relay
           ENTRY                   ADDRESS         REF BY
           =====                   =======         ======
           phyInit                 00007931 
               calls direct
               ISTACK = 00000000 ( 00000002 )
    -------------------------------------------------------------------------
<BANKED_CODE> 1 (was BANKED_CODE)
  Relative segment, address: CODE 00007940 - 00007947 (0x8 bytes), align: 0
  Segment part 21.            Intra module refs:   phyInit
                                                   phyTxEndCallBack
           LOCAL                   ADDRESS         
           =====                   =======         
           ?Subroutine1            00007940 
    -------------------------------------------------------------------------
<BANKED_CODE> 1 (was BANKED_CODE)
  Relative segment, address: CODE 00007948 - 0000794A (0x3 bytes), align: 0
  Segment part 22.            Intra module refs:   phyRxCallback::?relay
           ENTRY                   ADDRESS         REF BY
           =====                   =======         ======
           phyRxCallback           00007948 
    -------------------------------------------------------------------------
<BANKED_CODE> 1 (was BANKED_CODE)
  Relative segment, address: CODE 0000794B - 0000795A (0x10 bytes), align: 0
  Segment part 24.            Intra module refs:   phyTxStartCallBack::?relay
           ENTRY                   ADDRESS         REF BY
           =====                   =======         ======
           phyTxStartCallBack      0000794B 
               calls direct
               XSTACK = 00000000 ( 0000000C )
    -------------------------------------------------------------------------
<BANKED_CODE> 1 (was BANKED_CODE)
  Relative segment, address: CODE 0000795B - 00007969 (0xf bytes), align: 0
  Segment part 26.            Intra module refs:   phyTxEndCallBack::?relay
           ENTRY                   ADDRESS         REF BY
           =====                   =======         ======
           phyTxEndCallBack        0000795B 
               ISTACK = 00000000 ( 00000002 )
    -------------------------------------------------------------------------
<BANKED_CODE> 1 (was BANKED_CODE)
  Relative segment, address: CODE 0000796A - 00007A98 (0x12f bytes), align: 0
  Segment part 28.            Intra module refs:   phyFSM::?relay
           ENTRY                   ADDRESS         REF BY
           =====                   =======         ======
           phyFSM                  0000796A 
               calls direct
               XSTACK = 00000000 ( 00000012 )
    -------------------------------------------------------------------------
<BANKED_CODE> 1 (was BANKED_CODE)
  Relative segment, address: CODE 00007A99 - 00007AA9 (0x11 bytes), align: 0
  Segment part 30.            Intra module refs:   phyFSM
                                                   phyTxStartCallBack
           LOCAL                   ADDRESS         
           =====                   =======         
           ?Subroutine0            00007A99 
    -------------------------------------------------------------------------
CODE_C
  Relative segment, address: CODE 00001C98 - 00001CB1 (0x1a bytes), align: 0
  Segment part 10.            Intra module refs:   phyFSM
           LOCAL                   ADDRESS         
           =====                   =======         
           phyFSM{1}{4}{7}::xxxxromstr
                                   00001C98 
    -------------------------------------------------------------------------
CODE_C
  Relative segment, address: CODE 00001CB2 - 00001CB4 (0x3 bytes), align: 0
  Segment part 11.            Intra module refs:   phyFSM
           LOCAL                   ADDRESS         
           =====                   =======         
           phyFSM{1}{4}{8}{9}::xxxxromstr
                                   00001CB2 
    -------------------------------------------------------------------------
CODE_C
  Relative segment, address: CODE 00001CB5 - 00001CCE (0x1a bytes), align: 0
  Segment part 12.            Intra module refs:   phyFSM
           LOCAL                   ADDRESS         
           =====                   =======         
           phyFSM{1}{4}{10}::xxxxromstr
                                   00001CB5 
    -------------------------------------------------------------------------
CODE_C
  Relative segment, address: CODE 00001CCF - 00001CE5 (0x17 bytes), align: 0
  Segment part 13.            Intra module refs:   phyFSM
           LOCAL                   ADDRESS         
           =====                   =======         
           phyFSM{1}{4}{12}{13}::xxxxromstr
                                   00001CCF 
    -------------------------------------------------------------------------
CODE_C
  Relative segment, address: CODE 00001CE6 - 00001D08 (0x23 bytes), align: 0
  Segment part 14.            Intra module refs:   phyFSM
           LOCAL                   ADDRESS         
           =====                   =======         
           phyFSM{1}{17}{18}::xxxxromstr
                                   00001CE6 
    -------------------------------------------------------------------------
XDATA_I
  Relative segment, address: XDATA 000011CC - 000011CF (0x4 bytes), align: 0
  Segment part 17.            Intra module refs:   phyFSM
           ENTRY                   ADDRESS         REF BY
           =====                   =======         ======
           __Constant_12d          000011CC 
    -------------------------------------------------------------------------
XDATA_ID
  Relative segment, address: CODE 00000183 - 00000186 (0x4 bytes), align: 0
  Segment part 18.            Intra module refs:   __Constant_12d
    -------------------------------------------------------------------------
BANK_RELAYS
  Relative segment, address: CODE 000004BD - 000004C2 (0x6 bytes), align: 0
  Segment part 20.
           ENTRY                   ADDRESS         REF BY
           =====                   =======         ======
           phyInit::?relay         000004BD        ?Subroutine34 (adp)
                                                   apsInit (aps)
    -------------------------------------------------------------------------
BANK_RELAYS
  Relative segment, address: CODE 000004C3 - 000004C8 (0x6 bytes), align: 0
  Segment part 23.
           ENTRY                   ADDRESS         REF BY
           =====                   =======         ======
           phyRxCallback::?relay   000004C3        hal_rf_Isr (halStack)
    -------------------------------------------------------------------------
BANK_RELAYS
  Relative segment, address: CODE 000004C9 - 000004CE (0x6 bytes), align: 0
  Segment part 25.
           ENTRY                   ADDRESS         REF BY
           =====                   =======         ======
           phyTxStartCallBack::?relay
                                   000004C9        halSendPacket (halStack)
    -------------------------------------------------------------------------
BANK_RELAYS
  Relative segment, address: CODE 000004CF - 000004D4 (0x6 bytes), align: 0
  Segment part 27.
           ENTRY                   ADDRESS         REF BY
           =====                   =======         ======
           phyTxEndCallBack::?relay
                                   000004CF        hal_rf_Isr (halStack)
    -------------------------------------------------------------------------
BANK_RELAYS
  Relative segment, address: CODE 000004D5 - 000004DA (0x6 bytes), align: 0
  Segment part 29.
           ENTRY                   ADDRESS         REF BY
           =====                   =======         ======
           phyFSM::?relay          000004D5        ?Subroutine46 (mac)
                                                   macFSM (mac)

    *************************************************************************

  FILE NAME : F:\6LoWSN\6lowsn_stack\obj\compiletest\iar51_cc2530\coord\Obj\slip.r51
    *************************************************************************

  FILE NAME : F:\6LoWSN\6lowsn_stack\obj\compiletest\iar51_cc2530\coord\Obj\test_demo.r51
  PROGRAM MODULE, NAME : test_demo

  SEGMENTS IN THE MODULE
  ======================
XDATA_Z
  Relative segment, address: XDATA 00001173 - 00001176 (0x4 bytes), align: 0
  Segment part 7.             Intra module refs:   main
           ENTRY                   ADDRESS         REF BY
           =====                   =======         ======
           my_timer                00001173 
    -------------------------------------------------------------------------
XDATA_Z
  Relative segment, address: XDATA 00001177 - 00001186 (0x10 bytes), align: 0
  Segment part 9.             Intra module refs:   main
           ENTRY                   ADDRESS         REF BY
           =====                   =======         ======
           network_prefix          00001177 
    -------------------------------------------------------------------------
XDATA_Z
  Relative segment, address: XDATA 00001187 - 00001187 (0x1 bytes), align: 0
  Segment part 10.            Intra module refs:   main
           ENTRY                   ADDRESS         REF BY
           =====                   =======         ======
           prefix_len              00001187 
    -------------------------------------------------------------------------
<BANKED_CODE> 1 (was BANKED_CODE)
  Relative segment, address: CODE 000075DC - 000076E1 (0x106 bytes), align: 0
  Segment part 32.
           ENTRY                   ADDRESS         REF BY
           =====                   =======         ======
           main                    000075DC        ?call_main (?cmain)
               calls direct
               XSTACK = 00000000 ( 00000008 )
    -------------------------------------------------------------------------
CODE_C
  Relative segment, address: CODE 00001D09 - 00001D1D (0x15 bytes), align: 0
  Segment part 15.            Intra module refs:   main
           LOCAL                   ADDRESS         
           =====                   =======         
           main{2}::xxxxromstr     00001D09 
    -------------------------------------------------------------------------
CODE_C
  Relative segment, address: CODE 00001D1E - 00001D2C (0xf bytes), align: 0
  Segment part 16.            Intra module refs:   main
           LOCAL                   ADDRESS         
           =====                   =======         
           main{3}::xxxxromstr     00001D1E 
    -------------------------------------------------------------------------
CODE_C
  Relative segment, address: CODE 00001D2D - 00001D2E (0x2 bytes), align: 0
  Segment part 17.            Intra module refs:   main
           LOCAL                   ADDRESS         
           =====                   =======         
           main{4}::xxxxromstr     00001D2D 
    -------------------------------------------------------------------------
CODE_C
  Relative segment, address: CODE 00001D2F - 00001D43 (0x15 bytes), align: 0
  Segment part 18.            Intra module refs:   main
           LOCAL                   ADDRESS         
           =====                   =======         
           main{6}::xxxxromstr     00001D2F 
    -------------------------------------------------------------------------
<BANKED_CODE> 1 (was BANKED_CODE)
  Relative segment, address: CODE 000076E2 - 00007775 (0x94 bytes), align: 0
  Segment part 34.            Intra module refs:   usrRxPacketCallback::?relay
           ENTRY                   ADDRESS         REF BY
           =====                   =======         ======
           usrRxPacketCallback     000076E2 
               calls direct
               XSTACK = 00000000 ( 00000009 )
    -------------------------------------------------------------------------
<BANKED_CODE> 1 (was BANKED_CODE)
  Relative segment, address: CODE 00007776 - 0000777A (0x5 bytes), align: 0
  Segment part 36.            Intra module refs:   usrJoinNotifyCallback
                                                   usrRxPacketCallback
           LOCAL                   ADDRESS         
           =====                   =======         
           ?Subroutine0            00007776 
    -------------------------------------------------------------------------
CODE_C
  Relative segment, address: CODE 00001D44 - 00001D54 (0x11 bytes), align: 0
  Segment part 19.            Intra module refs:   usrRxPacketCallback
           LOCAL                   ADDRESS         
           =====                   =======         
           usrRxPacketCallback{1}::xxxxromstr
                                   00001D44 
    -------------------------------------------------------------------------
CODE_C
  Relative segment, address: CODE 00001D55 - 00001D61 (0xd bytes), align: 0
  Segment part 20.            Intra module refs:   usrRxPacketCallback
           LOCAL                   ADDRESS         
           =====                   =======         
           usrRxPacketCallback{2}::xxxxromstr
                                   00001D55 
    -------------------------------------------------------------------------
CODE_C
  Relative segment, address: CODE 00001D62 - 00001D63 (0x2 bytes), align: 0
  Segment part 21.            Intra module refs:   usrRxPacketCallback
           LOCAL                   ADDRESS         
           =====                   =======         
           usrRxPacketCallback{3}::xxxxromstr
                                   00001D62 
    -------------------------------------------------------------------------
CODE_C
  Relative segment, address: CODE 00001D64 - 00001D71 (0xe bytes), align: 0
  Segment part 22.            Intra module refs:   usrRxPacketCallback
           LOCAL                   ADDRESS         
           =====                   =======         
           usrRxPacketCallback{4}::xxxxromstr
                                   00001D64 
    -------------------------------------------------------------------------
CODE_C
  Relative segment, address: CODE 00001D72 - 00001D82 (0x11 bytes), align: 0
  Segment part 23.            Intra module refs:   usrRxPacketCallback
           LOCAL                   ADDRESS         
           =====                   =======         
           usrRxPacketCallback{5}::xxxxromstr
                                   00001D72 
    -------------------------------------------------------------------------
CODE_C
  Relative segment, address: CODE 00001D83 - 00001D91 (0xf bytes), align: 0
  Segment part 24.            Intra module refs:   usrRxPacketCallback
           LOCAL                   ADDRESS         
           =====                   =======         
           usrRxPacketCallback{6}::xxxxromstr
                                   00001D83 
    -------------------------------------------------------------------------
CODE_C
  Relative segment, address: CODE 00001D92 - 00001D98 (0x7 bytes), align: 0
  Segment part 25.            Intra module refs:   usrRxPacketCallback
           LOCAL                   ADDRESS         
           =====                   =======         
           usrRxPacketCallback{7}::xxxxromstr
                                   00001D92 
    -------------------------------------------------------------------------
CODE_C
  Relative segment, address: CODE 00001D99 - 00001D9B (0x3 bytes), align: 0
  Segment part 26.            Intra module refs:   usrRxPacketCallback
           LOCAL                   ADDRESS         
           =====                   =======         
           usrRxPacketCallback{8}{9}::xxxxromstr
                                   00001D99 
    -------------------------------------------------------------------------
<BANKED_CODE> 1 (was BANKED_CODE)
  Relative segment, address: CODE 0000777B - 0000777F (0x5 bytes), align: 0
  Segment part 37.            Intra module refs:   usrJoinVerifyCallback::?relay
           ENTRY                   ADDRESS         REF BY
           =====                   =======         ======
           usrJoinVerifyCallback   0000777B 
    -------------------------------------------------------------------------
<BANKED_CODE> 1 (was BANKED_CODE)
  Relative segment, address: CODE 00007780 - 000077A9 (0x2a bytes), align: 0
  Segment part 39.            Intra module refs:   usrJoinNotifyCallback::?relay
           ENTRY                   ADDRESS         REF BY
           =====                   =======         ======
           usrJoinNotifyCallback   00007780 
               calls direct
               XSTACK = 00000000 ( 00000009 )
    -------------------------------------------------------------------------
CODE_C
  Relative segment, address: CODE 00001D9C - 00001DA9 (0xe bytes), align: 0
  Segment part 27.            Intra module refs:   usrJoinNotifyCallback
           LOCAL                   ADDRESS         
           =====                   =======         
           usrJoinNotifyCallback{1}::xxxxromstr
                                   00001D9C 
    -------------------------------------------------------------------------
<BANKED_CODE> 1 (was BANKED_CODE)
  Relative segment, address: CODE 000077AA - 000077AC (0x3 bytes), align: 0
  Segment part 41.            Intra module refs:   usrSlowTimerInt::?relay
           ENTRY                   ADDRESS         REF BY
           =====                   =======         ======
           usrSlowTimerInt         000077AA 
    -------------------------------------------------------------------------
<BANKED_CODE> 1 (was BANKED_CODE)
  Relative segment, address: CODE 000077AD - 000077AF (0x3 bytes), align: 0
  Segment part 43.            Intra module refs:   usrIntCallback::?relay
           ENTRY                   ADDRESS         REF BY
           =====                   =======         ======
           usrIntCallback          000077AD 
    -------------------------------------------------------------------------
BANK_RELAYS
  Relative segment, address: CODE 000004DB - 000004E0 (0x6 bytes), align: 0
  Segment part 35.
           ENTRY                   ADDRESS         REF BY
           =====                   =======         ======
           usrRxPacketCallback::?relay
                                   000004DB        apsRxFSM (aps)
    -------------------------------------------------------------------------
BANK_RELAYS
  Relative segment, address: CODE 000004E1 - 000004E6 (0x6 bytes), align: 0
  Segment part 38.
           ENTRY                   ADDRESS         REF BY
           =====                   =======         ======
           usrJoinVerifyCallback::?relay
                                   000004E1        macFormatAssociationResponse (mac)
    -------------------------------------------------------------------------
BANK_RELAYS
  Relative segment, address: CODE 000004E7 - 000004EC (0x6 bytes), align: 0
  Segment part 40.
           ENTRY                   ADDRESS         REF BY
           =====                   =======         ======
           usrJoinNotifyCallback::?relay
                                   000004E7        macFormatAssociationResponse (mac)
    -------------------------------------------------------------------------
BANK_RELAYS
  Relative segment, address: CODE 000004ED - 000004F2 (0x6 bytes), align: 0
  Segment part 42.
           ENTRY                   ADDRESS         REF BY
           =====                   =======         ======
           usrSlowTimerInt::?relay
                                   000004ED        hal_Timer2_Isr (halStack)
    -------------------------------------------------------------------------
BANK_RELAYS
  Relative segment, address: CODE 000004F3 - 000004F8 (0x6 bytes), align: 0
  Segment part 44.
           ENTRY                   ADDRESS         REF BY
           =====                   =======         ======
           usrIntCallback::?relay
                                   000004F3        hal_rf_Isr (halStack)

    *************************************************************************

  FILE NAME : C:\Program Files\IAR Systems\Embedded Workbench 5.3 Evaluation version\8051\LIB\CLIB\cl-pli-blxd-1e16x01.r51
  LIBRARY MODULE, NAME : ?cexit

  SEGMENTS IN THE MODULE
  ======================
CSTART
  Relative segment, address: CODE 00000086 - 0000008A (0x5 bytes), align: 0
  Segment part 0.
           ENTRY                   ADDRESS         REF BY
           =====                   =======         ======
           exit                    00000086        ?call_main (?cmain)
           ?C_EXIT                 00000086 
           ?ROM_MONITOR_NOPS       00000086 

    -------------------------------------------------------------------------
  LIBRARY MODULE, NAME : ?cmain

  SEGMENTS IN THE MODULE
  ======================
CSTART
  Relative segment, address: CODE 0000008B, align: 0
  Segment part 0.
           ENTRY                   ADDRESS         REF BY
           =====                   =======         ======
           ?cmain                  0000008B        Segment part 12 (CSTARTUP)
    -------------------------------------------------------------------------
CSTART
  Relative segment, address: CODE 0000008B - 00000093 (0x9 bytes), align: 0
  Segment part 1.
           ENTRY                   ADDRESS         REF BY
           =====                   =======         ======
           __low_level_init_call   0000008B        __low_level_init (?low_level_init)
    -------------------------------------------------------------------------
CSTART
  Relative segment, address: CODE 00000094 - 000000A3 (0x10 bytes), align: 0
  Segment part 11.
           ENTRY                   ADDRESS         REF BY
           =====                   =======         ======
           __INIT_XDATA_Z          00000094        ReceiveFlag (halStack)
                                                   a_adp_rx_data (adp)
                                                   a_adp_service (adp)
                                                   a_adp_tx_data (adp)
                                                   a_aps_rx_data (aps)
                                                   a_aps_service (aps)
                                                   a_aps_tx_data (aps)
                                                   a_mac_rx_data (mac)
                                                   a_mac_service (mac)
                                                   a_mac_tx_data (mac)
                                                   a_nwk_rx_data (nwk)
                                                   a_nwk_service (nwk)
                                                   a_nwk_tx_data (nwk)
                                                   a_phy_service (phy)
                                                   adpDSN (adp)
                                                   adpRxState (adp)
                                                   adpState (adp)
                                                   adp_pib (adp)
                                                   apsRxState (aps)
                                                   apsState (aps)
                                                   apsTxFSM_status (aps)
                                                   aps_pib (aps)
                                                   aps_utility_timer (aps)
                                                   debug_level (debug)
                                                   loc_fipaddr (ds)
                                                   locaaddr (ds)
                                                   local_radio_flags (halStack)
                                                   locmaddr (ds)
                                                   locprefix (ds)
                                                   locuaddr (ds)
                                                   lowsn_ds6_if (ds)
                                                   lowsn_ds6_prefix_list (ds)
                                                   lowsn_ext_bitmap (nwk)
                                                   lowsn_ext_len (nwk)
                                                   lowsn_len (nwk)
                                                   lowsn_next_hdr (nwk)
                                                   macRxState (mac)
                                                   macState (mac)
                                                   macTxFSM_status (mac)
                                                   mac_addr_tbl (halNeighbor)
                                                   mac_nbr_tbl (neighbor)
                                                   mac_pib (mac)
                                                   mac_utility_timer (mac)
                                                   mem_heap (memalloc)
                                                   mp_pib (mp)
                                                   my_timer (test_demo)
                                                   network_prefix (test_demo)
                                                   nwkRxState (nwk)
                                                   nwkState (nwk)
                                                   nwk_pib (nwk)
                                                   nwk_utility_timer (nwk)
                                                   phyState (phy)
                                                   phy_pib (phy)
                                                   pmtu (nwk)
                                                   prefix (nd)
                                                   prefix_len (test_demo)
                                                   serio_rxBuff (halStack)
                                                   serio_rxHead (halStack)
                                                   serio_rxTail (halStack)
                                                   sw_state (evboard)
                                                   tmpTxBuff (phy)
    -------------------------------------------------------------------------
CSTART
  Relative segment, address: CODE 000000A4 - 000000CC (0x29 bytes), align: 0
  Segment part 28.
           ENTRY                   ADDRESS         REF BY
           =====                   =======         ======
           __INIT_XDATA_I          000000A4        __Constant_0 (adp)
                                                   __Constant_1 (halStack)
                                                   __Constant_10e (mac)
                                                   __Constant_12d (phy)
                                                   __Constant_1347 (console)
                                                   __Constant_14 (halStack)
                                                   __Constant_2d691 (aps)
                                                   __Constant_3070 (aps)
                                                   __Constant_3071 (mac)
                                                   __Constant_36 (mac)
                                                   __Constant_3e8 (ds)
                                                   __Constant_42160000 (halStack)
                                                   __Constant_7530 (ds)
                                                   __Constant_7f (ds)
                                                   __Constant_f231 (nwk)
                                                   __Constant_f424 (halStack)
                                                   __Constant_ffffff (aps)
                                                   __Constant_ffffffff (halStack)
    -------------------------------------------------------------------------
CSTART
  Relative segment, address: CODE 000000CD, align: 0
  Segment part 32.            Intra module refs:   __low_level_init_call
    -------------------------------------------------------------------------
CSTART
  Relative segment, address: CODE 000000CD - 000000E2 (0x16 bytes), align: 0
  Segment part 33.            Intra module refs:   ?cmain
           ENTRY                   ADDRESS         REF BY
           =====                   =======         ======
           ?call_main              000000CD 

    -------------------------------------------------------------------------
  LIBRARY MODULE, NAME : CSTARTUP

  SEGMENTS IN THE MODULE
  ======================
REGISTERS
  Relative segment, address: DATA 00000000, align: 0
  Segment part 0.             Intra module refs:   Segment part 6
           ENTRY                   ADDRESS         REF BY
           =====                   =======         ======
           ?REGISTERS              00000000 
    -------------------------------------------------------------------------
ISTACK
  Relative segment, address: IDATA 000000C0, align: 0
  Segment part 1.             Intra module refs:   Segment part 6
           ENTRY                   ADDRESS         REF BY
           =====                   =======         ======
           ?ISTACK_START           000000C0 
    -------------------------------------------------------------------------
XSTACK
  Relative segment, address: XDATA 00000001, align: 0
  Segment part 3.             Intra module refs:   ?RESET_XSP
           ENTRY                   ADDRESS         REF BY
           =====                   =======         ======
           ?XSTACK_START           00000001 
    -------------------------------------------------------------------------
INTVEC
  Common segment, address: CODE 00000000 - 00000002 (0x3 bytes), align: 0
  Segment part 5. ROOT.       Intra module refs:   Segment part 6
    -------------------------------------------------------------------------
CSTART
  Relative segment, address: CODE 000000E3 - 000000E8 (0x6 bytes), align: 0
  Segment part 6. ROOT.       Intra module refs:   Segment part 5
           ENTRY                   ADDRESS         REF BY
           =====                   =======         ======
           __program_start         000000E3        Absolute parts (?ABS_ENTRY_MOD)
           ?RESET_SP               000000E6 
    -------------------------------------------------------------------------
CSTART
  Relative segment, address: CODE 000000E9 - 000000EE (0x6 bytes), align: 0
  Segment part 8.
           ENTRY                   ADDRESS         REF BY
           =====                   =======         ======
           ?RESET_XSP              000000E9        ?XSP (VIRTUAL_REGISTERS)
    -------------------------------------------------------------------------
CSTART
  Relative segment, address: CODE 000000EF - 000000F1 (0x3 bytes), align: 0
  Segment part 9.
           ENTRY                   ADDRESS         REF BY
           =====                   =======         ======
           ?RESET_CODE_BANK        000000EF        Absolute parts (?BANKED_CODE_SUPPORT)
    -------------------------------------------------------------------------
CSTART
  Relative segment, address: CODE 000000F2 - 000000F4 (0x3 bytes), align: 0
  Segment part 12.            Intra module refs:   Absolute parts

    -------------------------------------------------------------------------
  LIBRARY MODULE, NAME : VIRTUAL_REGISTERS

  SEGMENTS IN THE MODULE
  ======================
BREG
  Relative segment, address: BIT 00000020.0 - 00000020.7 (0x8 bits), align: 0
  Segment part 0.
           ENTRY                   ADDRESS         REF BY
           =====                   =======         ======
           ?B0                     00000020.0      Absolute parts (CSTARTUP)
    -------------------------------------------------------------------------
VREG
  Relative segment, address: DATA 00000008, align: 0
  Segment part 1.
           ENTRY                   ADDRESS         REF BY
           =====                   =======         ======
           ?V0                     00000008        ?BANKED_ENTER_XDATA (?BANKED_ENTER_XDATA)
                                                   ?BANKED_LEAVE_XDATA (?BANKED_LEAVE_XDATA)
                                                   ?INTERRUPT_ENTER_XSP (?INTERRUPT_ENTER_XSP)
                                                   ?INTERRUPT_LEAVE_XSP (?INTERRUPT_LEAVE_XSP)
                                                   ?Subroutine0 (console)
                                                   ?Subroutine0 (ds)
                                                   ?Subroutine0 (memalloc)
                                                   ?Subroutine0 (phy)
                                                   ?Subroutine1 (halStack)
                                                   ?Subroutine19 (nwk)
                                                   ?Subroutine2 (memalloc)
                                                   ?Subroutine3 (adp)
                                                   ?Subroutine3 (console)
                                                   ?Subroutine3 (memalloc)
                                                   ?Subroutine3 (nwk)
                                                   ?Subroutine31 (aps)
                                                   ?Subroutine42 (aps)
                                                   ?Subroutine42 (mac)
                                                   ?Subroutine43 (mac)
                                                   ?Subroutine46 (aps)
                                                   ?Subroutine52 (mac)
                                                   ?Subroutine6 (nd)
                                                   ?Subroutine8 (neighbor)
                                                   ?Subroutine9 (debug)
                                                   MemAlloc (memalloc)
                                                   MemFree (memalloc)
                                                   MemInit (memalloc)
                                                   Segment part 28 (memalloc)
                                                   adpCopyFwdPkt (adp)
                                                   adpFmtCompHeader (adp)
                                                   adpParseCompHdr (adp)
                                                   adpTxCompData (adp)
                                                   adpTxData (adp)
                                                   apsFSM (aps)
                                                   apsInit (aps)
                                                   apsTxData (aps)
                                                   apsTxFSM (aps)
                                                   conPrintConfig (console)
                                                   conPrintIP6ADDR_bytes (console)
                                                   conPrintIP6ADDR_dbytes (console)
                                                   conPrintLADDR_bytes (console)
                                                   conPrintUINT32 (console)
                                                   dbgPrintNeighborTable (debug)
                                                   doIEEE_backoff (halStack)
                                                   ds6FindSrcIP (ds)
                                                   ds6GenInterfaceID16 (ds)
                                                   ds6Init (ds)
                                                   ds6MatchNum (ds)
                                                   ds6TestOnLink (ds)
                                                   evbIntCallback (evboard)
                                                   getVoltageValue (halStack)
                                                   halAdcSampleSingle (halStack)
                                                   halGetMACTimer (halStack)
                                                   halSendPacket (halStack)
                                                   halWait (halStack)
                                                   hal_Timer2_Isr (halStack)
                                                   hal_rf_Isr (halStack)
                                                   icmpCommonFmt (icmpv6)
                                                   icmpFmtEchoReply (icmpv6)
                                                   lowsn_ds6_aaddr_lookup (ds)
                                                   lowsn_ds6_list_loop (ds)
                                                   lowsn_ds6_maddr_add (ds)
                                                   lowsn_ds6_maddr_lookup (ds)
                                                   lowsn_ds6_prefix_add (ds)
                                                   lowsn_ds6_uaddr_add (ds)
                                                   lowsn_ds6_uaddr_lookup (ds)
                                                   macFSM (mac)
                                                   macFormatAssociationResponse (mac)
                                                   macInit (mac)
                                                   macInitRadio (mac)
                                                   macParseHdr (mac)
                                                   macRxFSM (mac)
                                                   macTxFSM (mac)
                                                   main (test_demo)
                                                   memcpy (?memcpy)
                                                   mpInit (mp)
                                                   ndFmtRA (nd)
                                                   ndFmtRS (nd)
                                                   ntAddNeighbor (neighbor)
                                                   ntCheckAddressMapEntry (neighbor)
                                                   ntFindByLADDR (neighbor)
                                                   ntFindNewDst (neighbor)
                                                   ntGetMaxSADDR (neighbor)
                                                   ntInitAddressAssignment (neighbor)
                                                   ntNewAddressMapEntry (neighbor)
                                                   nwkFSM (nwk)
                                                   nwkParseHdr (nwk)
                                                   nwkRxFSM (nwk)
                                                   nwkRxHandoff (nwk)
                                                   nwkTxData (nwk)
                                                   phyFSM (phy)
                                                   upper_layer_chksum (nwk)
                                                   usrRxPacketCallback (test_demo)
    -------------------------------------------------------------------------
XSP
  Relative segment, address: DATA 00000010 - 00000011 (0x2 bytes), align: 0
  Segment part 3.
           ENTRY                   ADDRESS         REF BY
           =====                   =======         ======
           ?XSP                    00000010        ?ADD_XSTACK_DISP0_8 (?ADD_XSTACK_DISP8)
                                                   ?ALLOC_XSTACK8 (?ALLOC_XSTACK8)
                                                   ?BANKED_ENTER_XDATA (?BANKED_ENTER_XDATA)
                                                   ?BANKED_LEAVE_XDATA (?BANKED_LEAVE_XDATA)
                                                   ?DEALLOC_XSTACK8 (?DEALLOC_XSTACK8)
                                                   ?INTERRUPT_ENTER_XSP (?INTERRUPT_ENTER_XSP)
                                                   ?INTERRUPT_LEAVE_XSP (?INTERRUPT_LEAVE_XSP)
                                                   ?PUSH_XSTACK8_X (?PUSH_XSTACK8_X)
                                                   ?RESET_XSP (CSTARTUP)
                                                   ?Subroutine0 (evboard)
                                                   ?Subroutine1 (halStack)
                                                   ?XSTACK_DISP0_8 (?XSTACK_DISP8)
                                                   MemFree (memalloc)
                                                   conPrintConfig (console)
                                                   getJoystickDirection (evboard)
                                                   halAdcSampleSingle (halStack)
                                                   halInitRadio (halStack)
                                                   halSetRadioIEEEAddress (halStack)
                                                   hal_rf_Isr (halStack)
                                                   lowsn_ds6_list_loop (ds)
                                                   lowsn_ds6_prefix_add (ds)
                                                   mpCommonFmt (mp)
                                                   mpFmtDeviceInfo (mp)
                                                   ntAddOurselvesToAddressTable (neighbor)
                                                   ntNewAddressMapEntry (neighbor)

    -------------------------------------------------------------------------
  LIBRARY MODULE, NAME : ?BANKED_CODE_SUPPORT

  SEGMENTS IN THE MODULE
  ======================
CSTART
  Relative segment, address: CODE 000000F5 - 0000013B (0x47 bytes), align: 0
  Segment part 1.
           ENTRY                   ADDRESS         REF BY
           =====                   =======         ======
           ?BCALL_30               000000F5        ?call_main (?cmain)
           ?BRET_30                00000109        ?BANKED_LEAVE_XDATA (?BANKED_LEAVE_XDATA)
                                                   ?Subroutine1 (evboard)
                                                   ?Subroutine1 (phy)
                                                   ?Subroutine10 (halStack)
                                                   ?Subroutine10 (mp)
                                                   ?Subroutine13 (neighbor)
                                                   ?Subroutine39 (ds)
                                                   ?Subroutine6 (console)
                                                   Segment part 143 (aps)
                                                   Segment part 52 (adp)
                                                   Segment part 76 (mac)
                                                   Segment part 83 (nwk)
                                                   Segment part 96 (halStack)
                                                   evbPoll (evboard)
                                                   halGetRandomByte (halStack)
                                                   halInitMACTimer (halStack)
                                                   icmpParseEchoReply (icmpv6)
                                                   mpExcuteMethod (mp)
                                                   mpFmtWriteResponse (mp)
                                                   phyRxCallback (phy)
                                                   usrIntCallback (test_demo)
                                                   usrJoinVerifyCallback (test_demo)
                                                   usrSlowTimerInt (test_demo)
           ?BDISPATCH_30           00000117        MemAlloc::?relay (memalloc)
                                                   MemFree::?relay (memalloc)
                                                   MemInit::?relay (memalloc)
                                                   adpCopyFwdPkt::?relay (adp)
                                                   adpFSM::?relay (adp)
                                                   adpFmtCompHeader::?relay (adp)
                                                   adpInit::?relay (adp)
                                                   adpParseCompHdr::?relay (adp)
                                                   adpRxBusy::?relay (adp)
                                                   adpRxFSM::?relay (adp)
                                                   adpRxHandoff::?relay (adp)
                                                   adpTxCompData::?relay (adp)
                                                   adpTxData::?relay (adp)
                                                   apsFSM::?relay (aps)
                                                   apsInit::?relay (aps)
                                                   apsParseHdr::?relay (aps)
                                                   apsRxBusy::?relay (aps)
                                                   apsRxFSM::?relay (aps)
                                                   apsRxHandoff::?relay (aps)
                                                   apsTxData::?relay (aps)
                                                   apsTxFSM::?relay (aps)
                                                   chksum::?relay (nwk)
                                                   conPCRLF::?relay (console)
                                                   conPrintConfig::?relay (console)
                                                   conPrintIP6ADDR::?relay (console)
                                                   conPrintIP6ADDR_bytes::?relay (console)
                                                   conPrintIP6ADDR_dbytes::?relay (console)
                                                   conPrintLADDR::?relay (console)
                                                   conPrintLADDR_bytes::?relay (console)
                                                   conPrintROMString_func::?relay (console)
                                                   conPrintUINT16::?relay (console)
                                                   conPrintUINT32::?relay (console)
                                                   conPrintUINT8::?relay (console)
                                                   conPrintUINT8_noleader::?relay (console)
                                                   dbgPrintNeighborTable::?relay (debug)
                                                   doIEEE_backoff::?relay (halStack)
                                                   ds6FindLinkLocalIP::?relay (ds)
                                                   ds6FindSrcIP::?relay (ds)
                                                   ds6GenInterfaceID16::?relay (ds)
                                                   ds6GenInterfaceID64::?relay (ds)
                                                   ds6Init::?relay (ds)
                                                   ds6LocalIPFrom16::?relay (ds)
                                                   ds6MatchNum::?relay (ds)
                                                   ds6TestOnLink::?relay (ds)
                                                   evbInit::?relay (evboard)
                                                   evbIntCallback::?relay (evboard)
                                                   evbLedSet::?relay (evboard)
                                                   evbPoll::?relay (evboard)
                                                   getJoystickDirection::?relay (evboard)
                                                   getVoltageValue::?relay (halStack)
                                                   halAdcSampleSingle::?relay (halStack)
                                                   halGetMACTimer::?relay (halStack)
                                                   halGetRandomByte::?relay (halStack)
                                                   halInit::?relay (halStack)
                                                   halInitMACTimer::?relay (halStack)
                                                   halInitRadio::?relay (halStack)
                                                   halInitUart::?relay (halStack)
                                                   halPutch::?relay (halStack)
                                                   halSendPacket::?relay (halStack)
                                                   halSetChannel::?relay (halStack)
                                                   halSetRadioIEEEAddress::?relay (halStack)
                                                   halSetRadioIEEEFrequency::?relay (halStack)
                                                   halSetRadioPANID::?relay (halStack)
                                                   halSetRadioShortAddr::?relay (halStack)
                                                   halUtilMemCopy::?relay (halStack)
                                                   halWait::?relay (halStack)
                                                   icmpCommonFmt::?relay (icmpv6)
                                                   icmpFmtEchoReply::?relay (icmpv6)
                                                   icmpFmtEchoRequest::?relay (icmpv6)
                                                   icmpParseEchoReply::?relay (icmpv6)
                                                   lowsn_ds6_aaddr_lookup::?relay (ds)
                                                   lowsn_ds6_list_loop::?relay (ds)
                                                   lowsn_ds6_maddr_add::?relay (ds)
                                                   lowsn_ds6_maddr_lookup::?relay (ds)
                                                   lowsn_ds6_prefix_add::?relay (ds)
                                                   lowsn_ds6_uaddr_add::?relay (ds)
                                                   lowsn_ds6_uaddr_lookup::?relay (ds)
                                                   lowsn_icmp6chksum::?relay (nwk)
                                                   lowsn_udpchksum::?relay (nwk)
                                                   macCheckDataRejection::?relay (mac)
                                                   macFSM::?relay (mac)
                                                   macFormatAssociationResponse::?relay (mac)
                                                   macFormatBeacon::?relay (mac)
                                                   macFormatCoordRealign::?relay (mac)
                                                   macFreeRxPacket::?relay (mac)
                                                   macGetRxPacket::?relay (mac)
                                                   macInit::?relay (mac)
                                                   macInitRadio::?relay (mac)
                                                   macParseBeacon::?relay (mac)
                                                   macParseHdr::?relay (mac)
                                                   macRxBuffEmpty::?relay (mac)
                                                   macRxBuffFull::?relay (mac)
                                                   macRxCallback::?relay (mac)
                                                   macRxFSM::?relay (mac)
                                                   macSetChannel::?relay (mac)
                                                   macSetPANID::?relay (mac)
                                                   macSetShortAddr::?relay (mac)
                                                   macTxCallback::?relay (mac)
                                                   macTxData::?relay (mac)
                                                   macTxFSM::?relay (mac)
                                                   memcmp::?relay (?memcmp)
                                                   memcpy::?relay (?memcpy)
                                                   memhdr_get_size::?relay (memalloc)
                                                   memhdr_set_size::?relay (memalloc)
                                                   memset::?relay (?memset)
                                                   mpCommonFmt::?relay (mp)
                                                   mpExcuteMethod::?relay (mp)
                                                   mpExecuteCheck::?relay (mp)
                                                   mpFmtCurrentVoltageResponsePayload::?relay (mp)
                                                   mpFmtDeviceInfo::?relay (mp)
                                                   mpFmtReadResponse::?relay (mp)
                                                   mpFmtTreeNeighborInfo::?relay (mp)
                                                   mpFmtWriteResponse::?relay (mp)
                                                   mpHandleRxReport::?relay (mp)
                                                   mpInit::?relay (mp)
                                                   mpReadCheck::?relay (mp)
                                                   mpWriteCheck::?relay (mp)
                                                   ndFmtRA::?relay (nd)
                                                   ndFmtRS::?relay (nd)
                                                   ntAddNeighbor::?relay (neighbor)
                                                   ntAddOurselvesToAddressTable::?relay (neighbor)
                                                   ntCheckAddressMapEntry::?relay (neighbor)
                                                   ntFindByLADDR::?relay (neighbor)
                                                   ntFindBySADDR::?relay (neighbor)
                                                   ntFindNewDst::?relay (neighbor)
                                                   ntGetCskip::?relay (neighbor)
                                                   ntGetMaxSADDR::?relay (neighbor)
                                                   ntInitAddressAssignment::?relay (neighbor)
                                                   ntInitAddressMap::?relay (neighbor)
                                                   ntInitTable::?relay (neighbor)
                                                   ntNewAddressMapEntry::?relay (neighbor)
                                                   nwkFSM::?relay (nwk)
                                                   nwkFindDstDLLAddr::?relay (nwk)
                                                   nwkInit::?relay (nwk)
                                                   nwkParseHdr::?relay (nwk)
                                                   nwkRxBusy::?relay (nwk)
                                                   nwkRxFSM::?relay (nwk)
                                                   nwkRxHandoff::?relay (nwk)
                                                   nwkTxData::?relay (nwk)
                                                   phyFSM::?relay (phy)
                                                   phyInit::?relay (phy)
                                                   phyRxCallback::?relay (phy)
                                                   phyTxEndCallBack::?relay (phy)
                                                   phyTxStartCallBack::?relay (phy)
                                                   upper_layer_chksum::?relay (nwk)
                                                   usrIntCallback::?relay (test_demo)
                                                   usrJoinNotifyCallback::?relay (test_demo)
                                                   usrJoinVerifyCallback::?relay (test_demo)
                                                   usrRxPacketCallback::?relay (test_demo)
                                                   usrSlowTimerInt::?relay (test_demo)

    -------------------------------------------------------------------------
  LIBRARY MODULE, NAME : ?L_EQ_X

  SEGMENTS IN THE MODULE
  ======================
RCODE
  Relative segment, address: CODE 0000050B - 0000051F (0x15 bytes), align: 0
  Segment part 1.
           ENTRY                   ADDRESS         REF BY
           =====                   =======         ======
           ?L_EQ_X                 0000050B        adpFmtCompHeader (adp)
                                                   halWait (halStack)
                                                   lowsn_ds6_uaddr_add (ds)

    -------------------------------------------------------------------------
  LIBRARY MODULE, NAME : ?UL_GT

  SEGMENTS IN THE MODULE
  ======================
RCODE
  Relative segment, address: CODE 00000520 - 0000052F (0x10 bytes), align: 0
  Segment part 1.
           ENTRY                   ADDRESS         REF BY
           =====                   =======         ======
           ?UL_GT                  00000520        apsFSM (aps)
                                                   doIEEE_backoff (halStack)
                                                   macFSM (mac)
                                                   nwkFSM (nwk)
                                                   phyFSM (phy)

    -------------------------------------------------------------------------
  LIBRARY MODULE, NAME : ?UL_GT_X

  SEGMENTS IN THE MODULE
  ======================
RCODE
  Relative segment, address: CODE 00000530 - 0000053F (0x10 bytes), align: 0
  Segment part 1.
           ENTRY                   ADDRESS         REF BY
           =====                   =======         ======
           ?UL_GT_X                00000530        apsTxFSM (aps)
                                                   macTxFSM (mac)

    -------------------------------------------------------------------------
  LIBRARY MODULE, NAME : ?L_TO_FLT

  SEGMENTS IN THE MODULE
  ======================
RCODE
  Relative segment, address: CODE 00000540 - 0000059C (0x5d bytes), align: 0
  Segment part 3.
           ENTRY                   ADDRESS         REF BY
           =====                   =======         ======
           ?UL_TO_FLT              00000540        getVoltageValue (halStack)

    -------------------------------------------------------------------------
  LIBRARY MODULE, NAME : ?FLT_TO_L

  SEGMENTS IN THE MODULE
  ======================
RCODE
  Relative segment, address: CODE 0000059D - 000005D0 (0x34 bytes), align: 0
  Segment part 3.
           ENTRY                   ADDRESS         REF BY
           =====                   =======         ======
           ?FLT_TO_L               0000059D        getVoltageValue (halStack)
    -------------------------------------------------------------------------
RCODE
  Relative segment, address: CODE 000005D1 - 000005DC (0xc bytes), align: 0
  Segment part 4.             Intra module refs:   ?FLT_TO_L
    -------------------------------------------------------------------------
RCODE
  Relative segment, address: CODE 000005DD - 0000062B (0x4f bytes), align: 0
  Segment part 5.             Intra module refs:   ?FLT_TO_L

    -------------------------------------------------------------------------
  LIBRARY MODULE, NAME : ?FLT_TEST_ZERO

  SEGMENTS IN THE MODULE
  ======================
RCODE
  Relative segment, address: CODE 0000062C - 00000635 (0xa bytes), align: 0
  Segment part 1.
           ENTRY                   ADDRESS         REF BY
           =====                   =======         ======
           ?FLT_TEST_ZERO_REW      0000062C        ?FLT_MUL (?FLT_MUL)

    -------------------------------------------------------------------------
  LIBRARY MODULE, NAME : ?FLT_TEST_ZERO_R1

  SEGMENTS IN THE MODULE
  ======================
RCODE
  Relative segment, address: CODE 00000636 - 0000063F (0xa bytes), align: 0
  Segment part 1.
           ENTRY                   ADDRESS         REF BY
           =====                   =======         ======
           ?FLT_TEST_ZERO_R1_REW   00000636        ?FLT_MUL (?FLT_MUL)

    -------------------------------------------------------------------------
  LIBRARY MODULE, NAME : ?FLT_TEST_INF

  SEGMENTS IN THE MODULE
  ======================
RCODE
  Relative segment, address: CODE 00000640 - 00000642 (0x3 bytes), align: 0
  Segment part 0.
           ENTRY                   ADDRESS         REF BY
           =====                   =======         ======
           ?FLT_TEST_INF_REW       00000640        ?FLT_MUL (?FLT_MUL)
    -------------------------------------------------------------------------
RCODE
  Relative segment, address: CODE 00000643 - 00000654 (0x12 bytes), align: 0
  Segment part 1.             Intra module refs:   ?FLT_TEST_INF_REW
           ENTRY                   ADDRESS         REF BY
           =====                   =======         ======
           ?FLT_TEST_INF           00000643 

    -------------------------------------------------------------------------
  LIBRARY MODULE, NAME : ?FLT_TEST_INF_R1

  SEGMENTS IN THE MODULE
  ======================
RCODE
  Relative segment, address: CODE 00000655 - 00000657 (0x3 bytes), align: 0
  Segment part 0.
           ENTRY                   ADDRESS         REF BY
           =====                   =======         ======
           ?FLT_TEST_INF_R1_REW    00000655        ?FLT_MUL (?FLT_MUL)
    -------------------------------------------------------------------------
RCODE
  Relative segment, address: CODE 00000658 - 00000669 (0x12 bytes), align: 0
  Segment part 1.             Intra module refs:   ?FLT_TEST_INF_R1_REW
           ENTRY                   ADDRESS         REF BY
           =====                   =======         ======
           ?FLT_TEST_INF_R1        00000658 

    -------------------------------------------------------------------------
  LIBRARY MODULE, NAME : ?FLT_TEST_NAN

  SEGMENTS IN THE MODULE
  ======================
RCODE
  Relative segment, address: CODE 0000066A - 00000678 (0xf bytes), align: 0
  Segment part 1.
           ENTRY                   ADDRESS         REF BY
           =====                   =======         ======
           ?FLT_TEST_NAN           0000066A        ?FLT_MUL (?FLT_MUL)

    -------------------------------------------------------------------------
  LIBRARY MODULE, NAME : ?FLT_TEST_NAN_R1

  SEGMENTS IN THE MODULE
  ======================
RCODE
  Relative segment, address: CODE 00000679 - 00000687 (0xf bytes), align: 0
  Segment part 1.
           ENTRY                   ADDRESS         REF BY
           =====                   =======         ======
           ?FLT_TEST_NAN_R1        00000679        ?FLT_MUL (?FLT_MUL)

    -------------------------------------------------------------------------
  LIBRARY MODULE, NAME : ?FLT_MUL

  SEGMENTS IN THE MODULE
  ======================
RCODE
  Relative segment, address: CODE 00000688 - 00000807 (0x180 bytes), align: 0
  Segment part 1.
           ENTRY                   ADDRESS         REF BY
           =====                   =======         ======
           ?FLT_MUL                00000688        getVoltageValue (halStack)

    -------------------------------------------------------------------------
  LIBRARY MODULE, NAME : ?UL_SHR

  SEGMENTS IN THE MODULE
  ======================
RCODE
  Relative segment, address: CODE 00000808 - 0000080C (0x5 bytes), align: 0
  Segment part 1.             Intra module refs:   Segment part 2
           ENTRY                   ADDRESS         REF BY
           =====                   =======         ======
           ?UL_SHR                 00000808        adpTxCompData (adp)
                                                   conPrintUINT32 (console)
                                                   halWait (halStack)
                                                   hal_Timer2_Isr (halStack)
                                                   nwkTxData (nwk)
    -------------------------------------------------------------------------
RCODE
  Relative segment, address: CODE 0000080D - 00000820 (0x14 bytes), align: 0
  Segment part 2.             Intra module refs:   ?UL_SHR

    -------------------------------------------------------------------------
  LIBRARY MODULE, NAME : ?L_SHL

  SEGMENTS IN THE MODULE
  ======================
RCODE
  Relative segment, address: CODE 00000821 - 00000826 (0x6 bytes), align: 0
  Segment part 0.
           ENTRY                   ADDRESS         REF BY
           =====                   =======         ======
           ?L_SHL                  00000821        adpParseCompHdr (adp)
                                                   doIEEE_backoff (halStack)
                                                   halGetMACTimer (halStack)
                                                   hal_Timer2_Isr (halStack)
                                                   nwkParseHdr (nwk)
    -------------------------------------------------------------------------
RCODE
  Relative segment, address: CODE 00000827 - 0000082B (0x5 bytes), align: 0
  Segment part 1.             Intra module refs:   Segment part 2
           ENTRY                   ADDRESS         REF BY
           =====                   =======         ======
           ?L_SHL_REW              00000827 
    -------------------------------------------------------------------------
RCODE
  Relative segment, address: CODE 0000082C - 0000083F (0x14 bytes), align: 0
  Segment part 2.             Intra module refs:   ?L_SHL
                                                   ?L_SHL_REW

    -------------------------------------------------------------------------
  LIBRARY MODULE, NAME : ?L_ADD

  SEGMENTS IN THE MODULE
  ======================
RCODE
  Relative segment, address: CODE 00000840 - 00000852 (0x13 bytes), align: 0
  Segment part 1.
           ENTRY                   ADDRESS         REF BY
           =====                   =======         ======
           ?L_ADD                  00000840        halGetMACTimer (halStack)
                                                   halWait (halStack)
                                                   hal_Timer2_Isr (halStack)

    -------------------------------------------------------------------------
  LIBRARY MODULE, NAME : ?L_ADD_X

  SEGMENTS IN THE MODULE
  ======================
RCODE
  Relative segment, address: CODE 00000853 - 00000865 (0x13 bytes), align: 0
  Segment part 1.
           ENTRY                   ADDRESS         REF BY
           =====                   =======         ======
           ?L_ADD_X                00000853        doIEEE_backoff (halStack)
                                                   halWait (halStack)
                                                   hal_Timer2_Isr (halStack)

    -------------------------------------------------------------------------
  LIBRARY MODULE, NAME : ?L_ADD_TO_X

  SEGMENTS IN THE MODULE
  ======================
RCODE
  Relative segment, address: CODE 00000866 - 00000878 (0x13 bytes), align: 0
  Segment part 1.
           ENTRY                   ADDRESS         REF BY
           =====                   =======         ======
           ?L_ADD_TO_X             00000866        adpParseCompHdr (adp)
                                                   nwkParseHdr (nwk)

    -------------------------------------------------------------------------
  LIBRARY MODULE, NAME : ?L_SUB_X

  SEGMENTS IN THE MODULE
  ======================
RCODE
  Relative segment, address: CODE 00000879 - 00000890 (0x18 bytes), align: 0
  Segment part 1.
           ENTRY                   ADDRESS         REF BY
           =====                   =======         ======
           ?L_SUB_X                00000879        apsFSM (aps)
                                                   apsTxFSM (aps)
                                                   doIEEE_backoff (halStack)
                                                   macFSM (mac)
                                                   macTxFSM (mac)
                                                   nwkFSM (nwk)
                                                   phyFSM (phy)

    -------------------------------------------------------------------------
  LIBRARY MODULE, NAME : ?L_AND_X

  SEGMENTS IN THE MODULE
  ======================
RCODE
  Relative segment, address: CODE 00000891 - 000008A3 (0x13 bytes), align: 0
  Segment part 1.
           ENTRY                   ADDRESS         REF BY
           =====                   =======         ======
           ?L_AND_X                00000891        apsFSM (aps)
                                                   apsTxFSM (aps)
                                                   doIEEE_backoff (halStack)
                                                   macFSM (mac)
                                                   macTxFSM (mac)
                                                   nwkFSM (nwk)
                                                   phyFSM (phy)

    -------------------------------------------------------------------------
  LIBRARY MODULE, NAME : ?L_MOV_X

  SEGMENTS IN THE MODULE
  ======================
RCODE
  Relative segment, address: CODE 000008A4 - 000008B2 (0xf bytes), align: 0
  Segment part 0.
           ENTRY                   ADDRESS         REF BY
           =====                   =======         ======
           ?L_MOV_X                000008A4        adpFmtCompHeader (adp)
                                                   adpParseCompHdr (adp)
                                                   adpTxCompData (adp)
                                                   apsFSM (aps)
                                                   apsInit (aps)
                                                   apsTxData (aps)
                                                   conPrintConfig (console)
                                                   doIEEE_backoff (halStack)
                                                   ds6Init (ds)
                                                   getVoltageValue (halStack)
                                                   icmpCommonFmt (icmpv6)
                                                   lowsn_ds6_prefix_add (ds)
                                                   lowsn_ds6_uaddr_add (ds)
                                                   macFSM (mac)
                                                   macInit (mac)
                                                   macInitRadio (mac)
                                                   main (test_demo)
                                                   ndFmtRA (nd)
                                                   ndFmtRS (nd)
                                                   nwkFSM (nwk)
                                                   nwkRxHandoff (nwk)
                                                   nwkTxData (nwk)
                                                   phyFSM (phy)

    -------------------------------------------------------------------------
  LIBRARY MODULE, NAME : ?L_MOV_TO_X

  SEGMENTS IN THE MODULE
  ======================
RCODE
  Relative segment, address: CODE 000008B3 - 000008C1 (0xf bytes), align: 0
  Segment part 2.
           ENTRY                   ADDRESS         REF BY
           =====                   =======         ======
           ?L_MOV_TO_X             000008B3        apsFSM (aps)
                                                   apsInit (aps)
                                                   apsTxData (aps)
                                                   apsTxFSM (aps)
                                                   doIEEE_backoff (halStack)
                                                   ds6Init (ds)
                                                   icmpCommonFmt (icmpv6)
                                                   lowsn_ds6_prefix_add (ds)
                                                   macFSM (mac)
                                                   macInit (mac)
                                                   macInitRadio (mac)
                                                   macRxFSM (mac)
                                                   macTxCallback (mac)
                                                   main (test_demo)
                                                   ndFmtRA (nd)
                                                   ndFmtRS (nd)
                                                   nwkFSM (nwk)
                                                   nwkParseHdr (nwk)
                                                   nwkRxHandoff (nwk)
                                                   nwkTxData (nwk)
                                                   phyTxStartCallBack (phy)

    -------------------------------------------------------------------------
  LIBRARY MODULE, NAME : ?MOVE_LONG8_XDATA_IDATA

  SEGMENTS IN THE MODULE
  ======================
RCODE
  Relative segment, address: CODE 000008C2 - 000008CE (0xd bytes), align: 0
  Segment part 0.
           ENTRY                   ADDRESS         REF BY
           =====                   =======         ======
           ?MOVE_LONG8_XDATA_IDATA
                                   000008C2        ?PUSH_XSTACK_I (?PUSH_XSTACK_I)

    -------------------------------------------------------------------------
  LIBRARY MODULE, NAME : ?MOVE_LONG8_XDATA_XDATA

  SEGMENTS IN THE MODULE
  ======================
RCODE
  Relative segment, address: CODE 000008CF - 000008EF (0x21 bytes), align: 0
  Segment part 0.
           ENTRY                   ADDRESS         REF BY
           =====                   =======         ======
           ?MOVE_LONG8_XDATA_XDATA
                                   000008CF        ?PUSH_XSTACK8_X (?PUSH_XSTACK8_X)
                                                   apsFSM (aps)
                                                   apsRxHandoff (aps)
                                                   apsTxData (aps)
                                                   ds6FindSrcIP (ds)
                                                   halInitRadio (halStack)
                                                   lowsn_ds6_maddr_add (ds)
                                                   lowsn_ds6_prefix_add (ds)
                                                   lowsn_ds6_uaddr_add (ds)
                                                   mpCommonFmt (mp)
                                                   mpFmtReadResponse (mp)
                                                   ndFmtRA (nd)
                                                   nwkRxHandoff (nwk)
                                                   nwkTxData (nwk)

    -------------------------------------------------------------------------
  LIBRARY MODULE, NAME : ?SS_SHR

  SEGMENTS IN THE MODULE
  ======================
RCODE
  Relative segment, address: CODE 000008F0 - 000008F2 (0x3 bytes), align: 0
  Segment part 1.             Intra module refs:   Segment part 2
           ENTRY                   ADDRESS         REF BY
           =====                   =======         ======
           ?SS_SHR                 000008F0        halAdcSampleSingle (halStack)
    -------------------------------------------------------------------------
RCODE
  Relative segment, address: CODE 000008F3 - 000008FF (0xd bytes), align: 0
  Segment part 2.             Intra module refs:   ?SS_SHR

    -------------------------------------------------------------------------
  LIBRARY MODULE, NAME : ?US_SHR

  SEGMENTS IN THE MODULE
  ======================
RCODE
  Relative segment, address: CODE 00000900 - 00000902 (0x3 bytes), align: 0
  Segment part 1.             Intra module refs:   Segment part 2
           ENTRY                   ADDRESS         REF BY
           =====                   =======         ======
           ?US_SHR                 00000900        getVoltageValue (halStack)
    -------------------------------------------------------------------------
RCODE
  Relative segment, address: CODE 00000903 - 0000090E (0xc bytes), align: 0
  Segment part 2.             Intra module refs:   ?US_SHR

    -------------------------------------------------------------------------
  LIBRARY MODULE, NAME : ?S_SHL

  SEGMENTS IN THE MODULE
  ======================
RCODE
  Relative segment, address: CODE 0000090F - 00000911 (0x3 bytes), align: 0
  Segment part 0.
           ENTRY                   ADDRESS         REF BY
           =====                   =======         ======
           ?S_SHL                  0000090F        evbIntCallback (evboard)
                                                   halAdcSampleSingle (halStack)
                                                   halWait (halStack)
                                                   ntGetMaxSADDR (neighbor)
                                                   ntInitAddressAssignment (neighbor)
    -------------------------------------------------------------------------
RCODE
  Relative segment, address: CODE 00000912 - 00000914 (0x3 bytes), align: 0
  Segment part 1.             Intra module refs:   Segment part 2
           ENTRY                   ADDRESS         REF BY
           =====                   =======         ======
           ?S_SHL_REW              00000912 
    -------------------------------------------------------------------------
RCODE
  Relative segment, address: CODE 00000915 - 00000921 (0xd bytes), align: 0
  Segment part 2.             Intra module refs:   ?S_SHL
                                                   ?S_SHL_REW

    -------------------------------------------------------------------------
  LIBRARY MODULE, NAME : ?ALLOC_XSTACK8

  SEGMENTS IN THE MODULE
  ======================
RCODE
  Relative segment, address: CODE 00000922 - 00000937 (0x16 bytes), align: 0
  Segment part 0.
           ENTRY                   ADDRESS         REF BY
           =====                   =======         ======
           ?ALLOC_XSTACK8          00000922        MemFree (memalloc)
                                                   conPrintConfig (console)
                                                   doIEEE_backoff (halStack)
                                                   getJoystickDirection (evboard)
                                                   halAdcSampleSingle (halStack)
                                                   halSetRadioIEEEAddress (halStack)
                                                   hal_rf_Isr (halStack)
                                                   lowsn_ds6_list_loop (ds)
                                                   lowsn_ds6_prefix_add (ds)
                                                   ntAddOurselvesToAddressTable (neighbor)
                                                   ntNewAddressMapEntry (neighbor)

    -------------------------------------------------------------------------
  LIBRARY MODULE, NAME : ?DEALLOC_XSTACK8

  SEGMENTS IN THE MODULE
  ======================
RCODE
  Relative segment, address: CODE 00000938 - 00000951 (0x1a bytes), align: 0
  Segment part 0.
           ENTRY                   ADDRESS         REF BY
           =====                   =======         ======
           ?DEALLOC_XSTACK8        00000938        ?Subroutine12 (halStack)
                                                   ?Subroutine40 (ds)
                                                   MemFree (memalloc)
                                                   MemInit (memalloc)
                                                   adpParseCompHdr (adp)
                                                   apsFSM (aps)
                                                   conPrintConfig (console)
                                                   doIEEE_backoff (halStack)
                                                   ds6Init (ds)
                                                   ds6LocalIPFrom16 (ds)
                                                   ds6TestOnLink (ds)
                                                   getJoystickDirection (evboard)
                                                   halSetRadioIEEEAddress (halStack)
                                                   hal_rf_Isr (halStack)
                                                   icmpCommonFmt (icmpv6)
                                                   lowsn_ds6_aaddr_lookup (ds)
                                                   lowsn_ds6_list_loop (ds)
                                                   lowsn_ds6_maddr_add (ds)
                                                   lowsn_ds6_maddr_lookup (ds)
                                                   lowsn_ds6_prefix_add (ds)
                                                   lowsn_ds6_uaddr_add (ds)
                                                   lowsn_ds6_uaddr_lookup (ds)
                                                   main (test_demo)
                                                   mpFmtDeviceInfo (mp)
                                                   mpFmtTreeNeighborInfo (mp)
                                                   mpInit (mp)
                                                   ntAddOurselvesToAddressTable (neighbor)
                                                   ntNewAddressMapEntry (neighbor)
                                                   phyFSM (phy)
                                                   upper_layer_chksum (nwk)

    -------------------------------------------------------------------------
  LIBRARY MODULE, NAME : ?ADD_XSTACK_DISP8

  SEGMENTS IN THE MODULE
  ======================
RCODE
  Relative segment, address: CODE 00000952 - 0000096C (0x1b bytes), align: 0
  Segment part 1.
           ENTRY                   ADDRESS         REF BY
           =====                   =======         ======
           ?ADD_XSTACK_DISP0_8     00000952        ?PUSH_XSTACK_I (?PUSH_XSTACK_I)

    -------------------------------------------------------------------------
  LIBRARY MODULE, NAME : ?XSTACK_DISP8

  SEGMENTS IN THE MODULE
  ======================
RCODE
  Relative segment, address: CODE 0000096D - 00000976 (0xa bytes), align: 0
  Segment part 1.
           ENTRY                   ADDRESS         REF BY
           =====                   =======         ======
           ?XSTACK_DISP0_8         0000096D        chksum (nwk)
                                                   ds6GenInterfaceID16 (ds)
                                                   getJoystickDirection (evboard)
                                                   halSetRadioIEEEAddress (halStack)
                                                   hal_rf_Isr (halStack)
                                                   lowsn_ds6_list_loop (ds)
                                                   lowsn_ds6_prefix_add (ds)
                                                   lowsn_ds6_uaddr_add (ds)
                                                   memcmp (?memcmp)
                                                   memcpy (?memcpy)
                                                   memset (?memset)
                                                   mpFmtTreeNeighborInfo (mp)
                                                   ntCheckAddressMapEntry (neighbor)

    -------------------------------------------------------------------------
  LIBRARY MODULE, NAME : ?BANKED_ENTER_XDATA

  SEGMENTS IN THE MODULE
  ======================
RCODE
  Relative segment, address: CODE 00000977 - 000009DC (0x66 bytes), align: 0
  Segment part 1.
           ENTRY                   ADDRESS         REF BY
           =====                   =======         ======
           ?BANKED_ENTER_XDATA     00000977        MemAlloc (memalloc)
                                                   MemFree (memalloc)
                                                   MemInit (memalloc)
                                                   adpCopyFwdPkt (adp)
                                                   adpFmtCompHeader (adp)
                                                   adpParseCompHdr (adp)
                                                   adpTxCompData (adp)
                                                   adpTxData (adp)
                                                   apsFSM (aps)
                                                   apsInit (aps)
                                                   apsRxFSM (aps)
                                                   apsTxData (aps)
                                                   apsTxFSM (aps)
                                                   chksum (nwk)
                                                   conPrintConfig (console)
                                                   conPrintIP6ADDR_bytes (console)
                                                   conPrintIP6ADDR_dbytes (console)
                                                   conPrintLADDR_bytes (console)
                                                   conPrintROMString_func (console)
                                                   conPrintUINT16 (console)
                                                   conPrintUINT32 (console)
                                                   conPrintUINT8 (console)
                                                   conPrintUINT8_noleader (console)
                                                   dbgPrintNeighborTable (debug)
                                                   doIEEE_backoff (halStack)
                                                   ds6FindSrcIP (ds)
                                                   ds6GenInterfaceID16 (ds)
                                                   ds6Init (ds)
                                                   ds6MatchNum (ds)
                                                   ds6TestOnLink (ds)
                                                   evbIntCallback (evboard)
                                                   getJoystickDirection (evboard)
                                                   getVoltageValue (halStack)
                                                   halAdcSampleSingle (halStack)
                                                   halGetMACTimer (halStack)
                                                   halSendPacket (halStack)
                                                   halUtilMemCopy (halStack)
                                                   halWait (halStack)
                                                   icmpCommonFmt (icmpv6)
                                                   icmpFmtEchoReply (icmpv6)
                                                   icmpFmtEchoRequest (icmpv6)
                                                   lowsn_ds6_aaddr_lookup (ds)
                                                   lowsn_ds6_list_loop (ds)
                                                   lowsn_ds6_maddr_add (ds)
                                                   lowsn_ds6_maddr_lookup (ds)
                                                   lowsn_ds6_prefix_add (ds)
                                                   lowsn_ds6_uaddr_add (ds)
                                                   lowsn_ds6_uaddr_lookup (ds)
                                                   macCheckDataRejection (mac)
                                                   macFSM (mac)
                                                   macFormatAssociationResponse (mac)
                                                   macInit (mac)
                                                   macInitRadio (mac)
                                                   macParseHdr (mac)
                                                   macRxCallback (mac)
                                                   macRxFSM (mac)
                                                   macSetShortAddr (mac)
                                                   macTxCallback (mac)
                                                   macTxData (mac)
                                                   macTxFSM (mac)
                                                   memcmp (?memcmp)
                                                   memcpy (?memcpy)
                                                   memhdr_get_size (memalloc)
                                                   memhdr_set_size (memalloc)
                                                   memset (?memset)
                                                   mpFmtCurrentVoltageResponsePayload (mp)
                                                   mpFmtTreeNeighborInfo (mp)
                                                   mpInit (mp)
                                                   ndFmtRA (nd)
                                                   ndFmtRS (nd)
                                                   ntAddNeighbor (neighbor)
                                                   ntAddOurselvesToAddressTable (neighbor)
                                                   ntCheckAddressMapEntry (neighbor)
                                                   ntFindByLADDR (neighbor)
                                                   ntFindBySADDR (neighbor)
                                                   ntFindNewDst (neighbor)
                                                   ntGetMaxSADDR (neighbor)
                                                   ntInitAddressAssignment (neighbor)
                                                   ntNewAddressMapEntry (neighbor)
                                                   nwkFSM (nwk)
                                                   nwkParseHdr (nwk)
                                                   nwkRxFSM (nwk)
                                                   nwkRxHandoff (nwk)
                                                   nwkTxData (nwk)
                                                   phyFSM (phy)
                                                   phyTxStartCallBack (phy)
                                                   upper_layer_chksum (nwk)
                                                   usrJoinNotifyCallback (test_demo)
                                                   usrRxPacketCallback (test_demo)

    -------------------------------------------------------------------------
  LIBRARY MODULE, NAME : ?BANKED_LEAVE_XDATA

  SEGMENTS IN THE MODULE
  ======================
RCODE
  Relative segment, address: CODE 000009DD - 00000A1A (0x3e bytes), align: 0
  Segment part 1.
           ENTRY                   ADDRESS         REF BY
           =====                   =======         ======
           ?BANKED_LEAVE_XDATA     000009DD        ?Subroutine0 (test_demo)
                                                   ?Subroutine11 (halStack)
                                                   ?Subroutine14 (neighbor)
                                                   ?Subroutine15 (nd)
                                                   ?Subroutine15 (neighbor)
                                                   ?Subroutine16 (neighbor)
                                                   ?Subroutine17 (neighbor)
                                                   ?Subroutine27 (nwk)
                                                   ?Subroutine30 (nwk)
                                                   ?Subroutine38 (adp)
                                                   ?Subroutine38 (ds)
                                                   ?Subroutine4 (memalloc)
                                                   ?Subroutine41 (ds)
                                                   ?Subroutine42 (adp)
                                                   ?Subroutine42 (ds)
                                                   ?Subroutine43 (adp)
                                                   ?Subroutine47 (aps)
                                                   ?Subroutine54 (aps)
                                                   ?Subroutine56 (mac)
                                                   ?Subroutine60 (mac)
                                                   ?Subroutine61 (mac)
                                                   ?Subroutine7 (console)
                                                   ?Subroutine9 (mp)
                                                   MemAlloc (memalloc)
                                                   MemFree (memalloc)
                                                   MemInit (memalloc)
                                                   Segment part 106 (halStack)
                                                   Segment part 28 (console)
                                                   Segment part 58 (ds)
                                                   apsFSM (aps)
                                                   conPrintIP6ADDR_dbytes (console)
                                                   conPrintUINT32 (console)
                                                   dbgPrintNeighborTable (debug)
                                                   evbIntCallback (evboard)
                                                   getJoystickDirection (evboard)
                                                   halSendPacket (halStack)
                                                   halUtilMemCopy (halStack)
                                                   icmpCommonFmt (icmpv6)
                                                   icmpFmtEchoReply (icmpv6)
                                                   icmpFmtEchoRequest (icmpv6)
                                                   macFSM (mac)
                                                   macFormatAssociationResponse (mac)
                                                   memcmp (?memcmp)
                                                   memcpy (?memcpy)
                                                   memset (?memset)
                                                   mpFmtTreeNeighborInfo (mp)
                                                   nwkFSM (nwk)
                                                   phyFSM (phy)
                                                   phyTxStartCallBack (phy)

    -------------------------------------------------------------------------
  LIBRARY MODULE, NAME : ?INTERRUPT_ENTER_XSP

  SEGMENTS IN THE MODULE
  ======================
RCODE
  Relative segment, address: CODE 00000A1B - 00000A79 (0x5f bytes), align: 0
  Segment part 1.
           ENTRY                   ADDRESS         REF BY
           =====                   =======         ======
           ?INTERRUPT_ENTER_XSP    00000A1B        hal_Timer2_Isr (halStack)
                                                   hal_rf_Isr (halStack)
                                                   hal_rferr_Isr (halStack)

    -------------------------------------------------------------------------
  LIBRARY MODULE, NAME : ?INTERRUPT_LEAVE_XSP

  SEGMENTS IN THE MODULE
  ======================
RCODE
  Relative segment, address: CODE 00000A7A - 00000AC9 (0x50 bytes), align: 0
  Segment part 1.
           ENTRY                   ADDRESS         REF BY
           =====                   =======         ======
           ?INTERRUPT_LEAVE_XSP    00000A7A        hal_Timer2_Isr (halStack)
                                                   hal_rf_Isr (halStack)
                                                   hal_rferr_Isr (halStack)

    -------------------------------------------------------------------------
  LIBRARY MODULE, NAME : ?PUSH_XSTACK_I

  SEGMENTS IN THE MODULE
  ======================
RCODE
  Relative segment, address: CODE 00000ACA - 00000ACD (0x4 bytes), align: 0
  Segment part 2.
           ENTRY                   ADDRESS         REF BY
           =====                   =======         ======
           ?PUSH_XSTACK_I_TWO      00000ACA        MemInit (memalloc)
                                                   ds6Init (ds)
                                                   ds6TestOnLink (ds)
                                                   icmpCommonFmt (icmpv6)
                                                   lowsn_ds6_aaddr_lookup (ds)
                                                   lowsn_ds6_list_loop (ds)
                                                   lowsn_ds6_maddr_add (ds)
                                                   lowsn_ds6_maddr_lookup (ds)
                                                   lowsn_ds6_prefix_add (ds)
                                                   lowsn_ds6_uaddr_add (ds)
                                                   lowsn_ds6_uaddr_lookup (ds)
                                                   mpInit (mp)
                                                   ntNewAddressMapEntry (neighbor)
                                                   upper_layer_chksum (nwk)
    -------------------------------------------------------------------------
RCODE
  Relative segment, address: CODE 00000ACE - 00000ACF (0x2 bytes), align: 0
  Segment part 3.
           ENTRY                   ADDRESS         REF BY
           =====                   =======         ======
           ?PUSH_XSTACK_I_ONE      00000ACE        lowsn_ds6_aaddr_lookup (ds)
                                                   lowsn_ds6_maddr_add (ds)
                                                   lowsn_ds6_maddr_lookup (ds)
                                                   lowsn_ds6_prefix_add (ds)
                                                   lowsn_ds6_uaddr_add (ds)
                                                   lowsn_ds6_uaddr_lookup (ds)
    -------------------------------------------------------------------------
RCODE
  Relative segment, address: CODE 00000AD0 - 00000ADC (0xd bytes), align: 0
  Segment part 4.             Intra module refs:   ?PUSH_XSTACK_I_ONE
                                                   ?PUSH_XSTACK_I_TWO
           ENTRY                   ADDRESS         REF BY
           =====                   =======         ======
           ?PUSH_XSTACK_I          00000AD0 

    -------------------------------------------------------------------------
  LIBRARY MODULE, NAME : ?PUSH_XSTACK8_X

  SEGMENTS IN THE MODULE
  ======================
RCODE
  Relative segment, address: CODE 00000ADD - 00000AE0 (0x4 bytes), align: 0
  Segment part 1.
           ENTRY                   ADDRESS         REF BY
           =====                   =======         ======
           ?PUSH_XSTACK8_X_FOUR    00000ADD        ds6Init (ds)
                                                   ds6LocalIPFrom16 (ds)
                                                   main (test_demo)
    -------------------------------------------------------------------------
RCODE
  Relative segment, address: CODE 00000AE1 - 00000AE4 (0x4 bytes), align: 0
  Segment part 3.
           ENTRY                   ADDRESS         REF BY
           =====                   =======         ======
           ?PUSH_XSTACK8_X_TWO     00000AE1        adpParseCompHdr (adp)
                                                   ds6LocalIPFrom16 (ds)
                                                   lowsn_ds6_prefix_add (ds)
    -------------------------------------------------------------------------
RCODE
  Relative segment, address: CODE 00000AE5 - 00000B0D (0x29 bytes), align: 0
  Segment part 5.             Intra module refs:   ?PUSH_XSTACK8_X_FOUR
                                                   ?PUSH_XSTACK8_X_TWO
           ENTRY                   ADDRESS         REF BY
           =====                   =======         ======
           ?PUSH_XSTACK8_X         00000AE5        apsFSM (aps)
                                                   mpFmtDeviceInfo (mp)
                                                   mpFmtTreeNeighborInfo (mp)
                                                   phyFSM (phy)

    -------------------------------------------------------------------------
  LIBRARY MODULE, NAME : ?UC_SWITCH_DENSE

  SEGMENTS IN THE MODULE
  ======================
RCODE
  Relative segment, address: CODE 00000B0E - 00000B13 (0x6 bytes), align: 0
  Segment part 0.
           ENTRY                   ADDRESS         REF BY
           =====                   =======         ======
           ?UC_SWITCH_DENSE        00000B0E        adpFSM (adp)
                                                   adpParseCompHdr (adp)
                                                   adpRxFSM (adp)
                                                   apsFSM (aps)
                                                   apsRxFSM (aps)
                                                   evbLedSet (evboard)
                                                   macFSM (mac)
                                                   macRxFSM (mac)
                                                   macTxData (mac)
                                                   mpHandleRxReport (mp)
                                                   ntGetCskip (neighbor)
                                                   nwkFSM (nwk)
                                                   nwkRxFSM (nwk)
                                                   phyFSM (phy)
    -------------------------------------------------------------------------
RCODE
  Relative segment, address: CODE 00000B14 - 00000B42 (0x2f bytes), align: 0
  Segment part 2.             Intra module refs:   ?UC_SWITCH_DENSE
    -------------------------------------------------------------------------
RCODE
  Relative segment, address: CODE 00000B43 - 00000B43 (0x1 bytes), align: 0
  Segment part 4.             Intra module refs:   ?UC_SWITCH_DENSE

    -------------------------------------------------------------------------
  LIBRARY MODULE, NAME : ?UC_SWITCH_SPARSE

  SEGMENTS IN THE MODULE
  ======================
RCODE
  Relative segment, address: CODE 00000B44 - 00000B4A (0x7 bytes), align: 0
  Segment part 0.
           ENTRY                   ADDRESS         REF BY
           =====                   =======         ======
           ?UC_SWITCH_SPARSE       00000B44        adpFSM (adp)
                                                   macFSM (mac)
                                                   macRxFSM (mac)
                                                   nwkFSM (nwk)
                                                   nwkRxFSM (nwk)
    -------------------------------------------------------------------------
RCODE
  Relative segment, address: CODE 00000B4B - 00000B6C (0x22 bytes), align: 0
  Segment part 2.             Intra module refs:   ?UC_SWITCH_SPARSE
           ENTRY                   ADDRESS         REF BY
           =====                   =======         ======
           ?UC_SWITCH_SPARSE_LEAVE
                                   00000B61        ?UC_JMP_IF_IN_RANGE (?UC_JMP_IF_IN_RANGE)
                                                   ?UC_JMP_IF_VALUE (?UC_JMP_IF_VALUE)
    -------------------------------------------------------------------------
RCODE
  Relative segment, address: CODE 00000B6D - 00000B6D (0x1 bytes), align: 0
  Segment part 4.             Intra module refs:   ?UC_SWITCH_SPARSE

    -------------------------------------------------------------------------
  LIBRARY MODULE, NAME : ?UC_JMP_IF_IN_RANGE

  SEGMENTS IN THE MODULE
  ======================
RCODE
  Relative segment, address: CODE 00000B6E - 00000B8C (0x1f bytes), align: 0
  Segment part 0.
           ENTRY                   ADDRESS         REF BY
           =====                   =======         ======
           ?UC_JMP_IF_IN_RANGE     00000B6E        ?UC_SWITCH_SPARSE_LEAVE (?UC_SWITCH_SPARSE)

    -------------------------------------------------------------------------
  LIBRARY MODULE, NAME : ?UC_JMP_IF_VALUE

  SEGMENTS IN THE MODULE
  ======================
RCODE
  Relative segment, address: CODE 00000B8D - 00000BA2 (0x16 bytes), align: 0
  Segment part 0.
           ENTRY                   ADDRESS         REF BY
           =====                   =======         ======
           ?UC_JMP_IF_VALUE        00000B8D        ?UC_SWITCH_SPARSE_LEAVE (?UC_SWITCH_SPARSE)

    -------------------------------------------------------------------------
  LIBRARY MODULE, NAME : ?memcmp

  SEGMENTS IN THE MODULE
  ======================
<BANKED_CODE> 1 (was BANKED_CODE)
  Relative segment, address: CODE 00007C13 - 00007C6B (0x59 bytes), align: 0
  Segment part 6.             Intra module refs:   memcmp::?relay
           ENTRY                   ADDRESS         REF BY
           =====                   =======         ======
           memcmp                  00007C13 
               XSTACK = 00000002 ( 00000009 )
    -------------------------------------------------------------------------
BANK_RELAYS
  Relative segment, address: CODE 000004F9 - 000004FE (0x6 bytes), align: 0
  Segment part 7.
           ENTRY                   ADDRESS         REF BY
           =====                   =======         ======
           memcmp::?relay          000004F9        ds6TestOnLink (ds)
                                                   lowsn_ds6_list_loop (ds)

    -------------------------------------------------------------------------
  LIBRARY MODULE, NAME : ?memcpy

  SEGMENTS IN THE MODULE
  ======================
<BANKED_CODE> 1 (was BANKED_CODE)
  Relative segment, address: CODE 00007C6C - 00007CB3 (0x48 bytes), align: 0
  Segment part 6.             Intra module refs:   memcpy::?relay
           ENTRY                   ADDRESS         REF BY
           =====                   =======         ======
           memcpy                  00007C6C 
               XSTACK = 00000002 ( 0000000A )
               ISTACK = 00000000 ( 00000001 )
    -------------------------------------------------------------------------
BANK_RELAYS
  Relative segment, address: CODE 000004FF - 00000504 (0x6 bytes), align: 0
  Segment part 7.
           ENTRY                   ADDRESS         REF BY
           =====                   =======         ======
           memcpy::?relay          000004FF        icmpCommonFmt (icmpv6)

    -------------------------------------------------------------------------
  LIBRARY MODULE, NAME : ?memset

  SEGMENTS IN THE MODULE
  ======================
<BANKED_CODE> 1 (was BANKED_CODE)
  Relative segment, address: CODE 00007CB4 - 00007CE2 (0x2f bytes), align: 0
  Segment part 6.             Intra module refs:   memset::?relay
           ENTRY                   ADDRESS         REF BY
           =====                   =======         ======
           memset                  00007CB4 
               XSTACK = 00000002 ( 00000009 )
               ISTACK = 00000000 ( 00000001 )
    -------------------------------------------------------------------------
BANK_RELAYS
  Relative segment, address: CODE 00000505 - 0000050A (0x6 bytes), align: 0
  Segment part 7.
           ENTRY                   ADDRESS         REF BY
           =====                   =======         ======
           memset::?relay          00000505        MemInit (memalloc)
                                                   ds6Init (ds)

    -------------------------------------------------------------------------
  LIBRARY MODULE, NAME : ?low_level_init

  SEGMENTS IN THE MODULE
  ======================
CSTART
  Relative segment, address: CODE 0000013C - 0000013E (0x3 bytes), align: 0
  Segment part 6. ROOT.
           ENTRY                   ADDRESS         REF BY
           =====                   =======         ======
           __low_level_init        0000013C        __low_level_init_call (?cmain)




                ****************************************
                *                                      *
                *            MODULE SUMMARY            *
                *                                      *
                ****************************************

Module                     CODE      DATA      XDATA  IDATA    BIT
------                     ----      ----      -----  -----    ---
                          (Rel)  (Rel)  (Abs)  (Rel)  (Rel)  (Rel)
?ADD_XSTACK_DISP8            27
?ALLOC_XSTACK8               22
?BANKED_CODE_SUPPORT         71
?BANKED_ENTER_XDATA         102
?BANKED_LEAVE_XDATA          62
?DEALLOC_XSTACK8             26
?FLT_MUL                    384
?FLT_TEST_INF                21
?FLT_TEST_INF_R1             21
?FLT_TEST_NAN                15
?FLT_TEST_NAN_R1             15
?FLT_TEST_ZERO               10
?FLT_TEST_ZERO_R1            10
?FLT_TO_L                   143
?INTERRUPT_ENTER_XSP         95
?INTERRUPT_LEAVE_XSP         80
?L_ADD                       19
?L_ADD_TO_X                  19
?L_ADD_X                     19
?L_AND_X                     19
?L_EQ_X                      21
?L_MOV_TO_X                  15
?L_MOV_X                     15
?L_SHL                       31
?L_SUB_X                     24
?L_TO_FLT                    93
?MOVE_LONG8_XDATA_IDATA      13
?MOVE_LONG8_XDATA_XDATA      33
?PUSH_XSTACK8_X              49
?PUSH_XSTACK_I               19
?SS_SHR                      16
?S_SHL                       19
?UC_JMP_IF_IN_RANGE          31
?UC_JMP_IF_VALUE             22
?UC_SWITCH_DENSE             54
?UC_SWITCH_SPARSE            42
?UL_GT                       16
?UL_GT_X                     16
?UL_SHR                      25
?US_SHR                      15
?XSTACK_DISP8                10
?cexit                        5
?cmain                       88
?low_level_init               3
?memcmp                      95
?memcpy                      78
?memset                      53
CSTARTUP                     18
  + common                    3
VIRTUAL_REGISTERS                    2                           8
adp                       3 449                  139
  + shared                                         4
aps                       3 324                  366
  + shared                                  1      4
console                     875                    4
debug                       475                    1
ds                        2 757                  407
  + shared                                         4
evboard                     415             4      2
  + shared                                  1
halNeighbor                                      340
halStack                  2 515            39    171
  + shared                  134                    4
  + common
hal_dma                                     4
icmpv6                      913
mac                       5 495                  130
memalloc                    632                2 048
mp                        1 250                   20
nd                          837                    2
neighbor                  1 382                   68
nwk                       4 236                  160
phy                         524                  153
test_demo                   659                   21
N/A (command line)                  16           511     64
N/A (alignment)
----------               ------     --     --  -----     --      -
Total:                   31 837     18     49  4 559     64      8
  + common                  134


                ****************************************
                *                                      *
                *      SEGMENTS IN ADDRESS ORDER       *
                *                                      *
                ****************************************


SEGMENT              SPACE    START ADDRESS   END ADDRESS     SIZE  TYPE  ALIGN
=======              =====    =============   ===========     ====  ====  =====
INTVEC               CODE          00000000 - 00000085          86   com    0
CSTART               CODE          00000086 - 0000013E          B9   rel    0
IDATA_ID             CODE               0000013F                     dse    0
BIT_ID               CODE               0000013F                     dse    0
BDATA_ID             CODE               0000013F                     dse    0
IXDATA_ID            CODE               0000013F                     dse    0
PDATA_ID             CODE               0000013F                     dse    0
DATA_ID              CODE               0000013F                     dse    0
XDATA_ID             CODE          0000013F - 00000186          48   rel    0
BANK_RELAYS          CODE          00000187 - 0000050A         384   rel    0
RCODE                CODE          0000050B - 00000BA2         698   rel    0
DIFUNCT              CODE               00000BA3                     dse    0
CODE_C               CODE          00000BA3 - 00001DA9        1207   rel    0
CODE_N               CODE               00001DAA                     dse    0
NEAR_CODE            CODE          00001DAA - 00002143         39A   rel    0
<BANKED_CODE> 1      CODE          00002144 - 00007CE2        5B9F   rel    0
REGISTERS            DATA          00000000 - 00000007           8   rel    0
VREG                 DATA          00000008 - 0000000F           8   rel    0
PSP                  DATA               00000010                     dse    0
XSP                  DATA          00000010 - 00000011           2   rel    0
BREG                 BIT        00000020.0  -  00000020.7        8   rel    0
SFR_AN               DATA          00000086 - 00000088           3   rel    0
                     DATA          00000090 - 00000091           2 
                     DATA          00000094 - 00000097           4 
                     DATA          0000009A - 0000009B           2 
                     DATA          0000009D - 0000009E           2 
                     DATA          000000A1 - 000000A8           8 
                     DATA          000000B4 - 000000B4           1 
                     DATA          000000B6 - 000000B6           1 
                     DATA          000000B8 - 000000B8           1 
                     DATA          000000BA - 000000BB           2 
                     DATA          000000BE - 000000BE           1 
                     DATA          000000C0 - 000000C6           7 
                     DATA          000000D2 - 000000D5           4 
                     DATA          000000D9 - 000000D9           1 
                     DATA          000000E1 - 000000E1           1 
                     DATA          000000E8 - 000000E9           2 
                     DATA          000000F1 - 000000F5           5 
                     DATA          000000FD - 000000FE           2 
XSTACK               XDATA         00000001 - 000001FF         1FF   rel    0
XDATA_Z              XDATA         00000200 - 00001187         F88   rel    0
XDATA_I              XDATA         00001188 - 000011CF          48   rel    0
ISTACK               IDATA         000000C0 - 000000FF          40   rel    0

                ****************************************
                *                                      *
                *        END OF CROSS REFERENCE        *
                *                                      *
                ****************************************

 31 971 bytes of CODE  memory
     18 bytes of DATA  memory (+ 49 absolute )
  4 559 bytes of XDATA memory
     64 bytes of IDATA memory
      8 bits  of BIT   memory

Errors: none
Warnings: none

